(dp0
S'comp.graphics/38555'
p1
I394
sS'comp.graphics/38554'
p2
I393
sS'comp.graphics/38557'
p3
I396
sS'comp.graphics/38556'
p4
I395
sS'comp.graphics/38551'
p5
I390
sS'comp.graphics/38550'
p6
I389
sS'comp.graphics/38553'
p7
I392
sS'comp.graphics/38552'
p8
I391
sS'rec.motorcycles/105061'
p9
I1847
sS'rec.motorcycles/105060'
p10
I1846
sS'rec.motorcycles/105063'
p11
I1849
sS'rec.motorcycles/105062'
p12
I1848
sS'comp.graphics/38559'
p13
I398
sS'comp.graphics/38558'
p14
I397
sS'rec.motorcycles/105067'
p15
I1853
sS'rec.motorcycles/105066'
p16
I1852
sS'comp.graphics/38399'
p17
I239
sS'comp.graphics/38398'
p18
I238
sS'comp.graphics/38393'
p19
I233
sS'comp.graphics/38392'
p20
I232
sS'comp.graphics/38391'
p21
I231
sS'comp.graphics/38390'
p22
I230
sS'comp.graphics/38397'
p23
I237
sS'comp.graphics/38396'
p24
I236
sS'comp.graphics/38395'
p25
I235
sS'comp.graphics/38394'
p26
I234
sS'comp.graphics/38951'
p27
I790
sS'comp.graphics/38950'
p28
I789
sS'comp.graphics/38953'
p29
I792
sS'comp.graphics/38952'
p30
I791
sS'comp.graphics/38955'
p31
I794
sS'comp.graphics/38954'
p32
I793
sS'comp.graphics/38957'
p33
I796
sS'comp.graphics/38956'
p34
I795
sS'comp.graphics/38959'
p35
I798
sS'comp.graphics/38958'
p36
I797
sS'rec.motorcycles/105115'
p37
I1879
sS'rec.motorcycles/105114'
p38
I1878
sS'rec.motorcycles/105117'
p39
I1881
sS'rec.motorcycles/105116'
p40
I1880
sS'rec.motorcycles/105111'
p41
I1875
sS'rec.motorcycles/105110'
p42
I1874
sS'rec.motorcycles/105113'
p43
I1877
sS'rec.motorcycles/105112'
p44
I1876
sS'rec.motorcycles/105119'
p45
I1883
sS'rec.motorcycles/105118'
p46
I1882
sS'comp.graphics/37936'
p47
I25
sS'comp.graphics/37937'
p48
I26
sS'comp.graphics/37934'
p49
I23
sS'comp.graphics/37935'
p50
I24
sS'comp.graphics/37932'
p51
I21
sS'comp.graphics/37933'
p52
I22
sS'comp.graphics/37930'
p53
I19
sS'comp.graphics/37931'
p54
I20
sS'rec.motorcycles/104509'
p55
I1361
sS'rec.motorcycles/104508'
p56
I1360
sS'comp.graphics/37938'
p57
I27
sS'comp.graphics/37939'
p58
I28
sS'comp.graphics/38825'
p59
I664
sS'comp.graphics/38824'
p60
I663
sS'comp.graphics/38827'
p61
I666
sS'comp.graphics/38826'
p62
I665
sS'comp.graphics/38821'
p63
I660
sS'comp.graphics/38820'
p64
I659
sS'comp.graphics/38823'
p65
I662
sS'comp.graphics/38822'
p66
I661
sS'comp.graphics/38829'
p67
I668
sS'comp.graphics/38828'
p68
I667
sS'rec.motorcycles/104448'
p69
I1300
sS'rec.motorcycles/104449'
p70
I1301
sS'rec.motorcycles/104440'
p71
I1292
sS'rec.motorcycles/104441'
p72
I1293
sS'rec.motorcycles/104442'
p73
I1294
sS'rec.motorcycles/104443'
p74
I1295
sS'rec.motorcycles/104444'
p75
I1296
sS'rec.motorcycles/104445'
p76
I1297
sS'rec.motorcycles/104446'
p77
I1298
sS'rec.motorcycles/104447'
p78
I1299
sS'rec.motorcycles/105069'
p79
I1854
sS'rec.motorcycles/104990'
p80
I1820
sS'rec.motorcycles/104991'
p81
I1821
sS'rec.motorcycles/104999'
p82
I1822
sS'rec.motorcycles/104736'
p83
I1587
sS'comp.graphics/40027'
p84
I999
sS'rec.motorcycles/105064'
p85
I1850
sS'rec.motorcycles/105662'
p86
I1999
sS'rec.motorcycles/105661'
p87
I1998
sS'rec.motorcycles/105135'
p88
I1899
sS'comp.graphics/38762'
p89
I601
sS'comp.graphics/38763'
p90
I602
sS'comp.graphics/38760'
p91
I599
sS'comp.graphics/38761'
p92
I600
sS'comp.graphics/38766'
p93
I605
sS'comp.graphics/38767'
p94
I606
sS'comp.graphics/38764'
p95
I603
sS'comp.graphics/38765'
p96
I604
sS'comp.graphics/38768'
p97
I607
sS'comp.graphics/38769'
p98
I608
sS'comp.graphics/38855'
p99
I694
sS'comp.graphics/38494'
p100
I333
sS'comp.graphics/38495'
p101
I334
sS'comp.graphics/38496'
p102
I335
sS'comp.graphics/38497'
p103
I336
sS'comp.graphics/38490'
p104
I329
sS'comp.graphics/38491'
p105
I330
sS'comp.graphics/38492'
p106
I331
sS'comp.graphics/38493'
p107
I332
sS'comp.graphics/38498'
p108
I337
sS'comp.graphics/38499'
p109
I338
sS'comp.graphics/38614'
p110
I453
sS'rec.motorcycles/104922'
p111
I1764
sS'comp.graphics/38615'
p112
I454
sS'rec.motorcycles/104924'
p113
I1765
sS'rec.motorcycles/105229'
p114
I1954
sS'rec.motorcycles/105009'
p115
I1827
sS'rec.motorcycles/105228'
p116
I1953
sS'comp.graphics/39013'
p117
I851
sS'comp.graphics/39012'
p118
I850
sS'comp.graphics/38548'
p119
I387
sS'comp.graphics/38549'
p120
I388
sS'comp.graphics/39017'
p121
I855
sS'comp.graphics/39016'
p122
I854
sS'comp.graphics/39015'
p123
I853
sS'comp.graphics/39014'
p124
I852
sS'comp.graphics/38542'
p125
I381
sS'comp.graphics/38543'
p126
I382
sS'comp.graphics/38540'
p127
I379
sS'comp.graphics/38541'
p128
I380
sS'comp.graphics/38546'
p129
I385
sS'comp.graphics/38547'
p130
I386
sS'comp.graphics/38544'
p131
I383
sS'comp.graphics/38545'
p132
I384
sS'comp.graphics/38388'
p133
I228
sS'comp.graphics/38389'
p134
I229
sS'rec.motorcycles/105050'
p135
I1841
sS'rec.motorcycles/105051'
p136
I1842
sS'rec.motorcycles/105052'
p137
I1843
sS'rec.motorcycles/105053'
p138
I1844
sS'comp.graphics/38380'
p139
I220
sS'comp.graphics/38381'
p140
I221
sS'comp.graphics/38382'
p141
I222
sS'comp.graphics/38383'
p142
I223
sS'comp.graphics/38384'
p143
I224
sS'comp.graphics/38385'
p144
I225
sS'comp.graphics/38386'
p145
I226
sS'comp.graphics/38387'
p146
I227
sS'comp.graphics/38946'
p147
I785
sS'comp.graphics/38947'
p148
I786
sS'comp.graphics/38944'
p149
I783
sS'comp.graphics/38945'
p150
I784
sS'comp.graphics/38942'
p151
I781
sS'comp.graphics/38943'
p152
I782
sS'comp.graphics/38940'
p153
I779
sS'comp.graphics/38941'
p154
I780
sS'comp.graphics/38948'
p155
I787
sS'comp.graphics/38949'
p156
I788
sS'rec.motorcycles/105120'
p157
I1884
sS'rec.motorcycles/104505'
p158
I1357
sS'rec.motorcycles/105122'
p159
I1886
sS'rec.motorcycles/105123'
p160
I1887
sS'rec.motorcycles/105124'
p161
I1888
sS'rec.motorcycles/105125'
p162
I1889
sS'rec.motorcycles/105126'
p163
I1890
sS'rec.motorcycles/104504'
p164
I1356
sS'rec.motorcycles/105128'
p165
I1892
sS'rec.motorcycles/105129'
p166
I1893
sS'rec.motorcycles/104507'
p167
I1359
sS'rec.motorcycles/104530'
p168
I1382
sS'rec.motorcycles/104531'
p169
I1383
sS'rec.motorcycles/104532'
p170
I1384
sS'rec.motorcycles/104506'
p171
I1358
sS'rec.motorcycles/104534'
p172
I1386
sS'rec.motorcycles/104535'
p173
I1387
sS'rec.motorcycles/104536'
p174
I1388
sS'rec.motorcycles/104537'
p175
I1389
sS'rec.motorcycles/104538'
p176
I1390
sS'rec.motorcycles/104501'
p177
I1353
sS'rec.motorcycles/104500'
p178
I1352
sS'rec.motorcycles/103188'
p179
I1074
sS'rec.motorcycles/103189'
p180
I1075
sS'comp.graphics/38838'
p181
I677
sS'comp.graphics/38839'
p182
I678
sS'rec.motorcycles/104453'
p183
I1305
sS'rec.motorcycles/104452'
p184
I1304
sS'rec.motorcycles/104451'
p185
I1303
sS'rec.motorcycles/104450'
p186
I1302
sS'comp.graphics/38832'
p187
I671
sS'comp.graphics/38833'
p188
I672
sS'comp.graphics/38830'
p189
I669
sS'comp.graphics/38831'
p190
I670
sS'comp.graphics/38836'
p191
I675
sS'comp.graphics/38837'
p192
I676
sS'rec.motorcycles/104459'
p193
I1311
sS'comp.graphics/38835'
p194
I674
sS'rec.motorcycles/104981'
p195
I1811
sS'rec.motorcycles/104980'
p196
I1810
sS'rec.motorcycles/104983'
p197
I1813
sS'rec.motorcycles/104982'
p198
I1812
sS'rec.motorcycles/104985'
p199
I1815
sS'rec.motorcycles/104984'
p200
I1814
sS'rec.motorcycles/104987'
p201
I1817
sS'rec.motorcycles/104760'
p202
I1611
sS'rec.motorcycles/104989'
p203
I1819
sS'rec.motorcycles/104988'
p204
I1818
sS'rec.motorcycles/104766'
p205
I1617
sS'rec.motorcycles/105127'
p206
I1891
sS'comp.graphics/38717'
p207
I556
sS'comp.graphics/38716'
p208
I555
sS'comp.graphics/38715'
p209
I554
sS'comp.graphics/38714'
p210
I553
sS'comp.graphics/38713'
p211
I552
sS'comp.graphics/38712'
p212
I551
sS'comp.graphics/38711'
p213
I550
sS'comp.graphics/38710'
p214
I549
sS'rec.motorcycles/105263'
p215
I1988
sS'rec.motorcycles/105262'
p216
I1987
sS'rec.motorcycles/105261'
p217
I1986
sS'rec.motorcycles/105260'
p218
I1985
sS'comp.graphics/38719'
p219
I558
sS'comp.graphics/38718'
p220
I557
sS'rec.motorcycles/103187'
p221
I1073
sS'comp.graphics/39059'
p222
I897
sS'comp.graphics/39058'
p223
I896
sS'comp.graphics/38629'
p224
I468
sS'comp.graphics/38628'
p225
I467
sS'comp.graphics/38623'
p226
I462
sS'comp.graphics/38622'
p227
I461
sS'comp.graphics/38621'
p228
I460
sS'comp.graphics/38620'
p229
I459
sS'comp.graphics/38627'
p230
I466
sS'comp.graphics/38626'
p231
I465
sS'comp.graphics/38625'
p232
I464
sS'comp.graphics/38624'
p233
I463
sS'comp.graphics/39051'
p234
I889
sS'comp.graphics/39050'
p235
I888
sS'comp.graphics/39000'
p236
I838
sS'comp.graphics/39001'
p237
I839
sS'comp.graphics/39002'
p238
I840
sS'comp.graphics/39003'
p239
I841
sS'comp.graphics/39004'
p240
I842
sS'comp.graphics/39005'
p241
I843
sS'comp.graphics/38539'
p242
I378
sS'comp.graphics/38538'
p243
I377
sS'comp.graphics/39008'
p244
I846
sS'comp.graphics/39009'
p245
I847
sS'comp.graphics/38535'
p246
I374
sS'comp.graphics/38534'
p247
I373
sS'comp.graphics/38533'
p248
I372
sS'comp.graphics/38532'
p249
I371
sS'comp.graphics/38531'
p250
I370
sS'comp.graphics/38530'
p251
I369
sS'rec.motorcycles/105043'
p252
I1834
sS'rec.motorcycles/105047'
p253
I1838
sS'rec.motorcycles/105046'
p254
I1837
sS'rec.motorcycles/105045'
p255
I1836
sS'rec.motorcycles/105044'
p256
I1835
sS'rec.motorcycles/105049'
p257
I1840
sS'rec.motorcycles/105048'
p258
I1839
sS'comp.graphics/38443'
p259
I282
sS'comp.graphics/38442'
p260
I281
sS'comp.graphics/38441'
p261
I280
sS'comp.graphics/38440'
p262
I279
sS'comp.graphics/38447'
p263
I286
sS'comp.graphics/38446'
p264
I285
sS'comp.graphics/38445'
p265
I284
sS'comp.graphics/38444'
p266
I283
sS'rec.motorcycles/105137'
p267
I1901
sS'rec.motorcycles/105136'
p268
I1900
sS'comp.graphics/38449'
p269
I288
sS'comp.graphics/38448'
p270
I287
sS'rec.motorcycles/105133'
p271
I1897
sS'rec.motorcycles/105132'
p272
I1896
sS'rec.motorcycles/105131'
p273
I1895
sS'rec.motorcycles/105130'
p274
I1894
sS'rec.motorcycles/105096'
p275
I1860
sS'rec.motorcycles/104529'
p276
I1381
sS'rec.motorcycles/104528'
p277
I1380
sS'rec.motorcycles/104527'
p278
I1379
sS'rec.motorcycles/104526'
p279
I1378
sS'rec.motorcycles/104525'
p280
I1377
sS'rec.motorcycles/104524'
p281
I1376
sS'rec.motorcycles/104523'
p282
I1375
sS'rec.motorcycles/104522'
p283
I1374
sS'rec.motorcycles/104521'
p284
I1373
sS'rec.motorcycles/104520'
p285
I1372
sS'rec.motorcycles/104422'
p286
I1274
sS'rec.motorcycles/104423'
p287
I1275
sS'rec.motorcycles/104420'
p288
I1272
sS'rec.motorcycles/104421'
p289
I1273
sS'rec.motorcycles/104426'
p290
I1278
sS'rec.motorcycles/104427'
p291
I1279
sS'rec.motorcycles/104424'
p292
I1276
sS'comp.graphics/38848'
p293
I687
sS'comp.graphics/38847'
p294
I686
sS'comp.graphics/38846'
p295
I685
sS'comp.graphics/38845'
p296
I684
sS'comp.graphics/38844'
p297
I683
sS'comp.graphics/38843'
p298
I682
sS'comp.graphics/38842'
p299
I681
sS'comp.graphics/38841'
p300
I680
sS'comp.graphics/38840'
p301
I679
sS'rec.motorcycles/103197'
p302
I1083
sS'rec.motorcycles/103196'
p303
I1082
sS'rec.motorcycles/103195'
p304
I1081
sS'rec.motorcycles/103194'
p305
I1080
sS'rec.motorcycles/103193'
p306
I1079
sS'rec.motorcycles/103192'
p307
I1078
sS'rec.motorcycles/103191'
p308
I1077
sS'rec.motorcycles/103190'
p309
I1076
sS'rec.motorcycles/103199'
p310
I1085
sS'rec.motorcycles/103198'
p311
I1084
sS'rec.motorcycles/104738'
p312
I1589
sS'rec.motorcycles/104739'
p313
I1590
sS'rec.motorcycles/104429'
p314
I1281
sS'rec.motorcycles/104737'
p315
I1588
sS'rec.motorcycles/104734'
p316
I1585
sS'rec.motorcycles/104735'
p317
I1586
sS'rec.motorcycles/104732'
p318
I1583
sS'rec.motorcycles/104733'
p319
I1584
sS'rec.motorcycles/104730'
p320
I1581
sS'rec.motorcycles/104731'
p321
I1582
sS'rec.motorcycles/104888'
p322
I1739
sS'rec.motorcycles/104889'
p323
I1740
sS'rec.motorcycles/104880'
p324
I1731
sS'rec.motorcycles/104881'
p325
I1732
sS'rec.motorcycles/104882'
p326
I1733
sS'rec.motorcycles/104883'
p327
I1734
sS'rec.motorcycles/104884'
p328
I1735
sS'rec.motorcycles/104885'
p329
I1736
sS'rec.motorcycles/104886'
p330
I1737
sS'rec.motorcycles/104618'
p331
I1469
sS'rec.motorcycles/104956'
p332
I1786
sS'rec.motorcycles/104957'
p333
I1787
sS'rec.motorcycles/104954'
p334
I1784
sS'rec.motorcycles/104955'
p335
I1785
sS'rec.motorcycles/104952'
p336
I1782
sS'rec.motorcycles/104953'
p337
I1783
sS'rec.motorcycles/104950'
p338
I1780
sS'rec.motorcycles/104951'
p339
I1781
sS'rec.motorcycles/105008'
p340
I1826
sS'rec.motorcycles/104958'
p341
I1788
sS'rec.motorcycles/104959'
p342
I1789
sS'rec.motorcycles/104612'
p343
I1463
sS'rec.motorcycles/104377'
p344
I1229
sS'rec.motorcycles/105160'
p345
I1924
sS'rec.motorcycles/105161'
p346
I1925
sS'comp.graphics/38704'
p347
I543
sS'comp.graphics/38705'
p348
I544
sS'comp.graphics/38706'
p349
I545
sS'comp.graphics/38707'
p350
I546
sS'comp.graphics/38700'
p351
I539
sS'comp.graphics/38701'
p352
I540
sS'comp.graphics/38702'
p353
I541
sS'comp.graphics/38703'
p354
I542
sS'comp.graphics/38708'
p355
I547
sS'comp.graphics/38709'
p356
I548
sS'comp.graphics/39499'
p357
I931
sS'comp.graphics/39498'
p358
I930
sS'comp.graphics/39497'
p359
I929
sS'comp.graphics/39496'
p360
I928
sS'comp.graphics/39495'
p361
I927
sS'comp.graphics/39490'
p362
I926
sS'comp.graphics/38638'
p363
I477
sS'comp.graphics/38639'
p364
I478
sS'comp.graphics/38630'
p365
I469
sS'comp.graphics/38631'
p366
I470
sS'comp.graphics/38632'
p367
I471
sS'comp.graphics/38633'
p368
I472
sS'comp.graphics/38634'
p369
I473
sS'comp.graphics/38635'
p370
I474
sS'comp.graphics/38636'
p371
I475
sS'comp.graphics/38637'
p372
I476
sS'comp.graphics/39035'
p373
I873
sS'comp.graphics/39034'
p374
I872
sS'comp.graphics/39037'
p375
I875
sS'comp.graphics/39036'
p376
I874
sS'comp.graphics/39031'
p377
I869
sS'comp.graphics/39030'
p378
I868
sS'comp.graphics/39033'
p379
I871
sS'comp.graphics/39032'
p380
I870
sS'comp.graphics/38524'
p381
I363
sS'comp.graphics/38525'
p382
I364
sS'comp.graphics/38526'
p383
I365
sS'comp.graphics/38527'
p384
I366
sS'comp.graphics/38520'
p385
I359
sS'comp.graphics/39038'
p386
I876
sS'comp.graphics/38522'
p387
I361
sS'comp.graphics/38523'
p388
I362
sS'comp.graphics/38450'
p389
I289
sS'comp.graphics/38451'
p390
I290
sS'comp.graphics/38452'
p391
I291
sS'comp.graphics/38453'
p392
I292
sS'comp.graphics/38454'
p393
I293
sS'comp.graphics/38455'
p394
I294
sS'comp.graphics/38456'
p395
I295
sS'comp.graphics/38457'
p396
I296
sS'comp.graphics/38458'
p397
I297
sS'comp.graphics/38459'
p398
I298
sS'rec.motorcycles/105140'
p399
I1904
sS'rec.motorcycles/105141'
p400
I1905
sS'rec.motorcycles/105146'
p401
I1910
sS'rec.motorcycles/105147'
p402
I1911
sS'rec.motorcycles/105144'
p403
I1908
sS'rec.motorcycles/105145'
p404
I1909
sS'rec.motorcycles/104558'
p405
I1410
sS'rec.motorcycles/104559'
p406
I1411
sS'rec.motorcycles/104552'
p407
I1404
sS'rec.motorcycles/104553'
p408
I1405
sS'rec.motorcycles/104550'
p409
I1402
sS'rec.motorcycles/104551'
p410
I1403
sS'rec.motorcycles/104556'
p411
I1408
sS'rec.motorcycles/104557'
p412
I1409
sS'rec.motorcycles/104554'
p413
I1406
sS'rec.motorcycles/104555'
p414
I1407
sS'rec.motorcycles/104431'
p415
I1283
sS'rec.motorcycles/104430'
p416
I1282
sS'rec.motorcycles/104433'
p417
I1285
sS'rec.motorcycles/104432'
p418
I1284
sS'rec.motorcycles/104435'
p419
I1287
sS'rec.motorcycles/104434'
p420
I1286
sS'rec.motorcycles/104437'
p421
I1289
sS'rec.motorcycles/104436'
p422
I1288
sS'rec.motorcycles/104439'
p423
I1291
sS'rec.motorcycles/104438'
p424
I1290
sS'comp.graphics/38856'
p425
I695
sS'comp.graphics/38857'
p426
I696
sS'comp.graphics/38850'
p427
I689
sS'comp.graphics/38851'
p428
I690
sS'comp.graphics/38852'
p429
I691
sS'comp.graphics/38853'
p430
I692
sS'rec.motorcycles/104729'
p431
I1580
sS'rec.motorcycles/104728'
p432
I1579
sS'rec.motorcycles/104725'
p433
I1576
sS'rec.motorcycles/104724'
p434
I1575
sS'rec.motorcycles/104727'
p435
I1578
sS'rec.motorcycles/104726'
p436
I1577
sS'rec.motorcycles/104721'
p437
I1572
sS'rec.motorcycles/104720'
p438
I1571
sS'rec.motorcycles/104723'
p439
I1574
sS'rec.motorcycles/104722'
p440
I1573
sS'rec.motorcycles/104897'
p441
I1748
sS'rec.motorcycles/104896'
p442
I1747
sS'rec.motorcycles/104895'
p443
I1746
sS'rec.motorcycles/104894'
p444
I1745
sS'rec.motorcycles/104893'
p445
I1744
sS'rec.motorcycles/104892'
p446
I1743
sS'rec.motorcycles/104891'
p447
I1742
sS'rec.motorcycles/104890'
p448
I1741
sS'rec.motorcycles/104899'
p449
I1750
sS'rec.motorcycles/104898'
p450
I1749
sS'comp.graphics/38265'
p451
I105
sS'rec.motorcycles/103153'
p452
I1039
sS'rec.motorcycles/103152'
p453
I1038
sS'rec.motorcycles/103151'
p454
I1037
sS'rec.motorcycles/103150'
p455
I1036
sS'comp.graphics/38807'
p456
I646
sS'rec.motorcycles/103156'
p457
I1042
sS'rec.motorcycles/104945'
p458
I1775
sS'rec.motorcycles/104944'
p459
I1774
sS'rec.motorcycles/104947'
p460
I1777
sS'rec.motorcycles/104946'
p461
I1776
sS'rec.motorcycles/103155'
p462
I1041
sS'rec.motorcycles/104943'
p463
I1773
sS'rec.motorcycles/104942'
p464
I1772
sS'comp.graphics/38804'
p465
I643
sS'rec.motorcycles/104949'
p466
I1779
sS'rec.motorcycles/104948'
p467
I1778
sS'rec.motorcycles/105209'
p468
I1934
sS'comp.graphics/38809'
p469
I648
sS'rec.motorcycles/105208'
p470
I1933
sS'rec.motorcycles/103158'
p471
I1044
sS'rec.motorcycles/105205'
p472
I1930
sS'rec.motorcycles/105204'
p473
I1929
sS'rec.motorcycles/105207'
p474
I1932
sS'rec.motorcycles/105206'
p475
I1931
sS'rec.motorcycles/105203'
p476
I1928
sS'rec.motorcycles/105202'
p477
I1927
sS'comp.graphics/38739'
p478
I578
sS'comp.graphics/38738'
p479
I577
sS'comp.graphics/38731'
p480
I570
sS'comp.graphics/38730'
p481
I569
sS'comp.graphics/38733'
p482
I572
sS'comp.graphics/38732'
p483
I571
sS'comp.graphics/38735'
p484
I574
sS'comp.graphics/38734'
p485
I573
sS'comp.graphics/38737'
p486
I576
sS'comp.graphics/38736'
p487
I575
sS'comp.graphics/39488'
p488
I924
sS'comp.graphics/39489'
p489
I925
sS'comp.graphics/39487'
p490
I923
sS'comp.graphics/39736'
p491
I995
sS'comp.graphics/39737'
p492
I996
sS'comp.graphics/38609'
p493
I448
sS'comp.graphics/38608'
p494
I447
sS'comp.graphics/38605'
p495
I444
sS'comp.graphics/38604'
p496
I443
sS'comp.graphics/38607'
p497
I446
sS'comp.graphics/38606'
p498
I445
sS'comp.graphics/38601'
p499
I440
sS'comp.graphics/38600'
p500
I439
sS'comp.graphics/38603'
p501
I442
sS'comp.graphics/38602'
p502
I441
sS'comp.graphics/38281'
p503
I121
sS'comp.graphics/38280'
p504
I120
sS'comp.graphics/39028'
p505
I866
sS'comp.graphics/39029'
p506
I867
sS'comp.graphics/38285'
p507
I125
sS'comp.graphics/38284'
p508
I124
sS'comp.graphics/38287'
p509
I127
sS'comp.graphics/38286'
p510
I126
sS'comp.graphics/38289'
p511
I129
sS'comp.graphics/39023'
p512
I861
sS'comp.graphics/39020'
p513
I858
sS'comp.graphics/39021'
p514
I859
sS'comp.graphics/39026'
p515
I864
sS'comp.graphics/39027'
p516
I865
sS'comp.graphics/39024'
p517
I862
sS'comp.graphics/39025'
p518
I863
sS'comp.graphics/38511'
p519
I350
sS'comp.graphics/38510'
p520
I349
sS'comp.graphics/38513'
p521
I352
sS'comp.graphics/38512'
p522
I351
sS'comp.graphics/38515'
p523
I354
sS'comp.graphics/38514'
p524
I353
sS'comp.graphics/38517'
p525
I356
sS'comp.graphics/38516'
p526
I355
sS'comp.graphics/38519'
p527
I358
sS'comp.graphics/38518'
p528
I357
sS'rec.motorcycles/104091'
p529
I1131
sS'comp.graphics/38999'
p530
I837
sS'comp.graphics/38998'
p531
I836
sS'comp.graphics/38995'
p532
I833
sS'comp.graphics/38994'
p533
I832
sS'comp.graphics/38997'
p534
I835
sS'comp.graphics/38996'
p535
I834
sS'comp.graphics/38991'
p536
I829
sS'comp.graphics/38990'
p537
I828
sS'comp.graphics/38993'
p538
I831
sS'comp.graphics/38529'
p539
I368
sS'comp.graphics/38465'
p540
I304
sS'comp.graphics/38464'
p541
I303
sS'comp.graphics/38467'
p542
I306
sS'comp.graphics/38466'
p543
I305
sS'comp.graphics/38461'
p544
I300
sS'comp.graphics/38460'
p545
I299
sS'comp.graphics/38463'
p546
I302
sS'comp.graphics/38462'
p547
I301
sS'rec.motorcycles/105151'
p548
I1915
sS'rec.motorcycles/105150'
p549
I1914
sS'rec.motorcycles/105153'
p550
I1917
sS'rec.motorcycles/105152'
p551
I1916
sS'comp.graphics/38469'
p552
I308
sS'comp.graphics/38468'
p553
I307
sS'rec.motorcycles/105157'
p554
I1921
sS'rec.motorcycles/105156'
p555
I1920
sS'rec.motorcycles/104549'
p556
I1401
sS'rec.motorcycles/104548'
p557
I1400
sS'rec.motorcycles/104541'
p558
I1393
sS'rec.motorcycles/104540'
p559
I1392
sS'rec.motorcycles/104543'
p560
I1395
sS'rec.motorcycles/104542'
p561
I1394
sS'rec.motorcycles/104545'
p562
I1397
sS'rec.motorcycles/104544'
p563
I1396
sS'rec.motorcycles/104547'
p564
I1399
sS'rec.motorcycles/104546'
p565
I1398
sS'rec.motorcycles/104408'
p566
I1260
sS'rec.motorcycles/104409'
p567
I1261
sS'rec.motorcycles/104404'
p568
I1256
sS'rec.motorcycles/104405'
p569
I1257
sS'rec.motorcycles/104406'
p570
I1258
sS'rec.motorcycles/104407'
p571
I1259
sS'rec.motorcycles/104400'
p572
I1252
sS'rec.motorcycles/104401'
p573
I1253
sS'rec.motorcycles/104402'
p574
I1254
sS'comp.graphics/38521'
p575
I360
sS'comp.graphics/38861'
p576
I700
sS'comp.graphics/38860'
p577
I699
sS'comp.graphics/38863'
p578
I702
sS'comp.graphics/38862'
p579
I701
sS'comp.graphics/38865'
p580
I704
sS'comp.graphics/38864'
p581
I703
sS'comp.graphics/38867'
p582
I706
sS'comp.graphics/38866'
p583
I705
sS'comp.graphics/38869'
p584
I708
sS'comp.graphics/38868'
p585
I707
sS'comp.graphics/37261'
p586
I1
sS'rec.motorcycles/104718'
p587
I1569
sS'rec.motorcycles/104719'
p588
I1570
sS'rec.motorcycles/104710'
p589
I1561
sS'rec.motorcycles/104711'
p590
I1562
sS'rec.motorcycles/104712'
p591
I1563
sS'rec.motorcycles/104713'
p592
I1564
sS'rec.motorcycles/104714'
p593
I1565
sS'rec.motorcycles/104715'
p594
I1566
sS'rec.motorcycles/104716'
p595
I1567
sS'rec.motorcycles/104717'
p596
I1568
sS'rec.motorcycles/104970'
p597
I1800
sS'rec.motorcycles/104971'
p598
I1801
sS'rec.motorcycles/104972'
p599
I1802
sS'rec.motorcycles/104973'
p600
I1803
sS'rec.motorcycles/104974'
p601
I1804
sS'rec.motorcycles/104975'
p602
I1805
sS'rec.motorcycles/104976'
p603
I1806
sS'rec.motorcycles/104977'
p604
I1807
sS'rec.motorcycles/104978'
p605
I1808
sS'rec.motorcycles/104979'
p606
I1809
sS'rec.motorcycles/105252'
p607
I1977
sS'comp.graphics/38728'
p608
I567
sS'comp.graphics/38729'
p609
I568
sS'comp.graphics/38726'
p610
I565
sS'comp.graphics/38727'
p611
I566
sS'comp.graphics/38724'
p612
I563
sS'comp.graphics/38725'
p613
I564
sS'comp.graphics/38722'
p614
I561
sS'comp.graphics/38723'
p615
I562
sS'comp.graphics/38720'
p616
I559
sS'comp.graphics/38721'
p617
I560
sS'rec.motorcycles/105149'
p618
I1913
sS'rec.motorcycles/101725'
p619
I1001
sS'rec.motorcycles/105023'
p620
I1832
sS'rec.motorcycles/105022'
p621
I1831
sS'rec.motorcycles/105142'
p622
I1906
sS'rec.motorcycles/105143'
p623
I1907
sS'comp.graphics/38612'
p624
I451
sS'comp.graphics/38613'
p625
I452
sS'comp.graphics/38610'
p626
I449
sS'comp.graphics/38611'
p627
I450
sS'comp.graphics/38616'
p628
I455
sS'comp.graphics/38617'
p629
I456
sS'rec.motorcycles/104158'
p630
I1132
sS'rec.motorcycles/104159'
p631
I1133
sS'comp.graphics/38618'
p632
I457
sS'comp.graphics/38619'
p633
I458
sS'rec.motorcycles/105380'
p634
I1989
sS'rec.motorcycles/105381'
p635
I1990
sS'rec.motorcycles/104398'
p636
I1250
sS'rec.motorcycles/104399'
p637
I1251
sS'rec.motorcycles/104394'
p638
I1246
sS'rec.motorcycles/104395'
p639
I1247
sS'rec.motorcycles/104396'
p640
I1248
sS'rec.motorcycles/104397'
p641
I1249
sS'rec.motorcycles/104390'
p642
I1242
sS'rec.motorcycles/104391'
p643
I1243
sS'rec.motorcycles/104392'
p644
I1244
sS'rec.motorcycles/104393'
p645
I1245
sS'rec.motorcycles/72052'
p646
I2000
sS'comp.graphics/38296'
p647
I136
sS'comp.graphics/38297'
p648
I137
sS'comp.graphics/38294'
p649
I134
sS'comp.graphics/38295'
p650
I135
sS'comp.graphics/38292'
p651
I132
sS'comp.graphics/38293'
p652
I133
sS'comp.graphics/38290'
p653
I130
sS'comp.graphics/38291'
p654
I131
sS'comp.graphics/39057'
p655
I895
sS'comp.graphics/39056'
p656
I894
sS'comp.graphics/39055'
p657
I893
sS'comp.graphics/39054'
p658
I892
sS'comp.graphics/39053'
p659
I891
sS'comp.graphics/39052'
p660
I890
sS'comp.graphics/38298'
p661
I138
sS'comp.graphics/38299'
p662
I139
sS'comp.graphics/38506'
p663
I345
sS'comp.graphics/38507'
p664
I346
sS'comp.graphics/38504'
p665
I343
sS'comp.graphics/38505'
p666
I344
sS'comp.graphics/38502'
p667
I341
sS'comp.graphics/38503'
p668
I342
sS'comp.graphics/38500'
p669
I339
sS'comp.graphics/38501'
p670
I340
sS'rec.motorcycles/105094'
p671
I1858
sS'rec.motorcycles/105095'
p672
I1859
sS'comp.graphics/38508'
p673
I347
sS'comp.graphics/38509'
p674
I348
sS'rec.motorcycles/104574'
p675
I1425
sS'rec.motorcycles/104575'
p676
I1426
sS'rec.motorcycles/104576'
p677
I1427
sS'rec.motorcycles/104577'
p678
I1428
sS'rec.motorcycles/104571'
p679
I1422
sS'rec.motorcycles/104572'
p680
I1423
sS'rec.motorcycles/104573'
p681
I1424
sS'rec.motorcycles/104578'
p682
I1429
sS'rec.motorcycles/104579'
p683
I1430
sS'rec.motorcycles/104887'
p684
I1738
sS'comp.graphics/38858'
p685
I697
sS'comp.graphics/38859'
p686
I698
sS'comp.graphics/38478'
p687
I317
sS'comp.graphics/38479'
p688
I318
sS'comp.graphics/38472'
p689
I311
sS'comp.graphics/38473'
p690
I312
sS'comp.graphics/38470'
p691
I309
sS'comp.graphics/38471'
p692
I310
sS'comp.graphics/38476'
p693
I315
sS'comp.graphics/38477'
p694
I316
sS'comp.graphics/38474'
p695
I313
sS'comp.graphics/38475'
p696
I314
sS'rec.motorcycles/104376'
p697
I1228
sS'comp.graphics/38854'
p698
I693
sS'rec.motorcycles/104374'
p699
I1226
sS'rec.motorcycles/104375'
p700
I1227
sS'rec.motorcycles/104372'
p701
I1224
sS'rec.motorcycles/104373'
p702
I1225
sS'rec.motorcycles/104370'
p703
I1222
sS'rec.motorcycles/104371'
p704
I1223
sS'rec.motorcycles/104378'
p705
I1230
sS'rec.motorcycles/104379'
p706
I1231
sS'rec.motorcycles/104419'
p707
I1271
sS'rec.motorcycles/104418'
p708
I1270
sS'rec.motorcycles/104413'
p709
I1265
sS'rec.motorcycles/104412'
p710
I1264
sS'rec.motorcycles/104411'
p711
I1263
sS'rec.motorcycles/104410'
p712
I1262
sS'rec.motorcycles/104417'
p713
I1269
sS'rec.motorcycles/104416'
p714
I1268
sS'rec.motorcycles/104415'
p715
I1267
sS'rec.motorcycles/104414'
p716
I1266
sS'comp.graphics/38876'
p717
I715
sS'comp.graphics/38877'
p718
I716
sS'comp.graphics/38874'
p719
I713
sS'comp.graphics/38875'
p720
I714
sS'comp.graphics/38872'
p721
I711
sS'comp.graphics/38873'
p722
I712
sS'comp.graphics/38870'
p723
I709
sS'comp.graphics/38871'
p724
I710
sS'comp.graphics/38878'
p725
I717
sS'comp.graphics/38879'
p726
I718
sS'comp.graphics/38982'
p727
I820
sS'comp.graphics/38983'
p728
I821
sS'comp.graphics/38980'
p729
I818
sS'comp.graphics/38981'
p730
I819
sS'comp.graphics/38986'
p731
I824
sS'comp.graphics/38987'
p732
I825
sS'comp.graphics/38984'
p733
I822
sS'comp.graphics/38985'
p734
I823
sS'comp.graphics/38988'
p735
I826
sS'comp.graphics/38989'
p736
I827
sS'rec.motorcycles/104707'
p737
I1558
sS'rec.motorcycles/104706'
p738
I1557
sS'rec.motorcycles/104705'
p739
I1556
sS'rec.motorcycles/104704'
p740
I1555
sS'rec.motorcycles/104703'
p741
I1554
sS'rec.motorcycles/104702'
p742
I1553
sS'rec.motorcycles/104701'
p743
I1552
sS'rec.motorcycles/104700'
p744
I1551
sS'rec.motorcycles/104709'
p745
I1560
sS'rec.motorcycles/104708'
p746
I1559
sS'rec.motorcycles/104848'
p747
I1699
sS'rec.motorcycles/103126'
p748
I1012
sS'rec.motorcycles/103127'
p749
I1013
sS'rec.motorcycles/103124'
p750
I1010
sS'rec.motorcycles/103125'
p751
I1011
sS'rec.motorcycles/103122'
p752
I1008
sS'rec.motorcycles/103123'
p753
I1009
sS'rec.motorcycles/103120'
p754
I1006
sS'rec.motorcycles/103121'
p755
I1007
sS'rec.motorcycles/103128'
p756
I1014
sS'rec.motorcycles/103129'
p757
I1015
sS'rec.motorcycles/104969'
p758
I1799
sS'rec.motorcycles/104968'
p759
I1798
sS'rec.motorcycles/104967'
p760
I1797
sS'rec.motorcycles/104966'
p761
I1796
sS'rec.motorcycles/104965'
p762
I1795
sS'rec.motorcycles/104964'
p763
I1794
sS'rec.motorcycles/104963'
p764
I1793
sS'rec.motorcycles/104962'
p765
I1792
sS'rec.motorcycles/104961'
p766
I1791
sS'rec.motorcycles/104960'
p767
I1790
sS'comp.graphics/39664'
p768
I981
sS'rec.motorcycles/105227'
p769
I1952
sS'comp.graphics/39665'
p770
I982
sS'comp.graphics/38799'
p771
I638
sS'comp.graphics/39667'
p772
I984
sS'comp.graphics/38245'
p773
I85
sS'comp.graphics/39669'
p774
I986
sS'rec.motorcycles/105226'
p775
I1951
sS'comp.graphics/38795'
p776
I634
sS'comp.graphics/38794'
p777
I633
sS'comp.graphics/38793'
p778
I632
sS'comp.graphics/38792'
p779
I631
sS'rec.motorcycles/104669'
p780
I1520
sS'comp.graphics/38791'
p781
I630
sS'comp.graphics/38790'
p782
I629
sS'comp.graphics/38667'
p783
I506
sS'comp.graphics/38666'
p784
I505
sS'comp.graphics/38665'
p785
I504
sS'comp.graphics/38664'
p786
I503
sS'comp.graphics/38663'
p787
I502
sS'comp.graphics/38662'
p788
I501
sS'comp.graphics/38661'
p789
I500
sS'comp.graphics/38660'
p790
I499
sS'comp.graphics/38669'
p791
I508
sS'comp.graphics/38668'
p792
I507
sS'rec.motorcycles/104389'
p793
I1241
sS'rec.motorcycles/104388'
p794
I1240
sS'rec.motorcycles/104383'
p795
I1235
sS'rec.motorcycles/104382'
p796
I1234
sS'rec.motorcycles/104381'
p797
I1233
sS'rec.motorcycles/104380'
p798
I1232
sS'rec.motorcycles/104387'
p799
I1239
sS'rec.motorcycles/104386'
p800
I1238
sS'rec.motorcycles/104385'
p801
I1237
sS'rec.motorcycles/104384'
p802
I1236
sS'rec.motorcycles/105559'
p803
I1993
sS'rec.motorcycles/105558'
p804
I1992
sS'comp.graphics/38269'
p805
I109
sS'comp.graphics/38268'
p806
I108
sS'comp.graphics/39048'
p807
I886
sS'comp.graphics/39049'
p808
I887
sS'comp.graphics/39044'
p809
I882
sS'comp.graphics/39045'
p810
I883
sS'comp.graphics/39046'
p811
I884
sS'comp.graphics/39047'
p812
I885
sS'comp.graphics/39040'
p813
I878
sS'comp.graphics/39041'
p814
I879
sS'comp.graphics/39042'
p815
I880
sS'comp.graphics/39043'
p816
I881
sS'rec.motorcycles/104563'
p817
I1415
sS'rec.motorcycles/104562'
p818
I1414
sS'rec.motorcycles/104561'
p819
I1413
sS'rec.motorcycles/104560'
p820
I1412
sS'rec.motorcycles/104567'
p821
I1419
sS'rec.motorcycles/104566'
p822
I1418
sS'rec.motorcycles/104565'
p823
I1417
sS'rec.motorcycles/104564'
p824
I1416
sS'rec.motorcycles/104569'
p825
I1421
sS'rec.motorcycles/104568'
p826
I1420
sS'comp.graphics/38409'
p827
I249
sS'comp.graphics/38408'
p828
I248
sS'comp.graphics/38407'
p829
I247
sS'comp.graphics/38406'
p830
I246
sS'comp.graphics/38405'
p831
I245
sS'comp.graphics/38404'
p832
I244
sS'comp.graphics/38403'
p833
I243
sS'comp.graphics/38402'
p834
I242
sS'comp.graphics/38401'
p835
I241
sS'comp.graphics/38400'
p836
I240
sS'rec.motorcycles/104365'
p837
I1217
sS'rec.motorcycles/104364'
p838
I1216
sS'rec.motorcycles/104367'
p839
I1219
sS'rec.motorcycles/104366'
p840
I1218
sS'rec.motorcycles/104361'
p841
I1213
sS'rec.motorcycles/104360'
p842
I1212
sS'rec.motorcycles/104363'
p843
I1215
sS'rec.motorcycles/104362'
p844
I1214
sS'rec.motorcycles/104369'
p845
I1221
sS'rec.motorcycles/104368'
p846
I1220
sS'comp.graphics/39619'
p847
I936
sS'comp.graphics/38889'
p848
I728
sS'comp.graphics/38888'
p849
I727
sS'comp.graphics/38883'
p850
I722
sS'comp.graphics/38882'
p851
I721
sS'comp.graphics/38881'
p852
I720
sS'comp.graphics/38880'
p853
I719
sS'comp.graphics/38887'
p854
I726
sS'comp.graphics/38886'
p855
I725
sS'comp.graphics/38885'
p856
I724
sS'comp.graphics/38884'
p857
I723
sS'comp.graphics/38313'
p858
I153
sS'comp.graphics/38312'
p859
I152
sS'comp.graphics/38311'
p860
I151
sS'comp.graphics/38310'
p861
I150
sS'comp.graphics/38317'
p862
I157
sS'comp.graphics/38316'
p863
I156
sS'comp.graphics/38315'
p864
I155
sS'comp.graphics/38314'
p865
I154
sS'comp.graphics/38319'
p866
I159
sS'comp.graphics/38318'
p867
I158
sS'rec.motorcycles/104772'
p868
I1623
sS'rec.motorcycles/104773'
p869
I1624
sS'rec.motorcycles/104770'
p870
I1621
sS'rec.motorcycles/104771'
p871
I1622
sS'rec.motorcycles/104776'
p872
I1627
sS'rec.motorcycles/104777'
p873
I1628
sS'rec.motorcycles/104774'
p874
I1625
sS'rec.motorcycles/104775'
p875
I1626
sS'rec.motorcycles/104778'
p876
I1629
sS'rec.motorcycles/104779'
p877
I1630
sS'comp.graphics/39011'
p878
I849
sS'comp.graphics/39010'
p879
I848
sS'rec.motorcycles/104488'
p880
I1340
sS'rec.motorcycles/103174'
p881
I1060
sS'comp.graphics/39019'
p882
I857
sS'comp.graphics/39018'
p883
I856
sS'rec.motorcycles/105162'
p884
I1926
sS'rec.motorcycles/105054'
p885
I1845
sS'rec.motorcycles/103135'
p886
I1021
sS'rec.motorcycles/103134'
p887
I1020
sS'rec.motorcycles/103137'
p888
I1023
sS'rec.motorcycles/103136'
p889
I1022
sS'rec.motorcycles/103131'
p890
I1017
sS'rec.motorcycles/103130'
p891
I1016
sS'rec.motorcycles/103133'
p892
I1019
sS'rec.motorcycles/103132'
p893
I1018
sS'rec.motorcycles/104606'
p894
I1457
sS'rec.motorcycles/104607'
p895
I1458
sS'rec.motorcycles/104604'
p896
I1455
sS'rec.motorcycles/104605'
p897
I1456
sS'rec.motorcycles/103139'
p898
I1025
sS'rec.motorcycles/103138'
p899
I1024
sS'rec.motorcycles/104600'
p900
I1451
sS'rec.motorcycles/104601'
p901
I1452
sS'comp.graphics/38427'
p902
I266
sS'rec.motorcycles/104348'
p903
I1200
sS'comp.graphics/38429'
p904
I268
sS'rec.motorcycles/104346'
p905
I1198
sS'rec.motorcycles/104918'
p906
I1760
sS'rec.motorcycles/104919'
p907
I1761
sS'rec.motorcycles/104912'
p908
I1754
sS'rec.motorcycles/104913'
p909
I1755
sS'rec.motorcycles/104910'
p910
I1752
sS'rec.motorcycles/104911'
p911
I1753
sS'rec.motorcycles/104916'
p912
I1758
sS'rec.motorcycles/104917'
p913
I1759
sS'rec.motorcycles/104914'
p914
I1756
sS'rec.motorcycles/104915'
p915
I1757
sS'rec.motorcycles/104826'
p916
I1677
sS'rec.motorcycles/104827'
p917
I1678
sS'rec.motorcycles/104824'
p918
I1675
sS'rec.motorcycles/104825'
p919
I1676
sS'rec.motorcycles/104822'
p920
I1673
sS'rec.motorcycles/104823'
p921
I1674
sS'rec.motorcycles/104820'
p922
I1671
sS'rec.motorcycles/104821'
p923
I1672
sS'rec.motorcycles/104828'
p924
I1679
sS'rec.motorcycles/104829'
p925
I1680
sS'comp.graphics/38674'
p926
I513
sS'comp.graphics/38675'
p927
I514
sS'comp.graphics/38676'
p928
I515
sS'comp.graphics/38677'
p929
I516
sS'comp.graphics/38670'
p930
I509
sS'comp.graphics/38671'
p931
I510
sS'comp.graphics/38672'
p932
I511
sS'comp.graphics/38673'
p933
I512
sS'comp.graphics/38678'
p934
I517
sS'comp.graphics/38679'
p935
I518
sS'rec.motorcycles/105254'
p936
I1979
sS'rec.motorcycles/105255'
p937
I1980
sS'rec.motorcycles/102616'
p938
I1002
sS'rec.motorcycles/105560'
p939
I1994
sS'rec.motorcycles/105561'
p940
I1995
sS'rec.motorcycles/105563'
p941
I1996
sS'rec.motorcycles/105564'
p942
I1997
sS'rec.motorcycles/105258'
p943
I1983
sS'rec.motorcycles/105259'
p944
I1984
sS'rec.motorcycles/105121'
p945
I1885
sS'rec.motorcycles/104282'
p946
I1134
sS'rec.motorcycles/104283'
p947
I1135
sS'rec.motorcycles/104286'
p948
I1138
sS'rec.motorcycles/104287'
p949
I1139
sS'rec.motorcycles/104284'
p950
I1136
sS'rec.motorcycles/104285'
p951
I1137
sS'rec.motorcycles/104288'
p952
I1140
sS'rec.motorcycles/104289'
p953
I1141
sS'comp.graphics/39673'
p954
I990
sS'comp.graphics/39672'
p955
I989
sS'comp.graphics/39671'
p956
I988
sS'comp.graphics/39670'
p957
I987
sS'comp.graphics/39677'
p958
I994
sS'comp.graphics/39676'
p959
I993
sS'comp.graphics/39675'
p960
I992
sS'comp.graphics/39674'
p961
I991
sS'comp.graphics/38270'
p962
I110
sS'comp.graphics/38271'
p963
I111
sS'comp.graphics/38272'
p964
I112
sS'comp.graphics/38273'
p965
I113
sS'comp.graphics/38274'
p966
I114
sS'comp.graphics/38275'
p967
I115
sS'comp.graphics/38276'
p968
I116
sS'comp.graphics/38277'
p969
I117
sS'comp.graphics/39071'
p970
I909
sS'comp.graphics/39070'
p971
I908
sS'comp.graphics/39073'
p972
I911
sS'comp.graphics/39072'
p973
I910
sS'comp.graphics/39075'
p974
I913
sS'comp.graphics/39074'
p975
I912
sS'comp.graphics/39077'
p976
I915
sS'comp.graphics/39076'
p977
I914
sS'comp.graphics/39079'
p978
I917
sS'comp.graphics/39078'
p979
I916
sS'rec.motorcycles/104598'
p980
I1449
sS'rec.motorcycles/104599'
p981
I1450
sS'rec.motorcycles/104596'
p982
I1447
sS'rec.motorcycles/104597'
p983
I1448
sS'rec.motorcycles/104594'
p984
I1445
sS'rec.motorcycles/104595'
p985
I1446
sS'rec.motorcycles/104592'
p986
I1443
sS'rec.motorcycles/104593'
p987
I1444
sS'rec.motorcycles/104590'
p988
I1441
sS'rec.motorcycles/104591'
p989
I1442
sS'comp.graphics/38099'
p990
I53
sS'comp.graphics/38418'
p991
I258
sS'comp.graphics/38414'
p992
I254
sS'comp.graphics/38415'
p993
I255
sS'comp.graphics/38416'
p994
I256
sS'comp.graphics/38417'
p995
I257
sS'comp.graphics/38410'
p996
I250
sS'comp.graphics/38411'
p997
I251
sS'comp.graphics/38412'
p998
I252
sS'comp.graphics/38413'
p999
I253
sS'rec.motorcycles/104350'
p1000
I1202
sS'rec.motorcycles/104351'
p1001
I1203
sS'rec.motorcycles/104352'
p1002
I1204
sS'rec.motorcycles/104353'
p1003
I1205
sS'rec.motorcycles/104354'
p1004
I1206
sS'rec.motorcycles/104355'
p1005
I1207
sS'rec.motorcycles/104356'
p1006
I1208
sS'rec.motorcycles/104357'
p1007
I1209
sS'rec.motorcycles/104358'
p1008
I1210
sS'rec.motorcycles/104359'
p1009
I1211
sS'comp.graphics/38898'
p1010
I737
sS'comp.graphics/38899'
p1011
I738
sS'rec.motorcycles/104539'
p1012
I1391
sS'comp.graphics/38890'
p1013
I729
sS'comp.graphics/38891'
p1014
I730
sS'comp.graphics/38892'
p1015
I731
sS'comp.graphics/38893'
p1016
I732
sS'comp.graphics/38894'
p1017
I733
sS'comp.graphics/38895'
p1018
I734
sS'comp.graphics/38896'
p1019
I735
sS'comp.graphics/38897'
p1020
I736
sS'comp.graphics/38300'
p1021
I140
sS'comp.graphics/38301'
p1022
I141
sS'comp.graphics/38302'
p1023
I142
sS'comp.graphics/38303'
p1024
I143
sS'comp.graphics/38304'
p1025
I144
sS'comp.graphics/38305'
p1026
I145
sS'comp.graphics/38306'
p1027
I146
sS'comp.graphics/38307'
p1028
I147
sS'comp.graphics/38308'
p1029
I148
sS'comp.graphics/38309'
p1030
I149
sS'rec.motorcycles/104761'
p1031
I1612
sS'rec.motorcycles/104457'
p1032
I1309
sS'rec.motorcycles/104763'
p1033
I1614
sS'rec.motorcycles/104762'
p1034
I1613
sS'rec.motorcycles/104765'
p1035
I1616
sS'rec.motorcycles/104764'
p1036
I1615
sS'rec.motorcycles/104767'
p1037
I1618
sS'rec.motorcycles/104456'
p1038
I1308
sS'rec.motorcycles/104769'
p1039
I1620
sS'rec.motorcycles/104768'
p1040
I1619
sS'rec.motorcycles/104455'
p1041
I1307
sS'rec.motorcycles/104454'
p1042
I1306
sS'rec.motorcycles/104667'
p1043
I1518
sS'rec.motorcycles/104758'
p1044
I1609
sS'rec.motorcycles/104759'
p1045
I1610
sS'comp.graphics/37943'
p1046
I32
sS'comp.graphics/37942'
p1047
I31
sS'comp.graphics/37941'
p1048
I30
sS'comp.graphics/37940'
p1049
I29
sS'comp.graphics/37947'
p1050
I36
sS'comp.graphics/37946'
p1051
I35
sS'comp.graphics/37945'
p1052
I34
sS'comp.graphics/37944'
p1053
I33
sS'comp.graphics/37949'
p1054
I38
sS'comp.graphics/37948'
p1055
I37
sS'rec.motorcycles/103180'
p1056
I1066
sS'rec.motorcycles/103181'
p1057
I1067
sS'rec.motorcycles/103182'
p1058
I1068
sS'rec.motorcycles/103183'
p1059
I1069
sS'comp.graphics/38218'
p1060
I58
sS'rec.motorcycles/103184'
p1061
I1070
sS'rec.motorcycles/103185'
p1062
I1071
sS'comp.graphics/38216'
p1063
I56
sS'rec.motorcycles/103186'
p1064
I1072
sS'comp.graphics/39618'
p1065
I935
sS'rec.motorcycles/104458'
p1066
I1310
sS'comp.graphics/38214'
p1067
I54
sS'comp.graphics/38215'
p1068
I55
sS'rec.motorcycles/104619'
p1069
I1470
sS'comp.graphics/38528'
p1070
I367
sS'rec.motorcycles/104615'
p1071
I1466
sS'rec.motorcycles/104614'
p1072
I1465
sS'rec.motorcycles/104617'
p1073
I1468
sS'rec.motorcycles/104616'
p1074
I1467
sS'rec.motorcycles/104611'
p1075
I1462
sS'rec.motorcycles/104610'
p1076
I1461
sS'rec.motorcycles/104613'
p1077
I1464
sS'comp.graphics/39022'
p1078
I860
sS'rec.motorcycles/103242'
p1079
I1128
sS'rec.motorcycles/103241'
p1080
I1127
sS'rec.motorcycles/103240'
p1081
I1126
sS'rec.motorcycles/104900'
p1082
I1751
sS'rec.motorcycles/104835'
p1083
I1686
sS'rec.motorcycles/104834'
p1084
I1685
sS'rec.motorcycles/104837'
p1085
I1688
sS'rec.motorcycles/104836'
p1086
I1687
sS'rec.motorcycles/104831'
p1087
I1682
sS'rec.motorcycles/104830'
p1088
I1681
sS'rec.motorcycles/104833'
p1089
I1684
sS'rec.motorcycles/104832'
p1090
I1683
sS'rec.motorcycles/104839'
p1091
I1690
sS'rec.motorcycles/104838'
p1092
I1689
sS'comp.graphics/38649'
p1093
I488
sS'comp.graphics/38648'
p1094
I487
sS'comp.graphics/38641'
p1095
I480
sS'comp.graphics/38640'
p1096
I479
sS'comp.graphics/38643'
p1097
I482
sS'comp.graphics/38642'
p1098
I481
sS'comp.graphics/38645'
p1099
I484
sS'comp.graphics/38644'
p1100
I483
sS'comp.graphics/38647'
p1101
I486
sS'comp.graphics/38646'
p1102
I485
sS'comp.graphics/38263'
p1103
I103
sS'comp.graphics/38262'
p1104
I102
sS'comp.graphics/38261'
p1105
I101
sS'comp.graphics/38260'
p1106
I100
sS'comp.graphics/38267'
p1107
I107
sS'comp.graphics/38266'
p1108
I106
sS'rec.motorcycles/104291'
p1109
I1143
sS'rec.motorcycles/104290'
p1110
I1142
sS'rec.motorcycles/104293'
p1111
I1145
sS'rec.motorcycles/104292'
p1112
I1144
sS'rec.motorcycles/104295'
p1113
I1147
sS'rec.motorcycles/104294'
p1114
I1146
sS'rec.motorcycles/104297'
p1115
I1149
sS'rec.motorcycles/104296'
p1116
I1148
sS'rec.motorcycles/104299'
p1117
I1151
sS'rec.motorcycles/104298'
p1118
I1150
sS'comp.graphics/38264'
p1119
I104
sS'comp.graphics/39660'
p1120
I977
sS'comp.graphics/39661'
p1121
I978
sS'comp.graphics/39662'
p1122
I979
sS'comp.graphics/39663'
p1123
I980
sS'comp.graphics/38249'
p1124
I89
sS'comp.graphics/38248'
p1125
I88
sS'comp.graphics/39666'
p1126
I983
sS'comp.graphics/38798'
p1127
I637
sS'comp.graphics/39668'
p1128
I985
sS'comp.graphics/38244'
p1129
I84
sS'comp.graphics/38247'
p1130
I87
sS'comp.graphics/38246'
p1131
I86
sS'comp.graphics/38241'
p1132
I81
sS'comp.graphics/38240'
p1133
I80
sS'comp.graphics/38243'
p1134
I83
sS'comp.graphics/38242'
p1135
I82
sS'comp.graphics/39066'
p1136
I904
sS'comp.graphics/39067'
p1137
I905
sS'comp.graphics/39064'
p1138
I902
sS'comp.graphics/39065'
p1139
I903
sS'comp.graphics/39062'
p1140
I900
sS'comp.graphics/39063'
p1141
I901
sS'comp.graphics/39060'
p1142
I898
sS'comp.graphics/39061'
p1143
I899
sS'comp.graphics/39068'
p1144
I906
sS'comp.graphics/39069'
p1145
I907
sS'rec.motorcycles/104589'
p1146
I1440
sS'rec.motorcycles/104588'
p1147
I1439
sS'rec.motorcycles/104585'
p1148
I1436
sS'rec.motorcycles/104584'
p1149
I1435
sS'rec.motorcycles/104587'
p1150
I1438
sS'rec.motorcycles/104586'
p1151
I1437
sS'rec.motorcycles/104581'
p1152
I1432
sS'rec.motorcycles/104580'
p1153
I1431
sS'rec.motorcycles/104583'
p1154
I1434
sS'rec.motorcycles/104582'
p1155
I1433
sS'comp.graphics/38421'
p1156
I260
sS'comp.graphics/38420'
p1157
I259
sS'comp.graphics/38423'
p1158
I262
sS'comp.graphics/38422'
p1159
I261
sS'comp.graphics/38425'
p1160
I264
sS'comp.graphics/38424'
p1161
I263
sS'rec.motorcycles/104349'
p1162
I1201
sS'comp.graphics/38426'
p1163
I265
sS'rec.motorcycles/104347'
p1164
I1199
sS'comp.graphics/38428'
p1165
I267
sS'rec.motorcycles/104345'
p1166
I1197
sS'rec.motorcycles/104344'
p1167
I1196
sS'rec.motorcycles/104343'
p1168
I1195
sS'rec.motorcycles/104342'
p1169
I1194
sS'rec.motorcycles/104341'
p1170
I1193
sS'rec.motorcycles/104340'
p1171
I1192
sS'rec.motorcycles/105098'
p1172
I1862
sS'rec.motorcycles/105099'
p1173
I1863
sS'comp.graphics/38335'
p1174
I175
sS'comp.graphics/38334'
p1175
I174
sS'comp.graphics/38337'
p1176
I177
sS'comp.graphics/38336'
p1177
I176
sS'comp.graphics/38331'
p1178
I171
sS'comp.graphics/38330'
p1179
I170
sS'comp.graphics/38333'
p1180
I173
sS'comp.graphics/38332'
p1181
I172
sS'comp.graphics/38339'
p1182
I179
sS'comp.graphics/38338'
p1183
I178
sS'comp.graphics/38933'
p1184
I772
sS'comp.graphics/38932'
p1185
I771
sS'comp.graphics/38931'
p1186
I770
sS'comp.graphics/38930'
p1187
I769
sS'comp.graphics/38937'
p1188
I776
sS'comp.graphics/38936'
p1189
I775
sS'comp.graphics/38935'
p1190
I774
sS'comp.graphics/38934'
p1191
I773
sS'rec.motorcycles/104754'
p1192
I1605
sS'rec.motorcycles/104755'
p1193
I1606
sS'comp.graphics/38939'
p1194
I778
sS'comp.graphics/38938'
p1195
I777
sS'rec.motorcycles/104750'
p1196
I1601
sS'rec.motorcycles/104751'
p1197
I1602
sS'rec.motorcycles/104752'
p1198
I1603
sS'rec.motorcycles/104753'
p1199
I1604
sS'comp.graphics/37950'
p1200
I39
sS'comp.graphics/37951'
p1201
I40
sS'comp.graphics/37952'
p1202
I41
sS'comp.graphics/37953'
p1203
I42
sS'comp.graphics/37954'
p1204
I43
sS'comp.graphics/37955'
p1205
I44
sS'comp.graphics/37956'
p1206
I45
sS'comp.graphics/37957'
p1207
I46
sS'comp.graphics/37958'
p1208
I47
sS'comp.graphics/37959'
p1209
I48
sS'rec.motorcycles/104628'
p1210
I1479
sS'rec.motorcycles/104629'
p1211
I1480
sS'rec.motorcycles/103119'
p1212
I1005
sS'rec.motorcycles/103118'
p1213
I1004
sS'rec.motorcycles/103117'
p1214
I1003
sS'rec.motorcycles/104621'
p1215
I1472
sS'rec.motorcycles/104622'
p1216
I1473
sS'rec.motorcycles/104623'
p1217
I1474
sS'rec.motorcycles/104624'
p1218
I1475
sS'rec.motorcycles/104625'
p1219
I1476
sS'rec.motorcycles/104626'
p1220
I1477
sS'rec.motorcycles/104627'
p1221
I1478
sS'rec.motorcycles/103232'
p1222
I1118
sS'rec.motorcycles/103233'
p1223
I1119
sS'rec.motorcycles/103230'
p1224
I1116
sS'rec.motorcycles/103231'
p1225
I1117
sS'rec.motorcycles/103236'
p1226
I1122
sS'rec.motorcycles/103237'
p1227
I1123
sS'rec.motorcycles/103234'
p1228
I1120
sS'rec.motorcycles/103235'
p1229
I1121
sS'rec.motorcycles/103238'
p1230
I1124
sS'rec.motorcycles/103239'
p1231
I1125
sS'rec.motorcycles/105078'
p1232
I1856
sS'rec.motorcycles/104620'
p1233
I1471
sS'rec.motorcycles/105079'
p1234
I1857
sS'rec.motorcycles/104934'
p1235
I1771
sS'rec.motorcycles/104932'
p1236
I1769
sS'rec.motorcycles/104933'
p1237
I1770
sS'rec.motorcycles/104800'
p1238
I1651
sS'rec.motorcycles/104801'
p1239
I1652
sS'rec.motorcycles/104802'
p1240
I1653
sS'rec.motorcycles/104803'
p1241
I1654
sS'rec.motorcycles/104804'
p1242
I1655
sS'rec.motorcycles/104805'
p1243
I1656
sS'rec.motorcycles/104806'
p1244
I1657
sS'rec.motorcycles/104807'
p1245
I1658
sS'rec.motorcycles/104808'
p1246
I1659
sS'rec.motorcycles/104809'
p1247
I1660
sS'comp.graphics/39039'
p1248
I877
sS'comp.graphics/38658'
p1249
I497
sS'comp.graphics/38659'
p1250
I498
sS'comp.graphics/38656'
p1251
I495
sS'comp.graphics/38657'
p1252
I496
sS'comp.graphics/38654'
p1253
I493
sS'comp.graphics/38655'
p1254
I494
sS'comp.graphics/38652'
p1255
I491
sS'comp.graphics/38653'
p1256
I492
sS'comp.graphics/38650'
p1257
I489
sS'comp.graphics/38651'
p1258
I490
sS'rec.motorcycles/105097'
p1259
I1861
sS'comp.graphics/39655'
p1260
I972
sS'comp.graphics/39654'
p1261
I971
sS'comp.graphics/39657'
p1262
I974
sS'comp.graphics/39656'
p1263
I973
sS'comp.graphics/39651'
p1264
I968
sS'comp.graphics/39650'
p1265
I967
sS'comp.graphics/39653'
p1266
I970
sS'comp.graphics/39652'
p1267
I969
sS'comp.graphics/38784'
p1268
I623
sS'comp.graphics/38785'
p1269
I624
sS'comp.graphics/38786'
p1270
I625
sS'comp.graphics/38787'
p1271
I626
sS'comp.graphics/39659'
p1272
I976
sS'comp.graphics/39658'
p1273
I975
sS'comp.graphics/38782'
p1274
I621
sS'comp.graphics/38783'
p1275
I622
sS'comp.graphics/38252'
p1276
I92
sS'comp.graphics/38253'
p1277
I93
sS'comp.graphics/38250'
p1278
I90
sS'comp.graphics/38251'
p1279
I91
sS'comp.graphics/38256'
p1280
I96
sS'comp.graphics/38257'
p1281
I97
sS'comp.graphics/38254'
p1282
I94
sS'comp.graphics/38255'
p1283
I95
sS'rec.motorcycles/105216'
p1284
I1941
sS'rec.motorcycles/105217'
p1285
I1942
sS'comp.graphics/38258'
p1286
I98
sS'comp.graphics/38259'
p1287
I99
sS'rec.motorcycles/105212'
p1288
I1937
sS'rec.motorcycles/105213'
p1289
I1938
sS'rec.motorcycles/105210'
p1290
I1935
sS'rec.motorcycles/105211'
p1291
I1936
sS'rec.motorcycles/103178'
p1292
I1064
sS'comp.graphics/38436'
p1293
I275
sS'comp.graphics/38437'
p1294
I276
sS'rec.motorcycles/104338'
p1295
I1190
sS'rec.motorcycles/104339'
p1296
I1191
sS'comp.graphics/38432'
p1297
I271
sS'comp.graphics/38433'
p1298
I272
sS'comp.graphics/38430'
p1299
I269
sS'comp.graphics/38431'
p1300
I270
sS'rec.motorcycles/104332'
p1301
I1184
sS'rec.motorcycles/104333'
p1302
I1185
sS'rec.motorcycles/104330'
p1303
I1182
sS'rec.motorcycles/104331'
p1304
I1183
sS'rec.motorcycles/104336'
p1305
I1188
sS'rec.motorcycles/104337'
p1306
I1189
sS'comp.graphics/38438'
p1307
I277
sS'comp.graphics/38439'
p1308
I278
sS'rec.motorcycles/105103'
p1309
I1867
sS'comp.graphics/38328'
p1310
I168
sS'comp.graphics/38329'
p1311
I169
sS'comp.graphics/38322'
p1312
I162
sS'comp.graphics/38323'
p1313
I163
sS'comp.graphics/38320'
p1314
I160
sS'comp.graphics/38321'
p1315
I161
sS'comp.graphics/38326'
p1316
I166
sS'comp.graphics/38327'
p1317
I167
sS'comp.graphics/38324'
p1318
I164
sS'comp.graphics/38325'
p1319
I165
sS'comp.graphics/38920'
p1320
I759
sS'comp.graphics/38921'
p1321
I760
sS'comp.graphics/38922'
p1322
I761
sS'comp.graphics/38923'
p1323
I762
sS'comp.graphics/38924'
p1324
I763
sS'comp.graphics/38925'
p1325
I764
sS'comp.graphics/38926'
p1326
I765
sS'comp.graphics/38927'
p1327
I766
sS'comp.graphics/38928'
p1328
I767
sS'comp.graphics/38929'
p1329
I768
sS'rec.motorcycles/104741'
p1330
I1592
sS'rec.motorcycles/104740'
p1331
I1591
sS'rec.motorcycles/104747'
p1332
I1598
sS'rec.motorcycles/104746'
p1333
I1597
sS'rec.motorcycles/104745'
p1334
I1596
sS'rec.motorcycles/104744'
p1335
I1595
sS'rec.motorcycles/105109'
p1336
I1873
sS'rec.motorcycles/104516'
p1337
I1368
sS'comp.graphics/37961'
p1338
I50
sS'comp.graphics/37960'
p1339
I49
sS'comp.graphics/37963'
p1340
I52
sS'comp.graphics/37962'
p1341
I51
sS'comp.graphics/37923'
p1342
I12
sS'rec.motorcycles/104515'
p1343
I1367
sS'comp.graphics/37925'
p1344
I14
sS'comp.graphics/37924'
p1345
I13
sS'rec.motorcycles/104637'
p1346
I1488
sS'rec.motorcycles/104636'
p1347
I1487
sS'rec.motorcycles/104635'
p1348
I1486
sS'rec.motorcycles/104634'
p1349
I1485
sS'rec.motorcycles/104633'
p1350
I1484
sS'comp.graphics/37927'
p1351
I16
sS'rec.motorcycles/104631'
p1352
I1482
sS'rec.motorcycles/104630'
p1353
I1481
sS'comp.graphics/37926'
p1354
I15
sS'rec.motorcycles/104639'
p1355
I1490
sS'rec.motorcycles/104638'
p1356
I1489
sS'rec.motorcycles/103168'
p1357
I1054
sS'rec.motorcycles/103169'
p1358
I1055
sS'rec.motorcycles/103162'
p1359
I1048
sS'rec.motorcycles/103163'
p1360
I1049
sS'rec.motorcycles/103160'
p1361
I1046
sS'rec.motorcycles/103161'
p1362
I1047
sS'rec.motorcycles/103166'
p1363
I1052
sS'rec.motorcycles/103167'
p1364
I1053
sS'rec.motorcycles/103164'
p1365
I1050
sS'rec.motorcycles/103165'
p1366
I1051
sS'rec.motorcycles/103221'
p1367
I1107
sS'rec.motorcycles/103220'
p1368
I1106
sS'rec.motorcycles/103223'
p1369
I1109
sS'rec.motorcycles/103222'
p1370
I1108
sS'rec.motorcycles/103225'
p1371
I1111
sS'rec.motorcycles/103224'
p1372
I1110
sS'rec.motorcycles/103227'
p1373
I1113
sS'rec.motorcycles/103226'
p1374
I1112
sS'rec.motorcycles/103229'
p1375
I1115
sS'rec.motorcycles/103228'
p1376
I1114
sS'rec.motorcycles/104679'
p1377
I1530
sS'rec.motorcycles/104678'
p1378
I1529
sS'comp.graphics/39006'
p1379
I844
sS'rec.motorcycles/105238'
p1380
I1963
sS'rec.motorcycles/105239'
p1381
I1964
sS'rec.motorcycles/104673'
p1382
I1524
sS'rec.motorcycles/104921'
p1383
I1763
sS'rec.motorcycles/104920'
p1384
I1762
sS'rec.motorcycles/104927'
p1385
I1768
sS'rec.motorcycles/104926'
p1386
I1767
sS'rec.motorcycles/104925'
p1387
I1766
sS'rec.motorcycles/104672'
p1388
I1523
sS'comp.graphics/39007'
p1389
I845
sS'rec.motorcycles/104819'
p1390
I1670
sS'rec.motorcycles/104818'
p1391
I1669
sS'rec.motorcycles/104817'
p1392
I1668
sS'rec.motorcycles/104816'
p1393
I1667
sS'rec.motorcycles/104815'
p1394
I1666
sS'rec.motorcycles/104814'
p1395
I1665
sS'rec.motorcycles/104813'
p1396
I1664
sS'rec.motorcycles/104812'
p1397
I1663
sS'rec.motorcycles/104811'
p1398
I1662
sS'rec.motorcycles/104810'
p1399
I1661
sS'comp.graphics/39738'
p1400
I997
sS'rec.motorcycles/105517'
p1401
I1991
sS'comp.graphics/38797'
p1402
I636
sS'rec.motorcycles/105234'
p1403
I1959
sS'comp.graphics/38796'
p1404
I635
sS'rec.motorcycles/105235'
p1405
I1960
sS'comp.graphics/39648'
p1406
I965
sS'comp.graphics/39649'
p1407
I966
sS'comp.graphics/39642'
p1408
I959
sS'comp.graphics/39643'
p1409
I960
sS'comp.graphics/39640'
p1410
I957
sS'comp.graphics/39641'
p1411
I958
sS'comp.graphics/39646'
p1412
I963
sS'comp.graphics/39647'
p1413
I964
sS'comp.graphics/39644'
p1414
I961
sS'comp.graphics/39645'
p1415
I962
sS'comp.graphics/38227'
p1416
I67
sS'comp.graphics/38226'
p1417
I66
sS'comp.graphics/38225'
p1418
I65
sS'comp.graphics/38224'
p1419
I64
sS'comp.graphics/38223'
p1420
I63
sS'comp.graphics/38222'
p1421
I62
sS'comp.graphics/38221'
p1422
I61
sS'comp.graphics/38220'
p1423
I60
sS'comp.graphics/39080'
p1424
I918
sS'comp.graphics/39081'
p1425
I919
sS'comp.graphics/39082'
p1426
I920
sS'comp.graphics/39083'
p1427
I921
sS'comp.graphics/39084'
p1428
I922
sS'comp.graphics/38229'
p1429
I69
sS'comp.graphics/38228'
p1430
I68
sS'comp.graphics/38283'
p1431
I123
sS'comp.graphics/38282'
p1432
I122
sS'comp.graphics/38685'
p1433
I524
sS'comp.graphics/38684'
p1434
I523
sS'comp.graphics/38687'
p1435
I526
sS'comp.graphics/38686'
p1436
I525
sS'comp.graphics/38681'
p1437
I520
sS'comp.graphics/38680'
p1438
I519
sS'comp.graphics/38683'
p1439
I522
sS'comp.graphics/38682'
p1440
I521
sS'comp.graphics/38689'
p1441
I528
sS'comp.graphics/38688'
p1442
I527
sS'rec.motorcycles/104329'
p1443
I1181
sS'rec.motorcycles/104328'
p1444
I1180
sS'comp.graphics/38288'
p1445
I128
sS'rec.motorcycles/104321'
p1446
I1173
sS'rec.motorcycles/104320'
p1447
I1172
sS'rec.motorcycles/104323'
p1448
I1175
sS'rec.motorcycles/104322'
p1449
I1174
sS'rec.motorcycles/104325'
p1450
I1177
sS'rec.motorcycles/104324'
p1451
I1176
sS'rec.motorcycles/104327'
p1452
I1179
sS'rec.motorcycles/104326'
p1453
I1178
sS'comp.graphics/38359'
p1454
I199
sS'comp.graphics/38358'
p1455
I198
sS'comp.graphics/38357'
p1456
I197
sS'comp.graphics/38356'
p1457
I196
sS'comp.graphics/38355'
p1458
I195
sS'comp.graphics/38354'
p1459
I194
sS'comp.graphics/38353'
p1460
I193
sS'comp.graphics/38352'
p1461
I192
sS'comp.graphics/38351'
p1462
I191
sS'comp.graphics/38350'
p1463
I190
sS'comp.graphics/38915'
p1464
I754
sS'comp.graphics/38914'
p1465
I753
sS'comp.graphics/38917'
p1466
I756
sS'comp.graphics/38916'
p1467
I755
sS'comp.graphics/38911'
p1468
I750
sS'comp.graphics/38910'
p1469
I749
sS'comp.graphics/38913'
p1470
I752
sS'comp.graphics/38912'
p1471
I751
sS'comp.graphics/38919'
p1472
I758
sS'comp.graphics/38918'
p1473
I757
sS'rec.motorcycles/104642'
p1474
I1493
sS'rec.motorcycles/104643'
p1475
I1494
sS'rec.motorcycles/104640'
p1476
I1491
sS'rec.motorcycles/104641'
p1477
I1492
sS'rec.motorcycles/104646'
p1478
I1497
sS'rec.motorcycles/104647'
p1479
I1498
sS'rec.motorcycles/104644'
p1480
I1495
sS'rec.motorcycles/104645'
p1481
I1496
sS'rec.motorcycles/104648'
p1482
I1499
sS'rec.motorcycles/104649'
p1483
I1500
sS'rec.motorcycles/104484'
p1484
I1336
sS'rec.motorcycles/104485'
p1485
I1337
sS'rec.motorcycles/104486'
p1486
I1338
sS'rec.motorcycles/104487'
p1487
I1339
sS'rec.motorcycles/104480'
p1488
I1332
sS'rec.motorcycles/104481'
p1489
I1333
sS'rec.motorcycles/104482'
p1490
I1334
sS'rec.motorcycles/104483'
p1491
I1335
sS'rec.motorcycles/103171'
p1492
I1057
sS'rec.motorcycles/103170'
p1493
I1056
sS'rec.motorcycles/103173'
p1494
I1059
sS'rec.motorcycles/103172'
p1495
I1058
sS'rec.motorcycles/103175'
p1496
I1061
sS'rec.motorcycles/104489'
p1497
I1341
sS'rec.motorcycles/103177'
p1498
I1063
sS'rec.motorcycles/103176'
p1499
I1062
sS'rec.motorcycles/103218'
p1500
I1104
sS'rec.motorcycles/103219'
p1501
I1105
sS'rec.motorcycles/103214'
p1502
I1100
sS'rec.motorcycles/103215'
p1503
I1101
sS'rec.motorcycles/103216'
p1504
I1102
sS'rec.motorcycles/103217'
p1505
I1103
sS'rec.motorcycles/103210'
p1506
I1096
sS'rec.motorcycles/103211'
p1507
I1097
sS'rec.motorcycles/103212'
p1508
I1098
sS'rec.motorcycles/103213'
p1509
I1099
sS'rec.motorcycles/104790'
p1510
I1641
sS'rec.motorcycles/104791'
p1511
I1642
sS'rec.motorcycles/104792'
p1512
I1643
sS'rec.motorcycles/104793'
p1513
I1644
sS'rec.motorcycles/104794'
p1514
I1645
sS'rec.motorcycles/104795'
p1515
I1646
sS'rec.motorcycles/104796'
p1516
I1647
sS'rec.motorcycles/104797'
p1517
I1648
sS'rec.motorcycles/104798'
p1518
I1649
sS'rec.motorcycles/104799'
p1519
I1650
sS'comp.graphics/40062'
p1520
I1000
sS'comp.graphics/38217'
p1521
I57
sS'rec.motorcycles/104868'
p1522
I1719
sS'rec.motorcycles/104869'
p1523
I1720
sS'rec.motorcycles/104862'
p1524
I1713
sS'rec.motorcycles/104863'
p1525
I1714
sS'rec.motorcycles/104860'
p1526
I1711
sS'rec.motorcycles/104861'
p1527
I1712
sS'rec.motorcycles/104866'
p1528
I1717
sS'rec.motorcycles/104867'
p1529
I1718
sS'rec.motorcycles/104864'
p1530
I1715
sS'rec.motorcycles/104865'
p1531
I1716
sS'comp.graphics/38992'
p1532
I830
sS'rec.motorcycles/105159'
p1533
I1923
sS'rec.motorcycles/104608'
p1534
I1459
sS'rec.motorcycles/105158'
p1535
I1922
sS'rec.motorcycles/104609'
p1536
I1460
sS'rec.motorcycles/103179'
p1537
I1065
sS'rec.motorcycles/104602'
p1538
I1453
sS'rec.motorcycles/104603'
p1539
I1454
sS'rec.motorcycles/105155'
p1540
I1919
sS'rec.motorcycles/105154'
p1541
I1918
sS'comp.graphics/39639'
p1542
I956
sS'comp.graphics/39638'
p1543
I955
sS'comp.graphics/39637'
p1544
I954
sS'comp.graphics/39636'
p1545
I953
sS'comp.graphics/39635'
p1546
I952
sS'comp.graphics/39634'
p1547
I951
sS'comp.graphics/39633'
p1548
I950
sS'comp.graphics/39632'
p1549
I949
sS'comp.graphics/39631'
p1550
I948
sS'comp.graphics/39630'
p1551
I947
sS'comp.graphics/38234'
p1552
I74
sS'comp.graphics/38235'
p1553
I75
sS'comp.graphics/38236'
p1554
I76
sS'comp.graphics/38237'
p1555
I77
sS'comp.graphics/38230'
p1556
I70
sS'comp.graphics/38231'
p1557
I71
sS'comp.graphics/38232'
p1558
I72
sS'comp.graphics/38233'
p1559
I73
sS'rec.motorcycles/105230'
p1560
I1955
sS'rec.motorcycles/105231'
p1561
I1956
sS'rec.motorcycles/105232'
p1562
I1957
sS'rec.motorcycles/105233'
p1563
I1958
sS'comp.graphics/38238'
p1564
I78
sS'comp.graphics/38239'
p1565
I79
sS'rec.motorcycles/105236'
p1566
I1961
sS'rec.motorcycles/105237'
p1567
I1962
sS'rec.motorcycles/104314'
p1568
I1166
sS'rec.motorcycles/104315'
p1569
I1167
sS'rec.motorcycles/104316'
p1570
I1168
sS'rec.motorcycles/104317'
p1571
I1169
sS'rec.motorcycles/104310'
p1572
I1162
sS'rec.motorcycles/104311'
p1573
I1163
sS'rec.motorcycles/104312'
p1574
I1164
sS'rec.motorcycles/104313'
p1575
I1165
sS'rec.motorcycles/104318'
p1576
I1170
sS'rec.motorcycles/104319'
p1577
I1171
sS'rec.motorcycles/104533'
p1578
I1385
sS'comp.graphics/38698'
p1579
I537
sS'comp.graphics/38699'
p1580
I538
sS'comp.graphics/38692'
p1581
I531
sS'comp.graphics/38693'
p1582
I532
sS'comp.graphics/38690'
p1583
I529
sS'comp.graphics/38691'
p1584
I530
sS'comp.graphics/38696'
p1585
I535
sS'comp.graphics/38697'
p1586
I536
sS'comp.graphics/38694'
p1587
I533
sS'comp.graphics/38695'
p1588
I534
sS'rec.motorcycles/104403'
p1589
I1255
sS'rec.motorcycles/105010'
p1590
I1828
sS'rec.motorcycles/105011'
p1591
I1829
sS'rec.motorcycles/105012'
p1592
I1830
sS'comp.graphics/38348'
p1593
I188
sS'comp.graphics/38349'
p1594
I189
sS'comp.graphics/38344'
p1595
I184
sS'comp.graphics/38345'
p1596
I185
sS'comp.graphics/38346'
p1597
I186
sS'comp.graphics/38347'
p1598
I187
sS'comp.graphics/38340'
p1599
I180
sS'comp.graphics/38341'
p1600
I181
sS'comp.graphics/38342'
p1601
I182
sS'comp.graphics/38343'
p1602
I183
sS'comp.graphics/38908'
p1603
I747
sS'comp.graphics/38909'
p1604
I748
sS'comp.graphics/38902'
p1605
I741
sS'comp.graphics/38903'
p1606
I742
sS'comp.graphics/38900'
p1607
I739
sS'comp.graphics/38901'
p1608
I740
sS'comp.graphics/38906'
p1609
I745
sS'comp.graphics/38907'
p1610
I746
sS'comp.graphics/38904'
p1611
I743
sS'comp.graphics/38905'
p1612
I744
sS'rec.motorcycles/103144'
p1613
I1030
sS'rec.motorcycles/103145'
p1614
I1031
sS'rec.motorcycles/103146'
p1615
I1032
sS'rec.motorcycles/103147'
p1616
I1033
sS'rec.motorcycles/103140'
p1617
I1026
sS'rec.motorcycles/103141'
p1618
I1027
sS'rec.motorcycles/103142'
p1619
I1028
sS'rec.motorcycles/103143'
p1620
I1029
sS'rec.motorcycles/104659'
p1621
I1510
sS'rec.motorcycles/104658'
p1622
I1509
sS'rec.motorcycles/103148'
p1623
I1034
sS'rec.motorcycles/103149'
p1624
I1035
sS'rec.motorcycles/104493'
p1625
I1345
sS'rec.motorcycles/104492'
p1626
I1344
sS'rec.motorcycles/104491'
p1627
I1343
sS'rec.motorcycles/104490'
p1628
I1342
sS'rec.motorcycles/104497'
p1629
I1349
sS'rec.motorcycles/104496'
p1630
I1348
sS'rec.motorcycles/104495'
p1631
I1347
sS'rec.motorcycles/104494'
p1632
I1346
sS'rec.motorcycles/104499'
p1633
I1351
sS'rec.motorcycles/104498'
p1634
I1350
sS'rec.motorcycles/103209'
p1635
I1095
sS'rec.motorcycles/103208'
p1636
I1094
sS'rec.motorcycles/103203'
p1637
I1089
sS'rec.motorcycles/103202'
p1638
I1088
sS'rec.motorcycles/103201'
p1639
I1087
sS'rec.motorcycles/103200'
p1640
I1086
sS'rec.motorcycles/103207'
p1641
I1093
sS'rec.motorcycles/103206'
p1642
I1092
sS'rec.motorcycles/103205'
p1643
I1091
sS'rec.motorcycles/103204'
p1644
I1090
sS'rec.motorcycles/104789'
p1645
I1640
sS'rec.motorcycles/104788'
p1646
I1639
sS'rec.motorcycles/104787'
p1647
I1638
sS'rec.motorcycles/104786'
p1648
I1637
sS'rec.motorcycles/104785'
p1649
I1636
sS'rec.motorcycles/104784'
p1650
I1635
sS'rec.motorcycles/104783'
p1651
I1634
sS'rec.motorcycles/104782'
p1652
I1633
sS'rec.motorcycles/104781'
p1653
I1632
sS'rec.motorcycles/104780'
p1654
I1631
sS'comp.graphics/38788'
p1655
I627
sS'comp.graphics/38789'
p1656
I628
sS'rec.motorcycles/104879'
p1657
I1730
sS'rec.motorcycles/104878'
p1658
I1729
sS'rec.motorcycles/104871'
p1659
I1722
sS'rec.motorcycles/104870'
p1660
I1721
sS'rec.motorcycles/104873'
p1661
I1724
sS'rec.motorcycles/104872'
p1662
I1723
sS'rec.motorcycles/104875'
p1663
I1726
sS'rec.motorcycles/104874'
p1664
I1725
sS'rec.motorcycles/104877'
p1665
I1728
sS'rec.motorcycles/104876'
p1666
I1727
sS'rec.motorcycles/104651'
p1667
I1502
sS'rec.motorcycles/104650'
p1668
I1501
sS'comp.graphics/38780'
p1669
I619
sS'rec.motorcycles/104653'
p1670
I1504
sS'comp.graphics/38781'
p1671
I620
sS'rec.motorcycles/104652'
p1672
I1503
sS'rec.motorcycles/104655'
p1673
I1506
sS'rec.motorcycles/104654'
p1674
I1505
sS'rec.motorcycles/104657'
p1675
I1508
sS'rec.motorcycles/104656'
p1676
I1507
sS'rec.motorcycles/105218'
p1677
I1943
sS'rec.motorcycles/105219'
p1678
I1944
sS'rec.motorcycles/105214'
p1679
I1939
sS'rec.motorcycles/105215'
p1680
I1940
sS'rec.motorcycles/103553'
p1681
I1129
sS'comp.graphics/38599'
p1682
I438
sS'comp.graphics/38598'
p1683
I437
sS'rec.motorcycles/105225'
p1684
I1950
sS'rec.motorcycles/105224'
p1685
I1949
sS'rec.motorcycles/105223'
p1686
I1948
sS'rec.motorcycles/105222'
p1687
I1947
sS'rec.motorcycles/105221'
p1688
I1946
sS'rec.motorcycles/105220'
p1689
I1945
sS'comp.graphics/38591'
p1690
I430
sS'comp.graphics/38590'
p1691
I429
sS'comp.graphics/38593'
p1692
I432
sS'comp.graphics/38592'
p1693
I431
sS'comp.graphics/38595'
p1694
I434
sS'comp.graphics/38594'
p1695
I433
sS'comp.graphics/38597'
p1696
I436
sS'comp.graphics/38596'
p1697
I435
sS'comp.graphics/39628'
p1698
I945
sS'comp.graphics/39629'
p1699
I946
sS'comp.graphics/39624'
p1700
I941
sS'comp.graphics/39625'
p1701
I942
sS'comp.graphics/39626'
p1702
I943
sS'comp.graphics/39627'
p1703
I944
sS'comp.graphics/39620'
p1704
I937
sS'comp.graphics/39621'
p1705
I938
sS'comp.graphics/39622'
p1706
I939
sS'comp.graphics/39623'
p1707
I940
sS'comp.graphics/38759'
p1708
I598
sS'comp.graphics/38758'
p1709
I597
sS'comp.graphics/38753'
p1710
I592
sS'comp.graphics/38752'
p1711
I591
sS'comp.graphics/38751'
p1712
I590
sS'comp.graphics/38750'
p1713
I589
sS'comp.graphics/38757'
p1714
I596
sS'comp.graphics/38756'
p1715
I595
sS'comp.graphics/38755'
p1716
I594
sS'comp.graphics/38754'
p1717
I593
sS'rec.motorcycles/104303'
p1718
I1155
sS'rec.motorcycles/104302'
p1719
I1154
sS'rec.motorcycles/104301'
p1720
I1153
sS'rec.motorcycles/104300'
p1721
I1152
sS'rec.motorcycles/104307'
p1722
I1159
sS'rec.motorcycles/104306'
p1723
I1158
sS'rec.motorcycles/104305'
p1724
I1157
sS'rec.motorcycles/104304'
p1725
I1156
sS'rec.motorcycles/104309'
p1726
I1161
sS'rec.motorcycles/104308'
p1727
I1160
sS'comp.graphics/38573'
p1728
I412
sS'comp.graphics/38572'
p1729
I411
sS'comp.graphics/38571'
p1730
I410
sS'comp.graphics/38570'
p1731
I409
sS'comp.graphics/38577'
p1732
I416
sS'comp.graphics/38576'
p1733
I415
sS'comp.graphics/38575'
p1734
I414
sS'comp.graphics/38574'
p1735
I413
sS'comp.graphics/38579'
p1736
I418
sS'comp.graphics/38578'
p1737
I417
sS'rec.motorcycles/105002'
p1738
I1825
sS'rec.motorcycles/105001'
p1739
I1824
sS'rec.motorcycles/105000'
p1740
I1823
sS'comp.graphics/38371'
p1741
I211
sS'comp.graphics/38370'
p1742
I210
sS'comp.graphics/38373'
p1743
I213
sS'comp.graphics/38372'
p1744
I212
sS'comp.graphics/38375'
p1745
I215
sS'comp.graphics/38374'
p1746
I214
sS'comp.graphics/38377'
p1747
I217
sS'comp.graphics/38376'
p1748
I216
sS'comp.graphics/38379'
p1749
I219
sS'comp.graphics/38378'
p1750
I218
sS'comp.graphics/38979'
p1751
I817
sS'comp.graphics/38978'
p1752
I816
sS'comp.graphics/38977'
p1753
I815
sS'comp.graphics/38976'
p1754
I814
sS'comp.graphics/38975'
p1755
I813
sS'comp.graphics/38973'
p1756
I812
sS'comp.graphics/38972'
p1757
I811
sS'comp.graphics/38971'
p1758
I810
sS'comp.graphics/38970'
p1759
I809
sS'rec.motorcycles/104986'
p1760
I1816
sS'rec.motorcycles/104503'
p1761
I1355
sS'comp.graphics/37918'
p1762
I7
sS'comp.graphics/37919'
p1763
I8
sS'comp.graphics/37914'
p1764
I3
sS'comp.graphics/37915'
p1765
I4
sS'comp.graphics/37916'
p1766
I5
sS'comp.graphics/37917'
p1767
I6
sS'comp.graphics/37913'
p1768
I2
sS'comp.graphics/38537'
p1769
I376
sS'comp.graphics/38536'
p1770
I375
sS'rec.motorcycles/104502'
p1771
I1354
sS'comp.graphics/38803'
p1772
I642
sS'comp.graphics/38802'
p1773
I641
sS'comp.graphics/38801'
p1774
I640
sS'comp.graphics/38800'
p1775
I639
sS'rec.motorcycles/103157'
p1776
I1043
sS'comp.graphics/38806'
p1777
I645
sS'comp.graphics/38805'
p1778
I644
sS'rec.motorcycles/103154'
p1779
I1040
sS'rec.motorcycles/104664'
p1780
I1515
sS'rec.motorcycles/104665'
p1781
I1516
sS'rec.motorcycles/103159'
p1782
I1045
sS'comp.graphics/38808'
p1783
I647
sS'rec.motorcycles/104660'
p1784
I1511
sS'rec.motorcycles/104661'
p1785
I1512
sS'rec.motorcycles/104662'
p1786
I1513
sS'rec.motorcycles/104663'
p1787
I1514
sS'comp.graphics/38434'
p1788
I273
sS'comp.graphics/38435'
p1789
I274
sS'rec.motorcycles/104468'
p1790
I1320
sS'rec.motorcycles/104469'
p1791
I1321
sS'rec.motorcycles/104466'
p1792
I1318
sS'rec.motorcycles/104467'
p1793
I1319
sS'rec.motorcycles/104464'
p1794
I1316
sS'rec.motorcycles/104465'
p1795
I1317
sS'rec.motorcycles/104462'
p1796
I1314
sS'rec.motorcycles/104463'
p1797
I1315
sS'rec.motorcycles/104460'
p1798
I1312
sS'rec.motorcycles/104461'
p1799
I1313
sS'rec.motorcycles/104334'
p1800
I1186
sS'rec.motorcycles/104335'
p1801
I1187
sS'comp.graphics/40008'
p1802
I998
sS'rec.motorcycles/104743'
p1803
I1594
sS'rec.motorcycles/104686'
p1804
I1537
sS'rec.motorcycles/104687'
p1805
I1538
sS'rec.motorcycles/104684'
p1806
I1535
sS'rec.motorcycles/104685'
p1807
I1536
sS'rec.motorcycles/104682'
p1808
I1533
sS'rec.motorcycles/104683'
p1809
I1534
sS'rec.motorcycles/104680'
p1810
I1531
sS'rec.motorcycles/104681'
p1811
I1532
sS'rec.motorcycles/104688'
p1812
I1539
sS'rec.motorcycles/104689'
p1813
I1540
sS'rec.motorcycles/104844'
p1814
I1695
sS'rec.motorcycles/104845'
p1815
I1696
sS'rec.motorcycles/104846'
p1816
I1697
sS'rec.motorcycles/104847'
p1817
I1698
sS'rec.motorcycles/104840'
p1818
I1691
sS'rec.motorcycles/104841'
p1819
I1692
sS'rec.motorcycles/104842'
p1820
I1693
sS'rec.motorcycles/104843'
p1821
I1694
sS'rec.motorcycles/104742'
p1822
I1593
sS'rec.motorcycles/104849'
p1823
I1700
sS'comp.graphics/39500'
p1824
I932
sS'comp.graphics/38834'
p1825
I673
sS'rec.motorcycles/105253'
p1826
I1978
sS'rec.motorcycles/105250'
p1827
I1975
sS'rec.motorcycles/105251'
p1828
I1976
sS'rec.motorcycles/105256'
p1829
I1981
sS'rec.motorcycles/105257'
p1830
I1982
sS'comp.graphics/38588'
p1831
I427
sS'comp.graphics/38589'
p1832
I428
sS'comp.graphics/38586'
p1833
I425
sS'comp.graphics/38587'
p1834
I426
sS'comp.graphics/38584'
p1835
I423
sS'comp.graphics/38585'
p1836
I424
sS'comp.graphics/38582'
p1837
I421
sS'comp.graphics/38583'
p1838
I422
sS'comp.graphics/38580'
p1839
I419
sS'comp.graphics/38581'
p1840
I420
sS'rec.motorcycles/104668'
p1841
I1519
sS'rec.motorcycles/105139'
p1842
I1903
sS'rec.motorcycles/105138'
p1843
I1902
sS'comp.graphics/38748'
p1844
I587
sS'comp.graphics/38749'
p1845
I588
sS'comp.graphics/39615'
p1846
I933
sS'comp.graphics/39617'
p1847
I934
sS'comp.graphics/38219'
p1848
I59
sS'comp.graphics/38740'
p1849
I579
sS'comp.graphics/38741'
p1850
I580
sS'comp.graphics/38742'
p1851
I581
sS'comp.graphics/38743'
p1852
I582
sS'comp.graphics/38744'
p1853
I583
sS'comp.graphics/38745'
p1854
I584
sS'comp.graphics/38746'
p1855
I585
sS'comp.graphics/38747'
p1856
I586
sS'rec.motorcycles/105134'
p1857
I1898
sS'rec.motorcycles/105039'
p1858
I1833
sS'rec.motorcycles/104517'
p1859
I1369
sS'rec.motorcycles/104749'
p1860
I1600
sS'rec.motorcycles/103893'
p1861
I1130
sS'comp.graphics/38560'
p1862
I399
sS'comp.graphics/38561'
p1863
I400
sS'comp.graphics/38562'
p1864
I401
sS'comp.graphics/38563'
p1865
I402
sS'comp.graphics/38564'
p1866
I403
sS'comp.graphics/38565'
p1867
I404
sS'comp.graphics/38566'
p1868
I405
sS'comp.graphics/38567'
p1869
I406
sS'comp.graphics/38568'
p1870
I407
sS'comp.graphics/38569'
p1871
I408
sS'rec.motorcycles/105077'
p1872
I1855
sS'comp.graphics/38366'
p1873
I206
sS'comp.graphics/38367'
p1874
I207
sS'comp.graphics/38364'
p1875
I204
sS'comp.graphics/38365'
p1876
I205
sS'comp.graphics/38362'
p1877
I202
sS'comp.graphics/38363'
p1878
I203
sS'comp.graphics/38360'
p1879
I200
sS'comp.graphics/38361'
p1880
I201
sS'comp.graphics/38368'
p1881
I208
sS'comp.graphics/38369'
p1882
I209
sS'comp.graphics/38968'
p1883
I807
sS'comp.graphics/38969'
p1884
I808
sS'comp.graphics/38964'
p1885
I803
sS'comp.graphics/38965'
p1886
I804
sS'comp.graphics/38966'
p1887
I805
sS'comp.graphics/38967'
p1888
I806
sS'comp.graphics/38960'
p1889
I799
sS'comp.graphics/38961'
p1890
I800
sS'comp.graphics/38962'
p1891
I801
sS'comp.graphics/38963'
p1892
I802
sS'rec.motorcycles/104666'
p1893
I1517
sS'rec.motorcycles/104748'
p1894
I1599
sS'rec.motorcycles/105106'
p1895
I1870
sS'rec.motorcycles/105107'
p1896
I1871
sS'rec.motorcycles/105104'
p1897
I1868
sS'rec.motorcycles/105105'
p1898
I1869
sS'rec.motorcycles/105102'
p1899
I1866
sS'comp.graphics/38849'
p1900
I688
sS'rec.motorcycles/105100'
p1901
I1864
sS'rec.motorcycles/105101'
p1902
I1865
sS'rec.motorcycles/104425'
p1903
I1277
sS'rec.motorcycles/105108'
p1904
I1872
sS'rec.motorcycles/105065'
p1905
I1851
sS'comp.graphics/37921'
p1906
I10
sS'comp.graphics/37920'
p1907
I9
sS'rec.motorcycles/104514'
p1908
I1366
sS'comp.graphics/37922'
p1909
I11
sS'rec.motorcycles/104512'
p1910
I1364
sS'rec.motorcycles/104513'
p1911
I1365
sS'rec.motorcycles/104510'
p1912
I1362
sS'rec.motorcycles/104511'
p1913
I1363
sS'comp.graphics/37929'
p1914
I18
sS'comp.graphics/37928'
p1915
I17
sS'rec.motorcycles/105148'
p1916
I1912
sS'rec.motorcycles/104428'
p1917
I1280
sS'rec.motorcycles/104518'
p1918
I1370
sS'rec.motorcycles/104519'
p1919
I1371
sS'comp.graphics/38810'
p1920
I649
sS'comp.graphics/38811'
p1921
I650
sS'comp.graphics/38812'
p1922
I651
sS'comp.graphics/38813'
p1923
I652
sS'comp.graphics/38814'
p1924
I653
sS'comp.graphics/38815'
p1925
I654
sS'comp.graphics/38816'
p1926
I655
sS'comp.graphics/38817'
p1927
I656
sS'comp.graphics/38818'
p1928
I657
sS'comp.graphics/38819'
p1929
I658
sS'rec.motorcycles/104671'
p1930
I1522
sS'rec.motorcycles/104670'
p1931
I1521
sS'rec.motorcycles/104677'
p1932
I1528
sS'rec.motorcycles/104676'
p1933
I1527
sS'rec.motorcycles/104675'
p1934
I1526
sS'rec.motorcycles/104674'
p1935
I1525
sS'rec.motorcycles/104479'
p1936
I1331
sS'rec.motorcycles/104478'
p1937
I1330
sS'rec.motorcycles/104475'
p1938
I1327
sS'rec.motorcycles/104474'
p1939
I1326
sS'rec.motorcycles/104477'
p1940
I1329
sS'rec.motorcycles/104476'
p1941
I1328
sS'rec.motorcycles/104471'
p1942
I1323
sS'rec.motorcycles/104470'
p1943
I1322
sS'rec.motorcycles/104473'
p1944
I1325
sS'rec.motorcycles/104472'
p1945
I1324
sS'rec.motorcycles/104695'
p1946
I1546
sS'rec.motorcycles/104694'
p1947
I1545
sS'rec.motorcycles/104697'
p1948
I1548
sS'rec.motorcycles/104696'
p1949
I1547
sS'rec.motorcycles/104691'
p1950
I1542
sS'rec.motorcycles/104690'
p1951
I1541
sS'rec.motorcycles/104693'
p1952
I1544
sS'rec.motorcycles/104692'
p1953
I1543
sS'rec.motorcycles/104699'
p1954
I1550
sS'rec.motorcycles/104698'
p1955
I1549
sS'rec.motorcycles/104853'
p1956
I1704
sS'rec.motorcycles/104852'
p1957
I1703
sS'rec.motorcycles/104851'
p1958
I1702
sS'rec.motorcycles/104850'
p1959
I1701
sS'rec.motorcycles/104857'
p1960
I1708
sS'rec.motorcycles/104856'
p1961
I1707
sS'rec.motorcycles/104855'
p1962
I1706
sS'rec.motorcycles/104854'
p1963
I1705
sS'rec.motorcycles/104859'
p1964
I1710
sS'rec.motorcycles/104858'
p1965
I1709
sS'comp.graphics/38278'
p1966
I118
sS'comp.graphics/38279'
p1967
I119
sS'rec.motorcycles/104756'
p1968
I1607
sS'rec.motorcycles/104757'
p1969
I1608
sS'rec.motorcycles/105241'
p1970
I1966
sS'rec.motorcycles/105240'
p1971
I1965
sS'rec.motorcycles/105243'
p1972
I1968
sS'rec.motorcycles/105242'
p1973
I1967
sS'rec.motorcycles/105245'
p1974
I1970
sS'rec.motorcycles/105244'
p1975
I1969
sS'rec.motorcycles/105247'
p1976
I1972
sS'rec.motorcycles/105246'
p1977
I1971
sS'rec.motorcycles/105249'
p1978
I1974
sS'rec.motorcycles/105248'
p1979
I1973
sS'rec.motorcycles/104632'
p1980
I1483
sS'comp.graphics/38779'
p1981
I618
sS'comp.graphics/38778'
p1982
I617
sS'comp.graphics/38775'
p1983
I614
sS'comp.graphics/38774'
p1984
I613
sS'comp.graphics/38777'
p1985
I616
sS'comp.graphics/38776'
p1986
I615
sS'comp.graphics/38771'
p1987
I610
sS'comp.graphics/38770'
p1988
I609
sS'comp.graphics/38773'
p1989
I612
sS'comp.graphics/38772'
p1990
I611
sS'comp.graphics/38487'
p1991
I326
sS'comp.graphics/38486'
p1992
I325
sS'comp.graphics/38485'
p1993
I324
sS'comp.graphics/38484'
p1994
I323
sS'comp.graphics/38483'
p1995
I322
sS'comp.graphics/38482'
p1996
I321
sS'comp.graphics/38481'
p1997
I320
sS'comp.graphics/38480'
p1998
I319
sS'comp.graphics/38489'
p1999
I328
sS'comp.graphics/38488'
p2000
I327
s.