(dp0
I0
S'rec.sport.hockey/52550'
p1
sI1
S'rec.sport.hockey/52551'
p2
sI2
S'rec.sport.hockey/52552'
p3
sI3
S'rec.sport.hockey/52553'
p4
sI4
S'rec.sport.hockey/52554'
p5
sI5
S'rec.sport.hockey/52555'
p6
sI6
S'rec.sport.hockey/52556'
p7
sI7
S'rec.sport.hockey/52557'
p8
sI8
S'rec.sport.hockey/52558'
p9
sI9
S'rec.sport.hockey/52559'
p10
sI10
S'rec.sport.hockey/52560'
p11
sI11
S'rec.sport.hockey/52561'
p12
sI12
S'rec.sport.hockey/52562'
p13
sI13
S'rec.sport.hockey/52563'
p14
sI14
S'rec.sport.hockey/52564'
p15
sI15
S'rec.sport.hockey/52565'
p16
sI16
S'rec.sport.hockey/52566'
p17
sI17
S'rec.sport.hockey/52567'
p18
sI18
S'rec.sport.hockey/52568'
p19
sI19
S'rec.sport.hockey/52569'
p20
sI20
S'rec.sport.hockey/52570'
p21
sI21
S'rec.sport.hockey/52571'
p22
sI22
S'rec.sport.hockey/52572'
p23
sI23
S'rec.sport.hockey/52573'
p24
sI24
S'rec.sport.hockey/52574'
p25
sI25
S'rec.sport.hockey/52575'
p26
sI26
S'rec.sport.hockey/52576'
p27
sI27
S'rec.sport.hockey/52577'
p28
sI28
S'rec.sport.hockey/52578'
p29
sI29
S'rec.sport.hockey/52579'
p30
sI30
S'rec.sport.hockey/52580'
p31
sI31
S'rec.sport.hockey/52581'
p32
sI32
S'rec.sport.hockey/52582'
p33
sI33
S'rec.sport.hockey/52583'
p34
sI34
S'rec.sport.hockey/52584'
p35
sI35
S'rec.sport.hockey/52585'
p36
sI36
S'rec.sport.hockey/52586'
p37
sI37
S'rec.sport.hockey/52587'
p38
sI38
S'rec.sport.hockey/52588'
p39
sI39
S'rec.sport.hockey/52589'
p40
sI40
S'rec.sport.hockey/52590'
p41
sI41
S'rec.sport.hockey/52591'
p42
sI42
S'rec.sport.hockey/52592'
p43
sI43
S'rec.sport.hockey/52593'
p44
sI44
S'rec.sport.hockey/52594'
p45
sI45
S'rec.sport.hockey/52595'
p46
sI46
S'rec.sport.hockey/52596'
p47
sI47
S'rec.sport.hockey/52597'
p48
sI48
S'rec.sport.hockey/52598'
p49
sI49
S'rec.sport.hockey/52599'
p50
sI50
S'rec.sport.hockey/52600'
p51
sI51
S'rec.sport.hockey/52601'
p52
sI52
S'rec.sport.hockey/52602'
p53
sI53
S'rec.sport.hockey/52603'
p54
sI54
S'rec.sport.hockey/52604'
p55
sI55
S'rec.sport.hockey/52605'
p56
sI56
S'rec.sport.hockey/52606'
p57
sI57
S'rec.sport.hockey/52607'
p58
sI58
S'rec.sport.hockey/52608'
p59
sI59
S'rec.sport.hockey/52609'
p60
sI60
S'rec.sport.hockey/52610'
p61
sI61
S'rec.sport.hockey/52611'
p62
sI62
S'rec.sport.hockey/52612'
p63
sI63
S'rec.sport.hockey/52613'
p64
sI64
S'rec.sport.hockey/52614'
p65
sI65
S'rec.sport.hockey/52615'
p66
sI66
S'rec.sport.hockey/52616'
p67
sI67
S'rec.sport.hockey/52617'
p68
sI68
S'rec.sport.hockey/52618'
p69
sI69
S'rec.sport.hockey/52619'
p70
sI70
S'rec.sport.hockey/52620'
p71
sI71
S'rec.sport.hockey/52621'
p72
sI72
S'rec.sport.hockey/52622'
p73
sI73
S'rec.sport.hockey/52623'
p74
sI74
S'rec.sport.hockey/52624'
p75
sI75
S'rec.sport.hockey/52625'
p76
sI76
S'rec.sport.hockey/52626'
p77
sI77
S'rec.sport.hockey/52627'
p78
sI78
S'rec.sport.hockey/52628'
p79
sI79
S'rec.sport.hockey/52629'
p80
sI80
S'rec.sport.hockey/52630'
p81
sI81
S'rec.sport.hockey/52631'
p82
sI82
S'rec.sport.hockey/52632'
p83
sI83
S'rec.sport.hockey/52633'
p84
sI84
S'rec.sport.hockey/52634'
p85
sI85
S'rec.sport.hockey/52635'
p86
sI86
S'rec.sport.hockey/52636'
p87
sI87
S'rec.sport.hockey/52637'
p88
sI88
S'rec.sport.hockey/52638'
p89
sI89
S'rec.sport.hockey/52639'
p90
sI90
S'rec.sport.hockey/52640'
p91
sI91
S'rec.sport.hockey/52641'
p92
sI92
S'rec.sport.hockey/52642'
p93
sI93
S'rec.sport.hockey/52643'
p94
sI94
S'rec.sport.hockey/52644'
p95
sI95
S'rec.sport.hockey/52645'
p96
sI96
S'rec.sport.hockey/52646'
p97
sI97
S'rec.sport.hockey/52647'
p98
sI98
S'rec.sport.hockey/52648'
p99
sI99
S'rec.sport.hockey/52649'
p100
sI100
S'rec.sport.hockey/52650'
p101
sI101
S'rec.sport.hockey/52651'
p102
sI102
S'rec.sport.hockey/52652'
p103
sI103
S'rec.sport.hockey/52653'
p104
sI104
S'rec.sport.hockey/52654'
p105
sI105
S'rec.sport.hockey/52655'
p106
sI106
S'rec.sport.hockey/52656'
p107
sI107
S'rec.sport.hockey/52657'
p108
sI108
S'rec.sport.hockey/52658'
p109
sI109
S'rec.sport.hockey/52659'
p110
sI110
S'rec.sport.hockey/52660'
p111
sI111
S'rec.sport.hockey/52661'
p112
sI112
S'rec.sport.hockey/52662'
p113
sI113
S'rec.sport.hockey/52663'
p114
sI114
S'rec.sport.hockey/52664'
p115
sI115
S'rec.sport.hockey/52665'
p116
sI116
S'rec.sport.hockey/52666'
p117
sI117
S'rec.sport.hockey/52667'
p118
sI118
S'rec.sport.hockey/52668'
p119
sI119
S'rec.sport.hockey/52669'
p120
sI120
S'rec.sport.hockey/53468'
p121
sI121
S'rec.sport.hockey/53521'
p122
sI122
S'rec.sport.hockey/53522'
p123
sI123
S'rec.sport.hockey/53523'
p124
sI124
S'rec.sport.hockey/53524'
p125
sI125
S'rec.sport.hockey/53525'
p126
sI126
S'rec.sport.hockey/53526'
p127
sI127
S'rec.sport.hockey/53527'
p128
sI128
S'rec.sport.hockey/53528'
p129
sI129
S'rec.sport.hockey/53529'
p130
sI130
S'rec.sport.hockey/53530'
p131
sI131
S'rec.sport.hockey/53531'
p132
sI132
S'rec.sport.hockey/53532'
p133
sI133
S'rec.sport.hockey/53533'
p134
sI134
S'rec.sport.hockey/53534'
p135
sI135
S'rec.sport.hockey/53535'
p136
sI136
S'rec.sport.hockey/53536'
p137
sI137
S'rec.sport.hockey/53537'
p138
sI138
S'rec.sport.hockey/53538'
p139
sI139
S'rec.sport.hockey/53539'
p140
sI140
S'rec.sport.hockey/53540'
p141
sI141
S'rec.sport.hockey/53541'
p142
sI142
S'rec.sport.hockey/53542'
p143
sI143
S'rec.sport.hockey/53543'
p144
sI144
S'rec.sport.hockey/53544'
p145
sI145
S'rec.sport.hockey/53545'
p146
sI146
S'rec.sport.hockey/53546'
p147
sI147
S'rec.sport.hockey/53547'
p148
sI148
S'rec.sport.hockey/53548'
p149
sI149
S'rec.sport.hockey/53549'
p150
sI150
S'rec.sport.hockey/53550'
p151
sI151
S'rec.sport.hockey/53551'
p152
sI152
S'rec.sport.hockey/53552'
p153
sI153
S'rec.sport.hockey/53553'
p154
sI154
S'rec.sport.hockey/53554'
p155
sI155
S'rec.sport.hockey/53555'
p156
sI156
S'rec.sport.hockey/53556'
p157
sI157
S'rec.sport.hockey/53557'
p158
sI158
S'rec.sport.hockey/53558'
p159
sI159
S'rec.sport.hockey/53559'
p160
sI160
S'rec.sport.hockey/53560'
p161
sI161
S'rec.sport.hockey/53561'
p162
sI162
S'rec.sport.hockey/53562'
p163
sI163
S'rec.sport.hockey/53563'
p164
sI164
S'rec.sport.hockey/53564'
p165
sI165
S'rec.sport.hockey/53565'
p166
sI166
S'rec.sport.hockey/53566'
p167
sI167
S'rec.sport.hockey/53567'
p168
sI168
S'rec.sport.hockey/53568'
p169
sI169
S'rec.sport.hockey/53569'
p170
sI170
S'rec.sport.hockey/53570'
p171
sI171
S'rec.sport.hockey/53571'
p172
sI172
S'rec.sport.hockey/53572'
p173
sI173
S'rec.sport.hockey/53573'
p174
sI174
S'rec.sport.hockey/53574'
p175
sI175
S'rec.sport.hockey/53575'
p176
sI176
S'rec.sport.hockey/53576'
p177
sI177
S'rec.sport.hockey/53577'
p178
sI178
S'rec.sport.hockey/53578'
p179
sI179
S'rec.sport.hockey/53579'
p180
sI180
S'rec.sport.hockey/53580'
p181
sI181
S'rec.sport.hockey/53581'
p182
sI182
S'rec.sport.hockey/53582'
p183
sI183
S'rec.sport.hockey/53583'
p184
sI184
S'rec.sport.hockey/53584'
p185
sI185
S'rec.sport.hockey/53585'
p186
sI186
S'rec.sport.hockey/53586'
p187
sI187
S'rec.sport.hockey/53587'
p188
sI188
S'rec.sport.hockey/53588'
p189
sI189
S'rec.sport.hockey/53589'
p190
sI190
S'rec.sport.hockey/53590'
p191
sI191
S'rec.sport.hockey/53591'
p192
sI192
S'rec.sport.hockey/53592'
p193
sI193
S'rec.sport.hockey/53593'
p194
sI194
S'rec.sport.hockey/53594'
p195
sI195
S'rec.sport.hockey/53595'
p196
sI196
S'rec.sport.hockey/53596'
p197
sI197
S'rec.sport.hockey/53597'
p198
sI198
S'rec.sport.hockey/53598'
p199
sI199
S'rec.sport.hockey/53599'
p200
sI200
S'rec.sport.hockey/53600'
p201
sI201
S'rec.sport.hockey/53601'
p202
sI202
S'rec.sport.hockey/53602'
p203
sI203
S'rec.sport.hockey/53603'
p204
sI204
S'rec.sport.hockey/53604'
p205
sI205
S'rec.sport.hockey/53605'
p206
sI206
S'rec.sport.hockey/53606'
p207
sI207
S'rec.sport.hockey/53607'
p208
sI208
S'rec.sport.hockey/53608'
p209
sI209
S'rec.sport.hockey/53609'
p210
sI210
S'rec.sport.hockey/53610'
p211
sI211
S'rec.sport.hockey/53611'
p212
sI212
S'rec.sport.hockey/53612'
p213
sI213
S'rec.sport.hockey/53613'
p214
sI214
S'rec.sport.hockey/53614'
p215
sI215
S'rec.sport.hockey/53615'
p216
sI216
S'rec.sport.hockey/53616'
p217
sI217
S'rec.sport.hockey/53617'
p218
sI218
S'rec.sport.hockey/53618'
p219
sI219
S'rec.sport.hockey/53619'
p220
sI220
S'rec.sport.hockey/53620'
p221
sI221
S'rec.sport.hockey/53621'
p222
sI222
S'rec.sport.hockey/53622'
p223
sI223
S'rec.sport.hockey/53623'
p224
sI224
S'rec.sport.hockey/53624'
p225
sI225
S'rec.sport.hockey/53625'
p226
sI226
S'rec.sport.hockey/53626'
p227
sI227
S'rec.sport.hockey/53627'
p228
sI228
S'rec.sport.hockey/53628'
p229
sI229
S'rec.sport.hockey/53629'
p230
sI230
S'rec.sport.hockey/53630'
p231
sI231
S'rec.sport.hockey/53631'
p232
sI232
S'rec.sport.hockey/53632'
p233
sI233
S'rec.sport.hockey/53633'
p234
sI234
S'rec.sport.hockey/53634'
p235
sI235
S'rec.sport.hockey/53635'
p236
sI236
S'rec.sport.hockey/53636'
p237
sI237
S'rec.sport.hockey/53637'
p238
sI238
S'rec.sport.hockey/53638'
p239
sI239
S'rec.sport.hockey/53639'
p240
sI240
S'rec.sport.hockey/53640'
p241
sI241
S'rec.sport.hockey/53641'
p242
sI242
S'rec.sport.hockey/53642'
p243
sI243
S'rec.sport.hockey/53643'
p244
sI244
S'rec.sport.hockey/53644'
p245
sI245
S'rec.sport.hockey/53645'
p246
sI246
S'rec.sport.hockey/53646'
p247
sI247
S'rec.sport.hockey/53647'
p248
sI248
S'rec.sport.hockey/53648'
p249
sI249
S'rec.sport.hockey/53649'
p250
sI250
S'rec.sport.hockey/53650'
p251
sI251
S'rec.sport.hockey/53651'
p252
sI252
S'rec.sport.hockey/53652'
p253
sI253
S'rec.sport.hockey/53653'
p254
sI254
S'rec.sport.hockey/53654'
p255
sI255
S'rec.sport.hockey/53655'
p256
sI256
S'rec.sport.hockey/53656'
p257
sI257
S'rec.sport.hockey/53657'
p258
sI258
S'rec.sport.hockey/53658'
p259
sI259
S'rec.sport.hockey/53659'
p260
sI260
S'rec.sport.hockey/53660'
p261
sI261
S'rec.sport.hockey/53661'
p262
sI262
S'rec.sport.hockey/53662'
p263
sI263
S'rec.sport.hockey/53663'
p264
sI264
S'rec.sport.hockey/53664'
p265
sI265
S'rec.sport.hockey/53665'
p266
sI266
S'rec.sport.hockey/53666'
p267
sI267
S'rec.sport.hockey/53667'
p268
sI268
S'rec.sport.hockey/53668'
p269
sI269
S'rec.sport.hockey/53669'
p270
sI270
S'rec.sport.hockey/53670'
p271
sI271
S'rec.sport.hockey/53671'
p272
sI272
S'rec.sport.hockey/53672'
p273
sI273
S'rec.sport.hockey/53673'
p274
sI274
S'rec.sport.hockey/53674'
p275
sI275
S'rec.sport.hockey/53675'
p276
sI276
S'rec.sport.hockey/53676'
p277
sI277
S'rec.sport.hockey/53677'
p278
sI278
S'rec.sport.hockey/53678'
p279
sI279
S'rec.sport.hockey/53679'
p280
sI280
S'rec.sport.hockey/53680'
p281
sI281
S'rec.sport.hockey/53681'
p282
sI282
S'rec.sport.hockey/53682'
p283
sI283
S'rec.sport.hockey/53683'
p284
sI284
S'rec.sport.hockey/53684'
p285
sI285
S'rec.sport.hockey/53685'
p286
sI286
S'rec.sport.hockey/53686'
p287
sI287
S'rec.sport.hockey/53687'
p288
sI288
S'rec.sport.hockey/53688'
p289
sI289
S'rec.sport.hockey/53689'
p290
sI290
S'rec.sport.hockey/53690'
p291
sI291
S'rec.sport.hockey/53691'
p292
sI292
S'rec.sport.hockey/53692'
p293
sI293
S'rec.sport.hockey/53693'
p294
sI294
S'rec.sport.hockey/53694'
p295
sI295
S'rec.sport.hockey/53695'
p296
sI296
S'rec.sport.hockey/53696'
p297
sI297
S'rec.sport.hockey/53697'
p298
sI298
S'rec.sport.hockey/53698'
p299
sI299
S'rec.sport.hockey/53699'
p300
sI300
S'rec.sport.hockey/53700'
p301
sI301
S'rec.sport.hockey/53701'
p302
sI302
S'rec.sport.hockey/53702'
p303
sI303
S'rec.sport.hockey/53703'
p304
sI304
S'rec.sport.hockey/53704'
p305
sI305
S'rec.sport.hockey/53705'
p306
sI306
S'rec.sport.hockey/53706'
p307
sI307
S'rec.sport.hockey/53707'
p308
sI308
S'rec.sport.hockey/53708'
p309
sI309
S'rec.sport.hockey/53709'
p310
sI310
S'rec.sport.hockey/53710'
p311
sI311
S'rec.sport.hockey/53711'
p312
sI312
S'rec.sport.hockey/53712'
p313
sI313
S'rec.sport.hockey/53713'
p314
sI314
S'rec.sport.hockey/53714'
p315
sI315
S'rec.sport.hockey/53715'
p316
sI316
S'rec.sport.hockey/53716'
p317
sI317
S'rec.sport.hockey/53717'
p318
sI318
S'rec.sport.hockey/53718'
p319
sI319
S'rec.sport.hockey/53719'
p320
sI320
S'rec.sport.hockey/53720'
p321
sI321
S'rec.sport.hockey/53721'
p322
sI322
S'rec.sport.hockey/53722'
p323
sI323
S'rec.sport.hockey/53723'
p324
sI324
S'rec.sport.hockey/53724'
p325
sI325
S'rec.sport.hockey/53725'
p326
sI326
S'rec.sport.hockey/53726'
p327
sI327
S'rec.sport.hockey/53727'
p328
sI328
S'rec.sport.hockey/53728'
p329
sI329
S'rec.sport.hockey/53729'
p330
sI330
S'rec.sport.hockey/53730'
p331
sI331
S'rec.sport.hockey/53731'
p332
sI332
S'rec.sport.hockey/53732'
p333
sI333
S'rec.sport.hockey/53733'
p334
sI334
S'rec.sport.hockey/53734'
p335
sI335
S'rec.sport.hockey/53735'
p336
sI336
S'rec.sport.hockey/53736'
p337
sI337
S'rec.sport.hockey/53737'
p338
sI338
S'rec.sport.hockey/53738'
p339
sI339
S'rec.sport.hockey/53739'
p340
sI340
S'rec.sport.hockey/53740'
p341
sI341
S'rec.sport.hockey/53741'
p342
sI342
S'rec.sport.hockey/53742'
p343
sI343
S'rec.sport.hockey/53743'
p344
sI344
S'rec.sport.hockey/53744'
p345
sI345
S'rec.sport.hockey/53745'
p346
sI346
S'rec.sport.hockey/53746'
p347
sI347
S'rec.sport.hockey/53747'
p348
sI348
S'rec.sport.hockey/53748'
p349
sI349
S'rec.sport.hockey/53749'
p350
sI350
S'rec.sport.hockey/53750'
p351
sI351
S'rec.sport.hockey/53751'
p352
sI352
S'rec.sport.hockey/53752'
p353
sI353
S'rec.sport.hockey/53753'
p354
sI354
S'rec.sport.hockey/53754'
p355
sI355
S'rec.sport.hockey/53755'
p356
sI356
S'rec.sport.hockey/53756'
p357
sI357
S'rec.sport.hockey/53757'
p358
sI358
S'rec.sport.hockey/53758'
p359
sI359
S'rec.sport.hockey/53759'
p360
sI360
S'rec.sport.hockey/53760'
p361
sI361
S'rec.sport.hockey/53761'
p362
sI362
S'rec.sport.hockey/53762'
p363
sI363
S'rec.sport.hockey/53763'
p364
sI364
S'rec.sport.hockey/53764'
p365
sI365
S'rec.sport.hockey/53765'
p366
sI366
S'rec.sport.hockey/53766'
p367
sI367
S'rec.sport.hockey/53767'
p368
sI368
S'rec.sport.hockey/53768'
p369
sI369
S'rec.sport.hockey/53769'
p370
sI370
S'rec.sport.hockey/53770'
p371
sI371
S'rec.sport.hockey/53771'
p372
sI372
S'rec.sport.hockey/53772'
p373
sI373
S'rec.sport.hockey/53773'
p374
sI374
S'rec.sport.hockey/53774'
p375
sI375
S'rec.sport.hockey/53775'
p376
sI376
S'rec.sport.hockey/53776'
p377
sI377
S'rec.sport.hockey/53777'
p378
sI378
S'rec.sport.hockey/53778'
p379
sI379
S'rec.sport.hockey/53779'
p380
sI380
S'rec.sport.hockey/53780'
p381
sI381
S'rec.sport.hockey/53781'
p382
sI382
S'rec.sport.hockey/53782'
p383
sI383
S'rec.sport.hockey/53783'
p384
sI384
S'rec.sport.hockey/53784'
p385
sI385
S'rec.sport.hockey/53785'
p386
sI386
S'rec.sport.hockey/53786'
p387
sI387
S'rec.sport.hockey/53787'
p388
sI388
S'rec.sport.hockey/53788'
p389
sI389
S'rec.sport.hockey/53789'
p390
sI390
S'rec.sport.hockey/53790'
p391
sI391
S'rec.sport.hockey/53791'
p392
sI392
S'rec.sport.hockey/53792'
p393
sI393
S'rec.sport.hockey/53793'
p394
sI394
S'rec.sport.hockey/53794'
p395
sI395
S'rec.sport.hockey/53795'
p396
sI396
S'rec.sport.hockey/53796'
p397
sI397
S'rec.sport.hockey/53797'
p398
sI398
S'rec.sport.hockey/53798'
p399
sI399
S'rec.sport.hockey/53799'
p400
sI400
S'rec.sport.hockey/53800'
p401
sI401
S'rec.sport.hockey/53801'
p402
sI402
S'rec.sport.hockey/53802'
p403
sI403
S'rec.sport.hockey/53803'
p404
sI404
S'rec.sport.hockey/53804'
p405
sI405
S'rec.sport.hockey/53805'
p406
sI406
S'rec.sport.hockey/53806'
p407
sI407
S'rec.sport.hockey/53807'
p408
sI408
S'rec.sport.hockey/53808'
p409
sI409
S'rec.sport.hockey/53809'
p410
sI410
S'rec.sport.hockey/53810'
p411
sI411
S'rec.sport.hockey/53811'
p412
sI412
S'rec.sport.hockey/53812'
p413
sI413
S'rec.sport.hockey/53813'
p414
sI414
S'rec.sport.hockey/53814'
p415
sI415
S'rec.sport.hockey/53815'
p416
sI416
S'rec.sport.hockey/53816'
p417
sI417
S'rec.sport.hockey/53817'
p418
sI418
S'rec.sport.hockey/53818'
p419
sI419
S'rec.sport.hockey/53819'
p420
sI420
S'rec.sport.hockey/53820'
p421
sI421
S'rec.sport.hockey/53821'
p422
sI422
S'rec.sport.hockey/53822'
p423
sI423
S'rec.sport.hockey/53823'
p424
sI424
S'rec.sport.hockey/53824'
p425
sI425
S'rec.sport.hockey/53825'
p426
sI426
S'rec.sport.hockey/53826'
p427
sI427
S'rec.sport.hockey/53827'
p428
sI428
S'rec.sport.hockey/53828'
p429
sI429
S'rec.sport.hockey/53829'
p430
sI430
S'rec.sport.hockey/53830'
p431
sI431
S'rec.sport.hockey/53831'
p432
sI432
S'rec.sport.hockey/53832'
p433
sI433
S'rec.sport.hockey/53833'
p434
sI434
S'rec.sport.hockey/53834'
p435
sI435
S'rec.sport.hockey/53835'
p436
sI436
S'rec.sport.hockey/53836'
p437
sI437
S'rec.sport.hockey/53837'
p438
sI438
S'rec.sport.hockey/53838'
p439
sI439
S'rec.sport.hockey/53839'
p440
sI440
S'rec.sport.hockey/53840'
p441
sI441
S'rec.sport.hockey/53841'
p442
sI442
S'rec.sport.hockey/53842'
p443
sI443
S'rec.sport.hockey/53843'
p444
sI444
S'rec.sport.hockey/53844'
p445
sI445
S'rec.sport.hockey/53845'
p446
sI446
S'rec.sport.hockey/53846'
p447
sI447
S'rec.sport.hockey/53847'
p448
sI448
S'rec.sport.hockey/53848'
p449
sI449
S'rec.sport.hockey/53849'
p450
sI450
S'rec.sport.hockey/53850'
p451
sI451
S'rec.sport.hockey/53851'
p452
sI452
S'rec.sport.hockey/53852'
p453
sI453
S'rec.sport.hockey/53853'
p454
sI454
S'rec.sport.hockey/53854'
p455
sI455
S'rec.sport.hockey/53855'
p456
sI456
S'rec.sport.hockey/53856'
p457
sI457
S'rec.sport.hockey/53857'
p458
sI458
S'rec.sport.hockey/53858'
p459
sI459
S'rec.sport.hockey/53859'
p460
sI460
S'rec.sport.hockey/53860'
p461
sI461
S'rec.sport.hockey/53861'
p462
sI462
S'rec.sport.hockey/53862'
p463
sI463
S'rec.sport.hockey/53863'
p464
sI464
S'rec.sport.hockey/53864'
p465
sI465
S'rec.sport.hockey/53865'
p466
sI466
S'rec.sport.hockey/53866'
p467
sI467
S'rec.sport.hockey/53867'
p468
sI468
S'rec.sport.hockey/53868'
p469
sI469
S'rec.sport.hockey/53869'
p470
sI470
S'rec.sport.hockey/53870'
p471
sI471
S'rec.sport.hockey/53871'
p472
sI472
S'rec.sport.hockey/53872'
p473
sI473
S'rec.sport.hockey/53873'
p474
sI474
S'rec.sport.hockey/53874'
p475
sI475
S'rec.sport.hockey/53875'
p476
sI476
S'rec.sport.hockey/53876'
p477
sI477
S'rec.sport.hockey/53877'
p478
sI478
S'rec.sport.hockey/53878'
p479
sI479
S'rec.sport.hockey/53879'
p480
sI480
S'rec.sport.hockey/53880'
p481
sI481
S'rec.sport.hockey/53881'
p482
sI482
S'rec.sport.hockey/53882'
p483
sI483
S'rec.sport.hockey/53883'
p484
sI484
S'rec.sport.hockey/53884'
p485
sI485
S'rec.sport.hockey/53885'
p486
sI486
S'rec.sport.hockey/53886'
p487
sI487
S'rec.sport.hockey/53887'
p488
sI488
S'rec.sport.hockey/53888'
p489
sI489
S'rec.sport.hockey/53889'
p490
sI490
S'rec.sport.hockey/53890'
p491
sI491
S'rec.sport.hockey/53891'
p492
sI492
S'rec.sport.hockey/53892'
p493
sI493
S'rec.sport.hockey/53893'
p494
sI494
S'rec.sport.hockey/53894'
p495
sI495
S'rec.sport.hockey/53895'
p496
sI496
S'rec.sport.hockey/53896'
p497
sI497
S'rec.sport.hockey/53897'
p498
sI498
S'rec.sport.hockey/53898'
p499
sI499
S'rec.sport.hockey/53899'
p500
sI500
S'rec.sport.hockey/53900'
p501
sI501
S'rec.sport.hockey/53901'
p502
sI502
S'rec.sport.hockey/53902'
p503
sI503
S'rec.sport.hockey/53903'
p504
sI504
S'rec.sport.hockey/53904'
p505
sI505
S'rec.sport.hockey/53905'
p506
sI506
S'rec.sport.hockey/53906'
p507
sI507
S'rec.sport.hockey/53907'
p508
sI508
S'rec.sport.hockey/53908'
p509
sI509
S'rec.sport.hockey/53909'
p510
sI510
S'rec.sport.hockey/53910'
p511
sI511
S'rec.sport.hockey/53911'
p512
sI512
S'rec.sport.hockey/53912'
p513
sI513
S'rec.sport.hockey/53913'
p514
sI514
S'rec.sport.hockey/53914'
p515
sI515
S'rec.sport.hockey/53915'
p516
sI516
S'rec.sport.hockey/53916'
p517
sI517
S'rec.sport.hockey/53917'
p518
sI518
S'rec.sport.hockey/53918'
p519
sI519
S'rec.sport.hockey/53919'
p520
sI520
S'rec.sport.hockey/53920'
p521
sI521
S'rec.sport.hockey/53921'
p522
sI522
S'rec.sport.hockey/53922'
p523
sI523
S'rec.sport.hockey/53923'
p524
sI524
S'rec.sport.hockey/53924'
p525
sI525
S'rec.sport.hockey/53925'
p526
sI526
S'rec.sport.hockey/53926'
p527
sI527
S'rec.sport.hockey/53927'
p528
sI528
S'rec.sport.hockey/53928'
p529
sI529
S'rec.sport.hockey/53929'
p530
sI530
S'rec.sport.hockey/53930'
p531
sI531
S'rec.sport.hockey/53931'
p532
sI532
S'rec.sport.hockey/53932'
p533
sI533
S'rec.sport.hockey/53933'
p534
sI534
S'rec.sport.hockey/53934'
p535
sI535
S'rec.sport.hockey/53935'
p536
sI536
S'rec.sport.hockey/53936'
p537
sI537
S'rec.sport.hockey/53937'
p538
sI538
S'rec.sport.hockey/53938'
p539
sI539
S'rec.sport.hockey/53939'
p540
sI540
S'rec.sport.hockey/53940'
p541
sI541
S'rec.sport.hockey/53941'
p542
sI542
S'rec.sport.hockey/53942'
p543
sI543
S'rec.sport.hockey/53943'
p544
sI544
S'rec.sport.hockey/53944'
p545
sI545
S'rec.sport.hockey/53945'
p546
sI546
S'rec.sport.hockey/53946'
p547
sI547
S'rec.sport.hockey/53947'
p548
sI548
S'rec.sport.hockey/53948'
p549
sI549
S'rec.sport.hockey/53949'
p550
sI550
S'rec.sport.hockey/53950'
p551
sI551
S'rec.sport.hockey/53951'
p552
sI552
S'rec.sport.hockey/53952'
p553
sI553
S'rec.sport.hockey/53953'
p554
sI554
S'rec.sport.hockey/53954'
p555
sI555
S'rec.sport.hockey/53955'
p556
sI556
S'rec.sport.hockey/53956'
p557
sI557
S'rec.sport.hockey/53957'
p558
sI558
S'rec.sport.hockey/53958'
p559
sI559
S'rec.sport.hockey/53959'
p560
sI560
S'rec.sport.hockey/53960'
p561
sI561
S'rec.sport.hockey/53961'
p562
sI562
S'rec.sport.hockey/53962'
p563
sI563
S'rec.sport.hockey/53963'
p564
sI564
S'rec.sport.hockey/53964'
p565
sI565
S'rec.sport.hockey/53965'
p566
sI566
S'rec.sport.hockey/53966'
p567
sI567
S'rec.sport.hockey/53967'
p568
sI568
S'rec.sport.hockey/53968'
p569
sI569
S'rec.sport.hockey/53969'
p570
sI570
S'rec.sport.hockey/53970'
p571
sI571
S'rec.sport.hockey/53971'
p572
sI572
S'rec.sport.hockey/53972'
p573
sI573
S'rec.sport.hockey/53973'
p574
sI574
S'rec.sport.hockey/53974'
p575
sI575
S'rec.sport.hockey/53975'
p576
sI576
S'rec.sport.hockey/53976'
p577
sI577
S'rec.sport.hockey/53977'
p578
sI578
S'rec.sport.hockey/53978'
p579
sI579
S'rec.sport.hockey/53979'
p580
sI580
S'rec.sport.hockey/53980'
p581
sI581
S'rec.sport.hockey/53981'
p582
sI582
S'rec.sport.hockey/53982'
p583
sI583
S'rec.sport.hockey/53983'
p584
sI584
S'rec.sport.hockey/53984'
p585
sI585
S'rec.sport.hockey/53985'
p586
sI586
S'rec.sport.hockey/53986'
p587
sI587
S'rec.sport.hockey/53987'
p588
sI588
S'rec.sport.hockey/53988'
p589
sI589
S'rec.sport.hockey/53989'
p590
sI590
S'rec.sport.hockey/53990'
p591
sI591
S'rec.sport.hockey/53991'
p592
sI592
S'rec.sport.hockey/53992'
p593
sI593
S'rec.sport.hockey/53993'
p594
sI594
S'rec.sport.hockey/53994'
p595
sI595
S'rec.sport.hockey/53995'
p596
sI596
S'rec.sport.hockey/53996'
p597
sI597
S'rec.sport.hockey/53997'
p598
sI598
S'rec.sport.hockey/53998'
p599
sI599
S'rec.sport.hockey/53999'
p600
sI600
S'rec.sport.hockey/54000'
p601
sI601
S'rec.sport.hockey/54001'
p602
sI602
S'rec.sport.hockey/54002'
p603
sI603
S'rec.sport.hockey/54003'
p604
sI604
S'rec.sport.hockey/54004'
p605
sI605
S'rec.sport.hockey/54005'
p606
sI606
S'rec.sport.hockey/54006'
p607
sI607
S'rec.sport.hockey/54007'
p608
sI608
S'rec.sport.hockey/54008'
p609
sI609
S'rec.sport.hockey/54009'
p610
sI610
S'rec.sport.hockey/54010'
p611
sI611
S'rec.sport.hockey/54011'
p612
sI612
S'rec.sport.hockey/54012'
p613
sI613
S'rec.sport.hockey/54013'
p614
sI614
S'rec.sport.hockey/54014'
p615
sI615
S'rec.sport.hockey/54015'
p616
sI616
S'rec.sport.hockey/54016'
p617
sI617
S'rec.sport.hockey/54017'
p618
sI618
S'rec.sport.hockey/54018'
p619
sI619
S'rec.sport.hockey/54019'
p620
sI620
S'rec.sport.hockey/54020'
p621
sI621
S'rec.sport.hockey/54021'
p622
sI622
S'rec.sport.hockey/54022'
p623
sI623
S'rec.sport.hockey/54023'
p624
sI624
S'rec.sport.hockey/54024'
p625
sI625
S'rec.sport.hockey/54025'
p626
sI626
S'rec.sport.hockey/54026'
p627
sI627
S'rec.sport.hockey/54027'
p628
sI628
S'rec.sport.hockey/54028'
p629
sI629
S'rec.sport.hockey/54029'
p630
sI630
S'rec.sport.hockey/54030'
p631
sI631
S'rec.sport.hockey/54031'
p632
sI632
S'rec.sport.hockey/54032'
p633
sI633
S'rec.sport.hockey/54033'
p634
sI634
S'rec.sport.hockey/54034'
p635
sI635
S'rec.sport.hockey/54035'
p636
sI636
S'rec.sport.hockey/54036'
p637
sI637
S'rec.sport.hockey/54037'
p638
sI638
S'rec.sport.hockey/54038'
p639
sI639
S'rec.sport.hockey/54039'
p640
sI640
S'rec.sport.hockey/54040'
p641
sI641
S'rec.sport.hockey/54041'
p642
sI642
S'rec.sport.hockey/54042'
p643
sI643
S'rec.sport.hockey/54043'
p644
sI644
S'rec.sport.hockey/54044'
p645
sI645
S'rec.sport.hockey/54045'
p646
sI646
S'rec.sport.hockey/54046'
p647
sI647
S'rec.sport.hockey/54047'
p648
sI648
S'rec.sport.hockey/54048'
p649
sI649
S'rec.sport.hockey/54049'
p650
sI650
S'rec.sport.hockey/54050'
p651
sI651
S'rec.sport.hockey/54051'
p652
sI652
S'rec.sport.hockey/54052'
p653
sI653
S'rec.sport.hockey/54053'
p654
sI654
S'rec.sport.hockey/54054'
p655
sI655
S'rec.sport.hockey/54055'
p656
sI656
S'rec.sport.hockey/54056'
p657
sI657
S'rec.sport.hockey/54057'
p658
sI658
S'rec.sport.hockey/54058'
p659
sI659
S'rec.sport.hockey/54059'
p660
sI660
S'rec.sport.hockey/54060'
p661
sI661
S'rec.sport.hockey/54061'
p662
sI662
S'rec.sport.hockey/54062'
p663
sI663
S'rec.sport.hockey/54063'
p664
sI664
S'rec.sport.hockey/54064'
p665
sI665
S'rec.sport.hockey/54065'
p666
sI666
S'rec.sport.hockey/54066'
p667
sI667
S'rec.sport.hockey/54067'
p668
sI668
S'rec.sport.hockey/54068'
p669
sI669
S'rec.sport.hockey/54069'
p670
sI670
S'rec.sport.hockey/54070'
p671
sI671
S'rec.sport.hockey/54071'
p672
sI672
S'rec.sport.hockey/54072'
p673
sI673
S'rec.sport.hockey/54073'
p674
sI674
S'rec.sport.hockey/54074'
p675
sI675
S'rec.sport.hockey/54075'
p676
sI676
S'rec.sport.hockey/54076'
p677
sI677
S'rec.sport.hockey/54077'
p678
sI678
S'rec.sport.hockey/54078'
p679
sI679
S'rec.sport.hockey/54079'
p680
sI680
S'rec.sport.hockey/54080'
p681
sI681
S'rec.sport.hockey/54081'
p682
sI682
S'rec.sport.hockey/54082'
p683
sI683
S'rec.sport.hockey/54083'
p684
sI684
S'rec.sport.hockey/54084'
p685
sI685
S'rec.sport.hockey/54085'
p686
sI686
S'rec.sport.hockey/54086'
p687
sI687
S'rec.sport.hockey/54087'
p688
sI688
S'rec.sport.hockey/54088'
p689
sI689
S'rec.sport.hockey/54089'
p690
sI690
S'rec.sport.hockey/54090'
p691
sI691
S'rec.sport.hockey/54091'
p692
sI692
S'rec.sport.hockey/54092'
p693
sI693
S'rec.sport.hockey/54093'
p694
sI694
S'rec.sport.hockey/54094'
p695
sI695
S'rec.sport.hockey/54095'
p696
sI696
S'rec.sport.hockey/54096'
p697
sI697
S'rec.sport.hockey/54097'
p698
sI698
S'rec.sport.hockey/54098'
p699
sI699
S'rec.sport.hockey/54099'
p700
sI700
S'rec.sport.hockey/54100'
p701
sI701
S'rec.sport.hockey/54101'
p702
sI702
S'rec.sport.hockey/54102'
p703
sI703
S'rec.sport.hockey/54103'
p704
sI704
S'rec.sport.hockey/54104'
p705
sI705
S'rec.sport.hockey/54105'
p706
sI706
S'rec.sport.hockey/54106'
p707
sI707
S'rec.sport.hockey/54107'
p708
sI708
S'rec.sport.hockey/54108'
p709
sI709
S'rec.sport.hockey/54109'
p710
sI710
S'rec.sport.hockey/54110'
p711
sI711
S'rec.sport.hockey/54111'
p712
sI712
S'rec.sport.hockey/54112'
p713
sI713
S'rec.sport.hockey/54113'
p714
sI714
S'rec.sport.hockey/54114'
p715
sI715
S'rec.sport.hockey/54115'
p716
sI716
S'rec.sport.hockey/54116'
p717
sI717
S'rec.sport.hockey/54117'
p718
sI718
S'rec.sport.hockey/54118'
p719
sI719
S'rec.sport.hockey/54119'
p720
sI720
S'rec.sport.hockey/54120'
p721
sI721
S'rec.sport.hockey/54121'
p722
sI722
S'rec.sport.hockey/54122'
p723
sI723
S'rec.sport.hockey/54123'
p724
sI724
S'rec.sport.hockey/54124'
p725
sI725
S'rec.sport.hockey/54125'
p726
sI726
S'rec.sport.hockey/54126'
p727
sI727
S'rec.sport.hockey/54127'
p728
sI728
S'rec.sport.hockey/54128'
p729
sI729
S'rec.sport.hockey/54129'
p730
sI730
S'rec.sport.hockey/54130'
p731
sI731
S'rec.sport.hockey/54131'
p732
sI732
S'rec.sport.hockey/54132'
p733
sI733
S'rec.sport.hockey/54133'
p734
sI734
S'rec.sport.hockey/54134'
p735
sI735
S'rec.sport.hockey/54135'
p736
sI736
S'rec.sport.hockey/54136'
p737
sI737
S'rec.sport.hockey/54137'
p738
sI738
S'rec.sport.hockey/54138'
p739
sI739
S'rec.sport.hockey/54139'
p740
sI740
S'rec.sport.hockey/54158'
p741
sI741
S'rec.sport.hockey/54159'
p742
sI742
S'rec.sport.hockey/54160'
p743
sI743
S'rec.sport.hockey/54161'
p744
sI744
S'rec.sport.hockey/54162'
p745
sI745
S'rec.sport.hockey/54163'
p746
sI746
S'rec.sport.hockey/54164'
p747
sI747
S'rec.sport.hockey/54165'
p748
sI748
S'rec.sport.hockey/54166'
p749
sI749
S'rec.sport.hockey/54167'
p750
sI750
S'rec.sport.hockey/54168'
p751
sI751
S'rec.sport.hockey/54169'
p752
sI752
S'rec.sport.hockey/54170'
p753
sI753
S'rec.sport.hockey/54171'
p754
sI754
S'rec.sport.hockey/54172'
p755
sI755
S'rec.sport.hockey/54173'
p756
sI756
S'rec.sport.hockey/54174'
p757
sI757
S'rec.sport.hockey/54175'
p758
sI758
S'rec.sport.hockey/54176'
p759
sI759
S'rec.sport.hockey/54177'
p760
sI760
S'rec.sport.hockey/54180'
p761
sI761
S'rec.sport.hockey/54181'
p762
sI762
S'rec.sport.hockey/54182'
p763
sI763
S'rec.sport.hockey/54183'
p764
sI764
S'rec.sport.hockey/54184'
p765
sI765
S'rec.sport.hockey/54185'
p766
sI766
S'rec.sport.hockey/54192'
p767
sI767
S'rec.sport.hockey/54193'
p768
sI768
S'rec.sport.hockey/54194'
p769
sI769
S'rec.sport.hockey/54195'
p770
sI770
S'rec.sport.hockey/54196'
p771
sI771
S'rec.sport.hockey/54197'
p772
sI772
S'rec.sport.hockey/54198'
p773
sI773
S'rec.sport.hockey/54199'
p774
sI774
S'rec.sport.hockey/54200'
p775
sI775
S'rec.sport.hockey/54201'
p776
sI776
S'rec.sport.hockey/54202'
p777
sI777
S'rec.sport.hockey/54203'
p778
sI778
S'rec.sport.hockey/54204'
p779
sI779
S'rec.sport.hockey/54205'
p780
sI780
S'rec.sport.hockey/54206'
p781
sI781
S'rec.sport.hockey/54207'
p782
sI782
S'rec.sport.hockey/54208'
p783
sI783
S'rec.sport.hockey/54218'
p784
sI784
S'rec.sport.hockey/54219'
p785
sI785
S'rec.sport.hockey/54220'
p786
sI786
S'rec.sport.hockey/54221'
p787
sI787
S'rec.sport.hockey/54222'
p788
sI788
S'rec.sport.hockey/54223'
p789
sI789
S'rec.sport.hockey/54224'
p790
sI790
S'rec.sport.hockey/54225'
p791
sI791
S'rec.sport.hockey/54226'
p792
sI792
S'rec.sport.hockey/54227'
p793
sI793
S'rec.sport.hockey/54228'
p794
sI794
S'rec.sport.hockey/54229'
p795
sI795
S'rec.sport.hockey/54230'
p796
sI796
S'rec.sport.hockey/54231'
p797
sI797
S'rec.sport.hockey/54232'
p798
sI798
S'rec.sport.hockey/54233'
p799
sI799
S'rec.sport.hockey/54239'
p800
sI800
S'rec.sport.hockey/54240'
p801
sI801
S'rec.sport.hockey/54241'
p802
sI802
S'rec.sport.hockey/54242'
p803
sI803
S'rec.sport.hockey/54243'
p804
sI804
S'rec.sport.hockey/54244'
p805
sI805
S'rec.sport.hockey/54245'
p806
sI806
S'rec.sport.hockey/54246'
p807
sI807
S'rec.sport.hockey/54247'
p808
sI808
S'rec.sport.hockey/54248'
p809
sI809
S'rec.sport.hockey/54249'
p810
sI810
S'rec.sport.hockey/54250'
p811
sI811
S'rec.sport.hockey/54251'
p812
sI812
S'rec.sport.hockey/54252'
p813
sI813
S'rec.sport.hockey/54253'
p814
sI814
S'rec.sport.hockey/54254'
p815
sI815
S'rec.sport.hockey/54255'
p816
sI816
S'rec.sport.hockey/54256'
p817
sI817
S'rec.sport.hockey/54257'
p818
sI818
S'rec.sport.hockey/54258'
p819
sI819
S'rec.sport.hockey/54259'
p820
sI820
S'rec.sport.hockey/54260'
p821
sI821
S'rec.sport.hockey/54261'
p822
sI822
S'rec.sport.hockey/54262'
p823
sI823
S'rec.sport.hockey/54263'
p824
sI824
S'rec.sport.hockey/54264'
p825
sI825
S'rec.sport.hockey/54272'
p826
sI826
S'rec.sport.hockey/54273'
p827
sI827
S'rec.sport.hockey/54274'
p828
sI828
S'rec.sport.hockey/54275'
p829
sI829
S'rec.sport.hockey/54283'
p830
sI830
S'rec.sport.hockey/54284'
p831
sI831
S'rec.sport.hockey/54285'
p832
sI832
S'rec.sport.hockey/54286'
p833
sI833
S'rec.sport.hockey/54287'
p834
sI834
S'rec.sport.hockey/54288'
p835
sI835
S'rec.sport.hockey/54289'
p836
sI836
S'rec.sport.hockey/54290'
p837
sI837
S'rec.sport.hockey/54291'
p838
sI838
S'rec.sport.hockey/54292'
p839
sI839
S'rec.sport.hockey/54293'
p840
sI840
S'rec.sport.hockey/54294'
p841
sI841
S'rec.sport.hockey/54295'
p842
sI842
S'rec.sport.hockey/54296'
p843
sI843
S'rec.sport.hockey/54297'
p844
sI844
S'rec.sport.hockey/54298'
p845
sI845
S'rec.sport.hockey/54299'
p846
sI846
S'rec.sport.hockey/54300'
p847
sI847
S'rec.sport.hockey/54301'
p848
sI848
S'rec.sport.hockey/54302'
p849
sI849
S'rec.sport.hockey/54303'
p850
sI850
S'rec.sport.hockey/54304'
p851
sI851
S'rec.sport.hockey/54305'
p852
sI852
S'rec.sport.hockey/54306'
p853
sI853
S'rec.sport.hockey/54307'
p854
sI854
S'rec.sport.hockey/54308'
p855
sI855
S'rec.sport.hockey/54309'
p856
sI856
S'rec.sport.hockey/54358'
p857
sI857
S'rec.sport.hockey/54359'
p858
sI858
S'rec.sport.hockey/54360'
p859
sI859
S'rec.sport.hockey/54361'
p860
sI860
S'rec.sport.hockey/54364'
p861
sI861
S'rec.sport.hockey/54365'
p862
sI862
S'rec.sport.hockey/54366'
p863
sI863
S'rec.sport.hockey/54367'
p864
sI864
S'rec.sport.hockey/54478'
p865
sI865
S'rec.sport.hockey/54479'
p866
sI866
S'rec.sport.hockey/54507'
p867
sI867
S'rec.sport.hockey/54508'
p868
sI868
S'rec.sport.hockey/54509'
p869
sI869
S'rec.sport.hockey/54510'
p870
sI870
S'rec.sport.hockey/54511'
p871
sI871
S'rec.sport.hockey/54512'
p872
sI872
S'rec.sport.hockey/54513'
p873
sI873
S'rec.sport.hockey/54514'
p874
sI874
S'rec.sport.hockey/54515'
p875
sI875
S'rec.sport.hockey/54516'
p876
sI876
S'rec.sport.hockey/54517'
p877
sI877
S'rec.sport.hockey/54518'
p878
sI878
S'rec.sport.hockey/54519'
p879
sI879
S'rec.sport.hockey/54520'
p880
sI880
S'rec.sport.hockey/54521'
p881
sI881
S'rec.sport.hockey/54522'
p882
sI882
S'rec.sport.hockey/54523'
p883
sI883
S'rec.sport.hockey/54524'
p884
sI884
S'rec.sport.hockey/54525'
p885
sI885
S'rec.sport.hockey/54526'
p886
sI886
S'rec.sport.hockey/54527'
p887
sI887
S'rec.sport.hockey/54528'
p888
sI888
S'rec.sport.hockey/54529'
p889
sI889
S'rec.sport.hockey/54530'
p890
sI890
S'rec.sport.hockey/54531'
p891
sI891
S'rec.sport.hockey/54532'
p892
sI892
S'rec.sport.hockey/54533'
p893
sI893
S'rec.sport.hockey/54534'
p894
sI894
S'rec.sport.hockey/54535'
p895
sI895
S'rec.sport.hockey/54536'
p896
sI896
S'rec.sport.hockey/54537'
p897
sI897
S'rec.sport.hockey/54538'
p898
sI898
S'rec.sport.hockey/54539'
p899
sI899
S'rec.sport.hockey/54540'
p900
sI900
S'rec.sport.hockey/54541'
p901
sI901
S'rec.sport.hockey/54542'
p902
sI902
S'rec.sport.hockey/54543'
p903
sI903
S'rec.sport.hockey/54544'
p904
sI904
S'rec.sport.hockey/54545'
p905
sI905
S'rec.sport.hockey/54546'
p906
sI906
S'rec.sport.hockey/54547'
p907
sI907
S'rec.sport.hockey/54548'
p908
sI908
S'rec.sport.hockey/54549'
p909
sI909
S'rec.sport.hockey/54550'
p910
sI910
S'rec.sport.hockey/54551'
p911
sI911
S'rec.sport.hockey/54552'
p912
sI912
S'rec.sport.hockey/54553'
p913
sI913
S'rec.sport.hockey/54554'
p914
sI914
S'rec.sport.hockey/54555'
p915
sI915
S'rec.sport.hockey/54556'
p916
sI916
S'rec.sport.hockey/54557'
p917
sI917
S'rec.sport.hockey/54562'
p918
sI918
S'rec.sport.hockey/54563'
p919
sI919
S'rec.sport.hockey/54564'
p920
sI920
S'rec.sport.hockey/54704'
p921
sI921
S'rec.sport.hockey/54705'
p922
sI922
S'rec.sport.hockey/54706'
p923
sI923
S'rec.sport.hockey/54707'
p924
sI924
S'rec.sport.hockey/54708'
p925
sI925
S'rec.sport.hockey/54709'
p926
sI926
S'rec.sport.hockey/54710'
p927
sI927
S'rec.sport.hockey/54711'
p928
sI928
S'rec.sport.hockey/54712'
p929
sI929
S'rec.sport.hockey/54714'
p930
sI930
S'rec.sport.hockey/54715'
p931
sI931
S'rec.sport.hockey/54716'
p932
sI932
S'rec.sport.hockey/54717'
p933
sI933
S'rec.sport.hockey/54718'
p934
sI934
S'rec.sport.hockey/54719'
p935
sI935
S'rec.sport.hockey/54720'
p936
sI936
S'rec.sport.hockey/54721'
p937
sI937
S'rec.sport.hockey/54722'
p938
sI938
S'rec.sport.hockey/54723'
p939
sI939
S'rec.sport.hockey/54724'
p940
sI940
S'rec.sport.hockey/54725'
p941
sI941
S'rec.sport.hockey/54726'
p942
sI942
S'rec.sport.hockey/54727'
p943
sI943
S'rec.sport.hockey/54728'
p944
sI944
S'rec.sport.hockey/54729'
p945
sI945
S'rec.sport.hockey/54730'
p946
sI946
S'rec.sport.hockey/54731'
p947
sI947
S'rec.sport.hockey/54732'
p948
sI948
S'rec.sport.hockey/54733'
p949
sI949
S'rec.sport.hockey/54734'
p950
sI950
S'rec.sport.hockey/54735'
p951
sI951
S'rec.sport.hockey/54736'
p952
sI952
S'rec.sport.hockey/54737'
p953
sI953
S'rec.sport.hockey/54738'
p954
sI954
S'rec.sport.hockey/54739'
p955
sI955
S'rec.sport.hockey/54740'
p956
sI956
S'rec.sport.hockey/54741'
p957
sI957
S'rec.sport.hockey/54742'
p958
sI958
S'rec.sport.hockey/54743'
p959
sI959
S'rec.sport.hockey/54744'
p960
sI960
S'rec.sport.hockey/54745'
p961
sI961
S'rec.sport.hockey/54746'
p962
sI962
S'rec.sport.hockey/54747'
p963
sI963
S'rec.sport.hockey/54748'
p964
sI964
S'rec.sport.hockey/54749'
p965
sI965
S'rec.sport.hockey/54750'
p966
sI966
S'rec.sport.hockey/54751'
p967
sI967
S'rec.sport.hockey/54752'
p968
sI968
S'rec.sport.hockey/54753'
p969
sI969
S'rec.sport.hockey/54754'
p970
sI970
S'rec.sport.hockey/54755'
p971
sI971
S'rec.sport.hockey/54756'
p972
sI972
S'rec.sport.hockey/54757'
p973
sI973
S'rec.sport.hockey/54758'
p974
sI974
S'rec.sport.hockey/54759'
p975
sI975
S'rec.sport.hockey/54760'
p976
sI976
S'rec.sport.hockey/54761'
p977
sI977
S'rec.sport.hockey/54762'
p978
sI978
S'rec.sport.hockey/54763'
p979
sI979
S'rec.sport.hockey/54764'
p980
sI980
S'rec.sport.hockey/54765'
p981
sI981
S'rec.sport.hockey/54766'
p982
sI982
S'rec.sport.hockey/54767'
p983
sI983
S'rec.sport.hockey/54768'
p984
sI984
S'rec.sport.hockey/54769'
p985
sI985
S'rec.sport.hockey/54770'
p986
sI986
S'rec.sport.hockey/54771'
p987
sI987
S'rec.sport.hockey/54772'
p988
sI988
S'rec.sport.hockey/54773'
p989
sI989
S'rec.sport.hockey/54774'
p990
sI990
S'rec.sport.hockey/54775'
p991
sI991
S'rec.sport.hockey/54776'
p992
sI992
S'rec.sport.hockey/54777'
p993
sI993
S'rec.sport.hockey/54778'
p994
sI994
S'rec.sport.hockey/54779'
p995
sI995
S'rec.sport.hockey/54780'
p996
sI996
S'rec.sport.hockey/54896'
p997
sI997
S'rec.sport.hockey/54897'
p998
sI998
S'rec.sport.hockey/54900'
p999
sI999
S'rec.sport.hockey/55022'
p1000
sI1000
S'sci.space/59497'
p1001
sI1001
S'sci.space/59846'
p1002
sI1002
S'sci.space/59848'
p1003
sI1003
S'sci.space/59849'
p1004
sI1004
S'sci.space/59850'
p1005
sI1005
S'sci.space/59870'
p1006
sI1006
S'sci.space/59871'
p1007
sI1007
S'sci.space/59872'
p1008
sI1008
S'sci.space/59873'
p1009
sI1009
S'sci.space/59874'
p1010
sI1010
S'sci.space/59904'
p1011
sI1011
S'sci.space/59905'
p1012
sI1012
S'sci.space/59906'
p1013
sI1013
S'sci.space/59907'
p1014
sI1014
S'sci.space/59908'
p1015
sI1015
S'sci.space/59909'
p1016
sI1016
S'sci.space/59913'
p1017
sI1017
S'sci.space/60103'
p1018
sI1018
S'sci.space/60151'
p1019
sI1019
S'sci.space/60152'
p1020
sI1020
S'sci.space/60153'
p1021
sI1021
S'sci.space/60154'
p1022
sI1022
S'sci.space/60155'
p1023
sI1023
S'sci.space/60156'
p1024
sI1024
S'sci.space/60157'
p1025
sI1025
S'sci.space/60158'
p1026
sI1026
S'sci.space/60159'
p1027
sI1027
S'sci.space/60160'
p1028
sI1028
S'sci.space/60161'
p1029
sI1029
S'sci.space/60162'
p1030
sI1030
S'sci.space/60163'
p1031
sI1031
S'sci.space/60164'
p1032
sI1032
S'sci.space/60165'
p1033
sI1033
S'sci.space/60166'
p1034
sI1034
S'sci.space/60167'
p1035
sI1035
S'sci.space/60168'
p1036
sI1036
S'sci.space/60169'
p1037
sI1037
S'sci.space/60170'
p1038
sI1038
S'sci.space/60171'
p1039
sI1039
S'sci.space/60172'
p1040
sI1040
S'sci.space/60173'
p1041
sI1041
S'sci.space/60174'
p1042
sI1042
S'sci.space/60175'
p1043
sI1043
S'sci.space/60176'
p1044
sI1044
S'sci.space/60177'
p1045
sI1045
S'sci.space/60178'
p1046
sI1046
S'sci.space/60179'
p1047
sI1047
S'sci.space/60180'
p1048
sI1048
S'sci.space/60181'
p1049
sI1049
S'sci.space/60182'
p1050
sI1050
S'sci.space/60183'
p1051
sI1051
S'sci.space/60184'
p1052
sI1052
S'sci.space/60185'
p1053
sI1053
S'sci.space/60186'
p1054
sI1054
S'sci.space/60187'
p1055
sI1055
S'sci.space/60188'
p1056
sI1056
S'sci.space/60189'
p1057
sI1057
S'sci.space/60190'
p1058
sI1058
S'sci.space/60191'
p1059
sI1059
S'sci.space/60192'
p1060
sI1060
S'sci.space/60193'
p1061
sI1061
S'sci.space/60194'
p1062
sI1062
S'sci.space/60195'
p1063
sI1063
S'sci.space/60196'
p1064
sI1064
S'sci.space/60197'
p1065
sI1065
S'sci.space/60198'
p1066
sI1066
S'sci.space/60199'
p1067
sI1067
S'sci.space/60200'
p1068
sI1068
S'sci.space/60201'
p1069
sI1069
S'sci.space/60202'
p1070
sI1070
S'sci.space/60203'
p1071
sI1071
S'sci.space/60204'
p1072
sI1072
S'sci.space/60205'
p1073
sI1073
S'sci.space/60206'
p1074
sI1074
S'sci.space/60207'
p1075
sI1075
S'sci.space/60208'
p1076
sI1076
S'sci.space/60209'
p1077
sI1077
S'sci.space/60210'
p1078
sI1078
S'sci.space/60211'
p1079
sI1079
S'sci.space/60212'
p1080
sI1080
S'sci.space/60213'
p1081
sI1081
S'sci.space/60214'
p1082
sI1082
S'sci.space/60215'
p1083
sI1083
S'sci.space/60216'
p1084
sI1084
S'sci.space/60217'
p1085
sI1085
S'sci.space/60218'
p1086
sI1086
S'sci.space/60219'
p1087
sI1087
S'sci.space/60220'
p1088
sI1088
S'sci.space/60221'
p1089
sI1089
S'sci.space/60222'
p1090
sI1090
S'sci.space/60223'
p1091
sI1091
S'sci.space/60224'
p1092
sI1092
S'sci.space/60225'
p1093
sI1093
S'sci.space/60226'
p1094
sI1094
S'sci.space/60227'
p1095
sI1095
S'sci.space/60228'
p1096
sI1096
S'sci.space/60229'
p1097
sI1097
S'sci.space/60230'
p1098
sI1098
S'sci.space/60231'
p1099
sI1099
S'sci.space/60232'
p1100
sI1100
S'sci.space/60233'
p1101
sI1101
S'sci.space/60234'
p1102
sI1102
S'sci.space/60235'
p1103
sI1103
S'sci.space/60236'
p1104
sI1104
S'sci.space/60237'
p1105
sI1105
S'sci.space/60238'
p1106
sI1106
S'sci.space/60239'
p1107
sI1107
S'sci.space/60240'
p1108
sI1108
S'sci.space/60241'
p1109
sI1109
S'sci.space/60242'
p1110
sI1110
S'sci.space/60243'
p1111
sI1111
S'sci.space/60244'
p1112
sI1112
S'sci.space/60245'
p1113
sI1113
S'sci.space/60246'
p1114
sI1114
S'sci.space/60247'
p1115
sI1115
S'sci.space/60248'
p1116
sI1116
S'sci.space/60249'
p1117
sI1117
S'sci.space/60250'
p1118
sI1118
S'sci.space/60251'
p1119
sI1119
S'sci.space/60252'
p1120
sI1120
S'sci.space/60253'
p1121
sI1121
S'sci.space/60770'
p1122
sI1122
S'sci.space/60771'
p1123
sI1123
S'sci.space/60772'
p1124
sI1124
S'sci.space/60773'
p1125
sI1125
S'sci.space/60774'
p1126
sI1126
S'sci.space/60775'
p1127
sI1127
S'sci.space/60777'
p1128
sI1128
S'sci.space/60778'
p1129
sI1129
S'sci.space/60779'
p1130
sI1130
S'sci.space/60780'
p1131
sI1131
S'sci.space/60781'
p1132
sI1132
S'sci.space/60782'
p1133
sI1133
S'sci.space/60783'
p1134
sI1134
S'sci.space/60784'
p1135
sI1135
S'sci.space/60785'
p1136
sI1136
S'sci.space/60786'
p1137
sI1137
S'sci.space/60787'
p1138
sI1138
S'sci.space/60788'
p1139
sI1139
S'sci.space/60789'
p1140
sI1140
S'sci.space/60790'
p1141
sI1141
S'sci.space/60791'
p1142
sI1142
S'sci.space/60792'
p1143
sI1143
S'sci.space/60793'
p1144
sI1144
S'sci.space/60794'
p1145
sI1145
S'sci.space/60795'
p1146
sI1146
S'sci.space/60796'
p1147
sI1147
S'sci.space/60797'
p1148
sI1148
S'sci.space/60798'
p1149
sI1149
S'sci.space/60799'
p1150
sI1150
S'sci.space/60800'
p1151
sI1151
S'sci.space/60801'
p1152
sI1152
S'sci.space/60802'
p1153
sI1153
S'sci.space/60803'
p1154
sI1154
S'sci.space/60804'
p1155
sI1155
S'sci.space/60806'
p1156
sI1156
S'sci.space/60807'
p1157
sI1157
S'sci.space/60808'
p1158
sI1158
S'sci.space/60809'
p1159
sI1159
S'sci.space/60810'
p1160
sI1160
S'sci.space/60811'
p1161
sI1161
S'sci.space/60812'
p1162
sI1162
S'sci.space/60813'
p1163
sI1163
S'sci.space/60814'
p1164
sI1164
S'sci.space/60815'
p1165
sI1165
S'sci.space/60816'
p1166
sI1166
S'sci.space/60817'
p1167
sI1167
S'sci.space/60818'
p1168
sI1168
S'sci.space/60819'
p1169
sI1169
S'sci.space/60820'
p1170
sI1170
S'sci.space/60821'
p1171
sI1171
S'sci.space/60822'
p1172
sI1172
S'sci.space/60823'
p1173
sI1173
S'sci.space/60824'
p1174
sI1174
S'sci.space/60825'
p1175
sI1175
S'sci.space/60826'
p1176
sI1176
S'sci.space/60827'
p1177
sI1177
S'sci.space/60828'
p1178
sI1178
S'sci.space/60829'
p1179
sI1179
S'sci.space/60830'
p1180
sI1180
S'sci.space/60831'
p1181
sI1181
S'sci.space/60832'
p1182
sI1182
S'sci.space/60833'
p1183
sI1183
S'sci.space/60834'
p1184
sI1184
S'sci.space/60835'
p1185
sI1185
S'sci.space/60836'
p1186
sI1186
S'sci.space/60837'
p1187
sI1187
S'sci.space/60838'
p1188
sI1188
S'sci.space/60839'
p1189
sI1189
S'sci.space/60840'
p1190
sI1190
S'sci.space/60841'
p1191
sI1191
S'sci.space/60842'
p1192
sI1192
S'sci.space/60843'
p1193
sI1193
S'sci.space/60844'
p1194
sI1194
S'sci.space/60845'
p1195
sI1195
S'sci.space/60846'
p1196
sI1196
S'sci.space/60847'
p1197
sI1197
S'sci.space/60848'
p1198
sI1198
S'sci.space/60849'
p1199
sI1199
S'sci.space/60850'
p1200
sI1200
S'sci.space/60851'
p1201
sI1201
S'sci.space/60852'
p1202
sI1202
S'sci.space/60853'
p1203
sI1203
S'sci.space/60854'
p1204
sI1204
S'sci.space/60855'
p1205
sI1205
S'sci.space/60856'
p1206
sI1206
S'sci.space/60857'
p1207
sI1207
S'sci.space/60858'
p1208
sI1208
S'sci.space/60859'
p1209
sI1209
S'sci.space/60860'
p1210
sI1210
S'sci.space/60861'
p1211
sI1211
S'sci.space/60862'
p1212
sI1212
S'sci.space/60863'
p1213
sI1213
S'sci.space/60864'
p1214
sI1214
S'sci.space/60865'
p1215
sI1215
S'sci.space/60866'
p1216
sI1216
S'sci.space/60867'
p1217
sI1217
S'sci.space/60868'
p1218
sI1218
S'sci.space/60869'
p1219
sI1219
S'sci.space/60870'
p1220
sI1220
S'sci.space/60871'
p1221
sI1221
S'sci.space/60872'
p1222
sI1222
S'sci.space/60873'
p1223
sI1223
S'sci.space/60874'
p1224
sI1224
S'sci.space/60875'
p1225
sI1225
S'sci.space/60876'
p1226
sI1226
S'sci.space/60877'
p1227
sI1227
S'sci.space/60878'
p1228
sI1228
S'sci.space/60879'
p1229
sI1229
S'sci.space/60880'
p1230
sI1230
S'sci.space/60881'
p1231
sI1231
S'sci.space/60882'
p1232
sI1232
S'sci.space/60883'
p1233
sI1233
S'sci.space/60884'
p1234
sI1234
S'sci.space/60885'
p1235
sI1235
S'sci.space/60886'
p1236
sI1236
S'sci.space/60887'
p1237
sI1237
S'sci.space/60888'
p1238
sI1238
S'sci.space/60889'
p1239
sI1239
S'sci.space/60890'
p1240
sI1240
S'sci.space/60891'
p1241
sI1241
S'sci.space/60892'
p1242
sI1242
S'sci.space/60893'
p1243
sI1243
S'sci.space/60894'
p1244
sI1244
S'sci.space/60895'
p1245
sI1245
S'sci.space/60896'
p1246
sI1246
S'sci.space/60897'
p1247
sI1247
S'sci.space/60898'
p1248
sI1248
S'sci.space/60899'
p1249
sI1249
S'sci.space/60900'
p1250
sI1250
S'sci.space/60901'
p1251
sI1251
S'sci.space/60902'
p1252
sI1252
S'sci.space/60903'
p1253
sI1253
S'sci.space/60904'
p1254
sI1254
S'sci.space/60905'
p1255
sI1255
S'sci.space/60906'
p1256
sI1256
S'sci.space/60907'
p1257
sI1257
S'sci.space/60908'
p1258
sI1258
S'sci.space/60909'
p1259
sI1259
S'sci.space/60910'
p1260
sI1260
S'sci.space/60911'
p1261
sI1261
S'sci.space/60912'
p1262
sI1262
S'sci.space/60913'
p1263
sI1263
S'sci.space/60914'
p1264
sI1264
S'sci.space/60915'
p1265
sI1265
S'sci.space/60916'
p1266
sI1266
S'sci.space/60917'
p1267
sI1267
S'sci.space/60918'
p1268
sI1268
S'sci.space/60919'
p1269
sI1269
S'sci.space/60920'
p1270
sI1270
S'sci.space/60921'
p1271
sI1271
S'sci.space/60922'
p1272
sI1272
S'sci.space/60923'
p1273
sI1273
S'sci.space/60924'
p1274
sI1274
S'sci.space/60925'
p1275
sI1275
S'sci.space/60926'
p1276
sI1276
S'sci.space/60927'
p1277
sI1277
S'sci.space/60928'
p1278
sI1278
S'sci.space/60929'
p1279
sI1279
S'sci.space/60930'
p1280
sI1280
S'sci.space/60931'
p1281
sI1281
S'sci.space/60932'
p1282
sI1282
S'sci.space/60933'
p1283
sI1283
S'sci.space/60934'
p1284
sI1284
S'sci.space/60935'
p1285
sI1285
S'sci.space/60936'
p1286
sI1286
S'sci.space/60937'
p1287
sI1287
S'sci.space/60938'
p1288
sI1288
S'sci.space/60939'
p1289
sI1289
S'sci.space/60940'
p1290
sI1290
S'sci.space/60941'
p1291
sI1291
S'sci.space/60942'
p1292
sI1292
S'sci.space/60943'
p1293
sI1293
S'sci.space/60944'
p1294
sI1294
S'sci.space/60945'
p1295
sI1295
S'sci.space/60946'
p1296
sI1296
S'sci.space/60947'
p1297
sI1297
S'sci.space/60948'
p1298
sI1298
S'sci.space/60949'
p1299
sI1299
S'sci.space/60950'
p1300
sI1300
S'sci.space/60951'
p1301
sI1301
S'sci.space/60952'
p1302
sI1302
S'sci.space/60953'
p1303
sI1303
S'sci.space/60954'
p1304
sI1304
S'sci.space/60955'
p1305
sI1305
S'sci.space/60956'
p1306
sI1306
S'sci.space/60957'
p1307
sI1307
S'sci.space/60958'
p1308
sI1308
S'sci.space/60959'
p1309
sI1309
S'sci.space/60960'
p1310
sI1310
S'sci.space/60961'
p1311
sI1311
S'sci.space/60962'
p1312
sI1312
S'sci.space/60963'
p1313
sI1313
S'sci.space/60964'
p1314
sI1314
S'sci.space/60965'
p1315
sI1315
S'sci.space/60966'
p1316
sI1316
S'sci.space/60967'
p1317
sI1317
S'sci.space/60968'
p1318
sI1318
S'sci.space/60969'
p1319
sI1319
S'sci.space/60970'
p1320
sI1320
S'sci.space/60971'
p1321
sI1321
S'sci.space/60972'
p1322
sI1322
S'sci.space/60973'
p1323
sI1323
S'sci.space/60974'
p1324
sI1324
S'sci.space/60975'
p1325
sI1325
S'sci.space/60976'
p1326
sI1326
S'sci.space/60977'
p1327
sI1327
S'sci.space/60978'
p1328
sI1328
S'sci.space/60979'
p1329
sI1329
S'sci.space/60980'
p1330
sI1330
S'sci.space/60981'
p1331
sI1331
S'sci.space/60982'
p1332
sI1332
S'sci.space/60983'
p1333
sI1333
S'sci.space/60984'
p1334
sI1334
S'sci.space/60985'
p1335
sI1335
S'sci.space/60986'
p1336
sI1336
S'sci.space/60987'
p1337
sI1337
S'sci.space/60988'
p1338
sI1338
S'sci.space/60989'
p1339
sI1339
S'sci.space/60990'
p1340
sI1340
S'sci.space/60991'
p1341
sI1341
S'sci.space/60992'
p1342
sI1342
S'sci.space/60993'
p1343
sI1343
S'sci.space/60994'
p1344
sI1344
S'sci.space/60995'
p1345
sI1345
S'sci.space/60996'
p1346
sI1346
S'sci.space/60997'
p1347
sI1347
S'sci.space/60998'
p1348
sI1348
S'sci.space/60999'
p1349
sI1349
S'sci.space/61000'
p1350
sI1350
S'sci.space/61001'
p1351
sI1351
S'sci.space/61002'
p1352
sI1352
S'sci.space/61003'
p1353
sI1353
S'sci.space/61004'
p1354
sI1354
S'sci.space/61005'
p1355
sI1355
S'sci.space/61006'
p1356
sI1356
S'sci.space/61007'
p1357
sI1357
S'sci.space/61008'
p1358
sI1358
S'sci.space/61009'
p1359
sI1359
S'sci.space/61010'
p1360
sI1360
S'sci.space/61011'
p1361
sI1361
S'sci.space/61012'
p1362
sI1362
S'sci.space/61013'
p1363
sI1363
S'sci.space/61014'
p1364
sI1364
S'sci.space/61015'
p1365
sI1365
S'sci.space/61016'
p1366
sI1366
S'sci.space/61017'
p1367
sI1367
S'sci.space/61018'
p1368
sI1368
S'sci.space/61019'
p1369
sI1369
S'sci.space/61020'
p1370
sI1370
S'sci.space/61021'
p1371
sI1371
S'sci.space/61022'
p1372
sI1372
S'sci.space/61023'
p1373
sI1373
S'sci.space/61024'
p1374
sI1374
S'sci.space/61025'
p1375
sI1375
S'sci.space/61026'
p1376
sI1376
S'sci.space/61027'
p1377
sI1377
S'sci.space/61028'
p1378
sI1378
S'sci.space/61029'
p1379
sI1379
S'sci.space/61030'
p1380
sI1380
S'sci.space/61031'
p1381
sI1381
S'sci.space/61032'
p1382
sI1382
S'sci.space/61033'
p1383
sI1383
S'sci.space/61034'
p1384
sI1384
S'sci.space/61035'
p1385
sI1385
S'sci.space/61036'
p1386
sI1386
S'sci.space/61037'
p1387
sI1387
S'sci.space/61038'
p1388
sI1388
S'sci.space/61039'
p1389
sI1389
S'sci.space/61040'
p1390
sI1390
S'sci.space/61041'
p1391
sI1391
S'sci.space/61042'
p1392
sI1392
S'sci.space/61043'
p1393
sI1393
S'sci.space/61044'
p1394
sI1394
S'sci.space/61045'
p1395
sI1395
S'sci.space/61046'
p1396
sI1396
S'sci.space/61047'
p1397
sI1397
S'sci.space/61048'
p1398
sI1398
S'sci.space/61049'
p1399
sI1399
S'sci.space/61050'
p1400
sI1400
S'sci.space/61051'
p1401
sI1401
S'sci.space/61052'
p1402
sI1402
S'sci.space/61053'
p1403
sI1403
S'sci.space/61054'
p1404
sI1404
S'sci.space/61055'
p1405
sI1405
S'sci.space/61056'
p1406
sI1406
S'sci.space/61057'
p1407
sI1407
S'sci.space/61058'
p1408
sI1408
S'sci.space/61059'
p1409
sI1409
S'sci.space/61060'
p1410
sI1410
S'sci.space/61061'
p1411
sI1411
S'sci.space/61062'
p1412
sI1412
S'sci.space/61063'
p1413
sI1413
S'sci.space/61064'
p1414
sI1414
S'sci.space/61065'
p1415
sI1415
S'sci.space/61066'
p1416
sI1416
S'sci.space/61067'
p1417
sI1417
S'sci.space/61068'
p1418
sI1418
S'sci.space/61069'
p1419
sI1419
S'sci.space/61070'
p1420
sI1420
S'sci.space/61071'
p1421
sI1421
S'sci.space/61072'
p1422
sI1422
S'sci.space/61073'
p1423
sI1423
S'sci.space/61074'
p1424
sI1424
S'sci.space/61075'
p1425
sI1425
S'sci.space/61076'
p1426
sI1426
S'sci.space/61077'
p1427
sI1427
S'sci.space/61078'
p1428
sI1428
S'sci.space/61079'
p1429
sI1429
S'sci.space/61080'
p1430
sI1430
S'sci.space/61081'
p1431
sI1431
S'sci.space/61082'
p1432
sI1432
S'sci.space/61083'
p1433
sI1433
S'sci.space/61084'
p1434
sI1434
S'sci.space/61085'
p1435
sI1435
S'sci.space/61086'
p1436
sI1436
S'sci.space/61087'
p1437
sI1437
S'sci.space/61088'
p1438
sI1438
S'sci.space/61089'
p1439
sI1439
S'sci.space/61090'
p1440
sI1440
S'sci.space/61091'
p1441
sI1441
S'sci.space/61092'
p1442
sI1442
S'sci.space/61093'
p1443
sI1443
S'sci.space/61094'
p1444
sI1444
S'sci.space/61095'
p1445
sI1445
S'sci.space/61096'
p1446
sI1446
S'sci.space/61097'
p1447
sI1447
S'sci.space/61098'
p1448
sI1448
S'sci.space/61099'
p1449
sI1449
S'sci.space/61100'
p1450
sI1450
S'sci.space/61101'
p1451
sI1451
S'sci.space/61102'
p1452
sI1452
S'sci.space/61103'
p1453
sI1453
S'sci.space/61104'
p1454
sI1454
S'sci.space/61105'
p1455
sI1455
S'sci.space/61106'
p1456
sI1456
S'sci.space/61107'
p1457
sI1457
S'sci.space/61108'
p1458
sI1458
S'sci.space/61109'
p1459
sI1459
S'sci.space/61110'
p1460
sI1460
S'sci.space/61111'
p1461
sI1461
S'sci.space/61112'
p1462
sI1462
S'sci.space/61113'
p1463
sI1463
S'sci.space/61114'
p1464
sI1464
S'sci.space/61115'
p1465
sI1465
S'sci.space/61116'
p1466
sI1466
S'sci.space/61117'
p1467
sI1467
S'sci.space/61118'
p1468
sI1468
S'sci.space/61119'
p1469
sI1469
S'sci.space/61120'
p1470
sI1470
S'sci.space/61121'
p1471
sI1471
S'sci.space/61122'
p1472
sI1472
S'sci.space/61123'
p1473
sI1473
S'sci.space/61124'
p1474
sI1474
S'sci.space/61125'
p1475
sI1475
S'sci.space/61126'
p1476
sI1476
S'sci.space/61127'
p1477
sI1477
S'sci.space/61128'
p1478
sI1478
S'sci.space/61129'
p1479
sI1479
S'sci.space/61130'
p1480
sI1480
S'sci.space/61131'
p1481
sI1481
S'sci.space/61132'
p1482
sI1482
S'sci.space/61133'
p1483
sI1483
S'sci.space/61134'
p1484
sI1484
S'sci.space/61135'
p1485
sI1485
S'sci.space/61136'
p1486
sI1486
S'sci.space/61137'
p1487
sI1487
S'sci.space/61138'
p1488
sI1488
S'sci.space/61139'
p1489
sI1489
S'sci.space/61140'
p1490
sI1490
S'sci.space/61141'
p1491
sI1491
S'sci.space/61142'
p1492
sI1492
S'sci.space/61143'
p1493
sI1493
S'sci.space/61144'
p1494
sI1494
S'sci.space/61145'
p1495
sI1495
S'sci.space/61146'
p1496
sI1496
S'sci.space/61147'
p1497
sI1497
S'sci.space/61148'
p1498
sI1498
S'sci.space/61149'
p1499
sI1499
S'sci.space/61150'
p1500
sI1500
S'sci.space/61151'
p1501
sI1501
S'sci.space/61152'
p1502
sI1502
S'sci.space/61153'
p1503
sI1503
S'sci.space/61154'
p1504
sI1504
S'sci.space/61155'
p1505
sI1505
S'sci.space/61156'
p1506
sI1506
S'sci.space/61157'
p1507
sI1507
S'sci.space/61158'
p1508
sI1508
S'sci.space/61159'
p1509
sI1509
S'sci.space/61160'
p1510
sI1510
S'sci.space/61161'
p1511
sI1511
S'sci.space/61162'
p1512
sI1512
S'sci.space/61163'
p1513
sI1513
S'sci.space/61164'
p1514
sI1514
S'sci.space/61165'
p1515
sI1515
S'sci.space/61166'
p1516
sI1516
S'sci.space/61167'
p1517
sI1517
S'sci.space/61168'
p1518
sI1518
S'sci.space/61169'
p1519
sI1519
S'sci.space/61170'
p1520
sI1520
S'sci.space/61171'
p1521
sI1521
S'sci.space/61172'
p1522
sI1522
S'sci.space/61173'
p1523
sI1523
S'sci.space/61174'
p1524
sI1524
S'sci.space/61175'
p1525
sI1525
S'sci.space/61176'
p1526
sI1526
S'sci.space/61177'
p1527
sI1527
S'sci.space/61178'
p1528
sI1528
S'sci.space/61179'
p1529
sI1529
S'sci.space/61180'
p1530
sI1530
S'sci.space/61181'
p1531
sI1531
S'sci.space/61182'
p1532
sI1532
S'sci.space/61183'
p1533
sI1533
S'sci.space/61184'
p1534
sI1534
S'sci.space/61185'
p1535
sI1535
S'sci.space/61186'
p1536
sI1536
S'sci.space/61187'
p1537
sI1537
S'sci.space/61188'
p1538
sI1538
S'sci.space/61189'
p1539
sI1539
S'sci.space/61190'
p1540
sI1540
S'sci.space/61191'
p1541
sI1541
S'sci.space/61192'
p1542
sI1542
S'sci.space/61193'
p1543
sI1543
S'sci.space/61194'
p1544
sI1544
S'sci.space/61195'
p1545
sI1545
S'sci.space/61196'
p1546
sI1546
S'sci.space/61197'
p1547
sI1547
S'sci.space/61198'
p1548
sI1548
S'sci.space/61199'
p1549
sI1549
S'sci.space/61200'
p1550
sI1550
S'sci.space/61201'
p1551
sI1551
S'sci.space/61202'
p1552
sI1552
S'sci.space/61203'
p1553
sI1553
S'sci.space/61204'
p1554
sI1554
S'sci.space/61205'
p1555
sI1555
S'sci.space/61206'
p1556
sI1556
S'sci.space/61207'
p1557
sI1557
S'sci.space/61208'
p1558
sI1558
S'sci.space/61209'
p1559
sI1559
S'sci.space/61210'
p1560
sI1560
S'sci.space/61211'
p1561
sI1561
S'sci.space/61212'
p1562
sI1562
S'sci.space/61213'
p1563
sI1563
S'sci.space/61214'
p1564
sI1564
S'sci.space/61215'
p1565
sI1565
S'sci.space/61216'
p1566
sI1566
S'sci.space/61217'
p1567
sI1567
S'sci.space/61218'
p1568
sI1568
S'sci.space/61219'
p1569
sI1569
S'sci.space/61220'
p1570
sI1570
S'sci.space/61221'
p1571
sI1571
S'sci.space/61222'
p1572
sI1572
S'sci.space/61223'
p1573
sI1573
S'sci.space/61224'
p1574
sI1574
S'sci.space/61225'
p1575
sI1575
S'sci.space/61226'
p1576
sI1576
S'sci.space/61227'
p1577
sI1577
S'sci.space/61228'
p1578
sI1578
S'sci.space/61229'
p1579
sI1579
S'sci.space/61230'
p1580
sI1580
S'sci.space/61231'
p1581
sI1581
S'sci.space/61232'
p1582
sI1582
S'sci.space/61233'
p1583
sI1583
S'sci.space/61234'
p1584
sI1584
S'sci.space/61235'
p1585
sI1585
S'sci.space/61236'
p1586
sI1586
S'sci.space/61237'
p1587
sI1587
S'sci.space/61238'
p1588
sI1588
S'sci.space/61239'
p1589
sI1589
S'sci.space/61240'
p1590
sI1590
S'sci.space/61241'
p1591
sI1591
S'sci.space/61242'
p1592
sI1592
S'sci.space/61243'
p1593
sI1593
S'sci.space/61244'
p1594
sI1594
S'sci.space/61245'
p1595
sI1595
S'sci.space/61246'
p1596
sI1596
S'sci.space/61247'
p1597
sI1597
S'sci.space/61248'
p1598
sI1598
S'sci.space/61249'
p1599
sI1599
S'sci.space/61250'
p1600
sI1600
S'sci.space/61251'
p1601
sI1601
S'sci.space/61252'
p1602
sI1602
S'sci.space/61253'
p1603
sI1603
S'sci.space/61254'
p1604
sI1604
S'sci.space/61255'
p1605
sI1605
S'sci.space/61256'
p1606
sI1606
S'sci.space/61257'
p1607
sI1607
S'sci.space/61258'
p1608
sI1608
S'sci.space/61259'
p1609
sI1609
S'sci.space/61260'
p1610
sI1610
S'sci.space/61261'
p1611
sI1611
S'sci.space/61262'
p1612
sI1612
S'sci.space/61263'
p1613
sI1613
S'sci.space/61264'
p1614
sI1614
S'sci.space/61265'
p1615
sI1615
S'sci.space/61266'
p1616
sI1616
S'sci.space/61267'
p1617
sI1617
S'sci.space/61268'
p1618
sI1618
S'sci.space/61269'
p1619
sI1619
S'sci.space/61270'
p1620
sI1620
S'sci.space/61271'
p1621
sI1621
S'sci.space/61272'
p1622
sI1622
S'sci.space/61273'
p1623
sI1623
S'sci.space/61274'
p1624
sI1624
S'sci.space/61275'
p1625
sI1625
S'sci.space/61276'
p1626
sI1626
S'sci.space/61277'
p1627
sI1627
S'sci.space/61278'
p1628
sI1628
S'sci.space/61279'
p1629
sI1629
S'sci.space/61280'
p1630
sI1630
S'sci.space/61281'
p1631
sI1631
S'sci.space/61282'
p1632
sI1632
S'sci.space/61283'
p1633
sI1633
S'sci.space/61284'
p1634
sI1634
S'sci.space/61285'
p1635
sI1635
S'sci.space/61286'
p1636
sI1636
S'sci.space/61287'
p1637
sI1637
S'sci.space/61288'
p1638
sI1638
S'sci.space/61289'
p1639
sI1639
S'sci.space/61290'
p1640
sI1640
S'sci.space/61291'
p1641
sI1641
S'sci.space/61292'
p1642
sI1642
S'sci.space/61293'
p1643
sI1643
S'sci.space/61294'
p1644
sI1644
S'sci.space/61295'
p1645
sI1645
S'sci.space/61296'
p1646
sI1646
S'sci.space/61297'
p1647
sI1647
S'sci.space/61298'
p1648
sI1648
S'sci.space/61299'
p1649
sI1649
S'sci.space/61300'
p1650
sI1650
S'sci.space/61301'
p1651
sI1651
S'sci.space/61302'
p1652
sI1652
S'sci.space/61303'
p1653
sI1653
S'sci.space/61304'
p1654
sI1654
S'sci.space/61305'
p1655
sI1655
S'sci.space/61306'
p1656
sI1656
S'sci.space/61307'
p1657
sI1657
S'sci.space/61308'
p1658
sI1658
S'sci.space/61309'
p1659
sI1659
S'sci.space/61310'
p1660
sI1660
S'sci.space/61311'
p1661
sI1661
S'sci.space/61312'
p1662
sI1662
S'sci.space/61313'
p1663
sI1663
S'sci.space/61314'
p1664
sI1664
S'sci.space/61315'
p1665
sI1665
S'sci.space/61316'
p1666
sI1666
S'sci.space/61317'
p1667
sI1667
S'sci.space/61318'
p1668
sI1668
S'sci.space/61319'
p1669
sI1669
S'sci.space/61320'
p1670
sI1670
S'sci.space/61321'
p1671
sI1671
S'sci.space/61322'
p1672
sI1672
S'sci.space/61323'
p1673
sI1673
S'sci.space/61324'
p1674
sI1674
S'sci.space/61325'
p1675
sI1675
S'sci.space/61326'
p1676
sI1676
S'sci.space/61327'
p1677
sI1677
S'sci.space/61328'
p1678
sI1678
S'sci.space/61329'
p1679
sI1679
S'sci.space/61330'
p1680
sI1680
S'sci.space/61331'
p1681
sI1681
S'sci.space/61332'
p1682
sI1682
S'sci.space/61333'
p1683
sI1683
S'sci.space/61334'
p1684
sI1684
S'sci.space/61335'
p1685
sI1685
S'sci.space/61336'
p1686
sI1686
S'sci.space/61337'
p1687
sI1687
S'sci.space/61338'
p1688
sI1688
S'sci.space/61339'
p1689
sI1689
S'sci.space/61340'
p1690
sI1690
S'sci.space/61341'
p1691
sI1691
S'sci.space/61342'
p1692
sI1692
S'sci.space/61343'
p1693
sI1693
S'sci.space/61344'
p1694
sI1694
S'sci.space/61345'
p1695
sI1695
S'sci.space/61346'
p1696
sI1696
S'sci.space/61347'
p1697
sI1697
S'sci.space/61348'
p1698
sI1698
S'sci.space/61349'
p1699
sI1699
S'sci.space/61350'
p1700
sI1700
S'sci.space/61351'
p1701
sI1701
S'sci.space/61352'
p1702
sI1702
S'sci.space/61353'
p1703
sI1703
S'sci.space/61354'
p1704
sI1704
S'sci.space/61355'
p1705
sI1705
S'sci.space/61356'
p1706
sI1706
S'sci.space/61357'
p1707
sI1707
S'sci.space/61358'
p1708
sI1708
S'sci.space/61359'
p1709
sI1709
S'sci.space/61360'
p1710
sI1710
S'sci.space/61361'
p1711
sI1711
S'sci.space/61362'
p1712
sI1712
S'sci.space/61363'
p1713
sI1713
S'sci.space/61364'
p1714
sI1714
S'sci.space/61365'
p1715
sI1715
S'sci.space/61366'
p1716
sI1716
S'sci.space/61367'
p1717
sI1717
S'sci.space/61368'
p1718
sI1718
S'sci.space/61369'
p1719
sI1719
S'sci.space/61370'
p1720
sI1720
S'sci.space/61371'
p1721
sI1721
S'sci.space/61372'
p1722
sI1722
S'sci.space/61373'
p1723
sI1723
S'sci.space/61374'
p1724
sI1724
S'sci.space/61375'
p1725
sI1725
S'sci.space/61376'
p1726
sI1726
S'sci.space/61377'
p1727
sI1727
S'sci.space/61378'
p1728
sI1728
S'sci.space/61379'
p1729
sI1729
S'sci.space/61380'
p1730
sI1730
S'sci.space/61381'
p1731
sI1731
S'sci.space/61382'
p1732
sI1732
S'sci.space/61383'
p1733
sI1733
S'sci.space/61384'
p1734
sI1734
S'sci.space/61385'
p1735
sI1735
S'sci.space/61386'
p1736
sI1736
S'sci.space/61387'
p1737
sI1737
S'sci.space/61388'
p1738
sI1738
S'sci.space/61389'
p1739
sI1739
S'sci.space/61390'
p1740
sI1740
S'sci.space/61391'
p1741
sI1741
S'sci.space/61392'
p1742
sI1742
S'sci.space/61393'
p1743
sI1743
S'sci.space/61394'
p1744
sI1744
S'sci.space/61395'
p1745
sI1745
S'sci.space/61396'
p1746
sI1746
S'sci.space/61397'
p1747
sI1747
S'sci.space/61398'
p1748
sI1748
S'sci.space/61399'
p1749
sI1749
S'sci.space/61400'
p1750
sI1750
S'sci.space/61401'
p1751
sI1751
S'sci.space/61402'
p1752
sI1752
S'sci.space/61403'
p1753
sI1753
S'sci.space/61404'
p1754
sI1754
S'sci.space/61405'
p1755
sI1755
S'sci.space/61406'
p1756
sI1756
S'sci.space/61407'
p1757
sI1757
S'sci.space/61408'
p1758
sI1758
S'sci.space/61409'
p1759
sI1759
S'sci.space/61410'
p1760
sI1760
S'sci.space/61411'
p1761
sI1761
S'sci.space/61412'
p1762
sI1762
S'sci.space/61413'
p1763
sI1763
S'sci.space/61414'
p1764
sI1764
S'sci.space/61415'
p1765
sI1765
S'sci.space/61416'
p1766
sI1766
S'sci.space/61417'
p1767
sI1767
S'sci.space/61418'
p1768
sI1768
S'sci.space/61419'
p1769
sI1769
S'sci.space/61420'
p1770
sI1770
S'sci.space/61421'
p1771
sI1771
S'sci.space/61422'
p1772
sI1772
S'sci.space/61423'
p1773
sI1773
S'sci.space/61424'
p1774
sI1774
S'sci.space/61425'
p1775
sI1775
S'sci.space/61426'
p1776
sI1776
S'sci.space/61427'
p1777
sI1777
S'sci.space/61428'
p1778
sI1778
S'sci.space/61429'
p1779
sI1779
S'sci.space/61430'
p1780
sI1780
S'sci.space/61431'
p1781
sI1781
S'sci.space/61432'
p1782
sI1782
S'sci.space/61433'
p1783
sI1783
S'sci.space/61434'
p1784
sI1784
S'sci.space/61435'
p1785
sI1785
S'sci.space/61436'
p1786
sI1786
S'sci.space/61437'
p1787
sI1787
S'sci.space/61438'
p1788
sI1788
S'sci.space/61439'
p1789
sI1789
S'sci.space/61440'
p1790
sI1790
S'sci.space/61441'
p1791
sI1791
S'sci.space/61442'
p1792
sI1792
S'sci.space/61443'
p1793
sI1793
S'sci.space/61444'
p1794
sI1794
S'sci.space/61445'
p1795
sI1795
S'sci.space/61446'
p1796
sI1796
S'sci.space/61447'
p1797
sI1797
S'sci.space/61448'
p1798
sI1798
S'sci.space/61449'
p1799
sI1799
S'sci.space/61450'
p1800
sI1800
S'sci.space/61451'
p1801
sI1801
S'sci.space/61452'
p1802
sI1802
S'sci.space/61453'
p1803
sI1803
S'sci.space/61454'
p1804
sI1804
S'sci.space/61455'
p1805
sI1805
S'sci.space/61456'
p1806
sI1806
S'sci.space/61457'
p1807
sI1807
S'sci.space/61458'
p1808
sI1808
S'sci.space/61459'
p1809
sI1809
S'sci.space/61460'
p1810
sI1810
S'sci.space/61461'
p1811
sI1811
S'sci.space/61462'
p1812
sI1812
S'sci.space/61463'
p1813
sI1813
S'sci.space/61464'
p1814
sI1814
S'sci.space/61465'
p1815
sI1815
S'sci.space/61466'
p1816
sI1816
S'sci.space/61467'
p1817
sI1817
S'sci.space/61468'
p1818
sI1818
S'sci.space/61469'
p1819
sI1819
S'sci.space/61470'
p1820
sI1820
S'sci.space/61471'
p1821
sI1821
S'sci.space/61472'
p1822
sI1822
S'sci.space/61473'
p1823
sI1823
S'sci.space/61474'
p1824
sI1824
S'sci.space/61475'
p1825
sI1825
S'sci.space/61476'
p1826
sI1826
S'sci.space/61477'
p1827
sI1827
S'sci.space/61478'
p1828
sI1828
S'sci.space/61479'
p1829
sI1829
S'sci.space/61480'
p1830
sI1830
S'sci.space/61481'
p1831
sI1831
S'sci.space/61482'
p1832
sI1832
S'sci.space/61483'
p1833
sI1833
S'sci.space/61484'
p1834
sI1834
S'sci.space/61485'
p1835
sI1835
S'sci.space/61486'
p1836
sI1836
S'sci.space/61487'
p1837
sI1837
S'sci.space/61488'
p1838
sI1838
S'sci.space/61489'
p1839
sI1839
S'sci.space/61490'
p1840
sI1840
S'sci.space/61491'
p1841
sI1841
S'sci.space/61492'
p1842
sI1842
S'sci.space/61493'
p1843
sI1843
S'sci.space/61494'
p1844
sI1844
S'sci.space/61495'
p1845
sI1845
S'sci.space/61496'
p1846
sI1846
S'sci.space/61497'
p1847
sI1847
S'sci.space/61498'
p1848
sI1848
S'sci.space/61499'
p1849
sI1849
S'sci.space/61500'
p1850
sI1850
S'sci.space/61501'
p1851
sI1851
S'sci.space/61502'
p1852
sI1852
S'sci.space/61503'
p1853
sI1853
S'sci.space/61504'
p1854
sI1854
S'sci.space/61505'
p1855
sI1855
S'sci.space/61506'
p1856
sI1856
S'sci.space/61507'
p1857
sI1857
S'sci.space/61508'
p1858
sI1858
S'sci.space/61509'
p1859
sI1859
S'sci.space/61510'
p1860
sI1860
S'sci.space/61511'
p1861
sI1861
S'sci.space/61512'
p1862
sI1862
S'sci.space/61513'
p1863
sI1863
S'sci.space/61514'
p1864
sI1864
S'sci.space/61515'
p1865
sI1865
S'sci.space/61516'
p1866
sI1866
S'sci.space/61517'
p1867
sI1867
S'sci.space/61518'
p1868
sI1868
S'sci.space/61519'
p1869
sI1869
S'sci.space/61520'
p1870
sI1870
S'sci.space/61521'
p1871
sI1871
S'sci.space/61522'
p1872
sI1872
S'sci.space/61523'
p1873
sI1873
S'sci.space/61524'
p1874
sI1874
S'sci.space/61525'
p1875
sI1875
S'sci.space/61526'
p1876
sI1876
S'sci.space/61527'
p1877
sI1877
S'sci.space/61528'
p1878
sI1878
S'sci.space/61529'
p1879
sI1879
S'sci.space/61530'
p1880
sI1880
S'sci.space/61531'
p1881
sI1881
S'sci.space/61532'
p1882
sI1882
S'sci.space/61533'
p1883
sI1883
S'sci.space/61534'
p1884
sI1884
S'sci.space/61535'
p1885
sI1885
S'sci.space/61536'
p1886
sI1886
S'sci.space/61537'
p1887
sI1887
S'sci.space/61538'
p1888
sI1888
S'sci.space/61539'
p1889
sI1889
S'sci.space/61540'
p1890
sI1890
S'sci.space/61541'
p1891
sI1891
S'sci.space/61542'
p1892
sI1892
S'sci.space/61543'
p1893
sI1893
S'sci.space/61544'
p1894
sI1894
S'sci.space/61545'
p1895
sI1895
S'sci.space/61546'
p1896
sI1896
S'sci.space/61547'
p1897
sI1897
S'sci.space/61548'
p1898
sI1898
S'sci.space/61549'
p1899
sI1899
S'sci.space/61550'
p1900
sI1900
S'sci.space/61551'
p1901
sI1901
S'sci.space/61552'
p1902
sI1902
S'sci.space/61553'
p1903
sI1903
S'sci.space/61554'
p1904
sI1904
S'sci.space/61555'
p1905
sI1905
S'sci.space/61556'
p1906
sI1906
S'sci.space/61557'
p1907
sI1907
S'sci.space/61558'
p1908
sI1908
S'sci.space/61559'
p1909
sI1909
S'sci.space/61560'
p1910
sI1910
S'sci.space/61561'
p1911
sI1911
S'sci.space/61562'
p1912
sI1912
S'sci.space/61563'
p1913
sI1913
S'sci.space/61564'
p1914
sI1914
S'sci.space/61565'
p1915
sI1915
S'sci.space/61566'
p1916
sI1916
S'sci.space/61567'
p1917
sI1917
S'sci.space/61568'
p1918
sI1918
S'sci.space/61569'
p1919
sI1919
S'sci.space/62104'
p1920
sI1920
S'sci.space/62113'
p1921
sI1921
S'sci.space/62114'
p1922
sI1922
S'sci.space/62115'
p1923
sI1923
S'sci.space/62116'
p1924
sI1924
S'sci.space/62117'
p1925
sI1925
S'sci.space/62118'
p1926
sI1926
S'sci.space/62126'
p1927
sI1927
S'sci.space/62127'
p1928
sI1928
S'sci.space/62129'
p1929
sI1929
S'sci.space/62130'
p1930
sI1930
S'sci.space/62131'
p1931
sI1931
S'sci.space/62150'
p1932
sI1932
S'sci.space/62317'
p1933
sI1933
S'sci.space/62318'
p1934
sI1934
S'sci.space/62319'
p1935
sI1935
S'sci.space/62373'
p1936
sI1936
S'sci.space/62374'
p1937
sI1937
S'sci.space/62375'
p1938
sI1938
S'sci.space/62385'
p1939
sI1939
S'sci.space/62386'
p1940
sI1940
S'sci.space/62387'
p1941
sI1941
S'sci.space/62388'
p1942
sI1942
S'sci.space/62389'
p1943
sI1943
S'sci.space/62390'
p1944
sI1944
S'sci.space/62391'
p1945
sI1945
S'sci.space/62392'
p1946
sI1946
S'sci.space/62393'
p1947
sI1947
S'sci.space/62394'
p1948
sI1948
S'sci.space/62395'
p1949
sI1949
S'sci.space/62396'
p1950
sI1950
S'sci.space/62397'
p1951
sI1951
S'sci.space/62398'
p1952
sI1952
S'sci.space/62399'
p1953
sI1953
S'sci.space/62400'
p1954
sI1954
S'sci.space/62401'
p1955
sI1955
S'sci.space/62402'
p1956
sI1956
S'sci.space/62403'
p1957
sI1957
S'sci.space/62404'
p1958
sI1958
S'sci.space/62405'
p1959
sI1959
S'sci.space/62406'
p1960
sI1960
S'sci.space/62407'
p1961
sI1961
S'sci.space/62408'
p1962
sI1962
S'sci.space/62409'
p1963
sI1963
S'sci.space/62410'
p1964
sI1964
S'sci.space/62411'
p1965
sI1965
S'sci.space/62412'
p1966
sI1966
S'sci.space/62413'
p1967
sI1967
S'sci.space/62414'
p1968
sI1968
S'sci.space/62415'
p1969
sI1969
S'sci.space/62416'
p1970
sI1970
S'sci.space/62417'
p1971
sI1971
S'sci.space/62418'
p1972
sI1972
S'sci.space/62419'
p1973
sI1973
S'sci.space/62420'
p1974
sI1974
S'sci.space/62425'
p1975
sI1975
S'sci.space/62426'
p1976
sI1976
S'sci.space/62427'
p1977
sI1977
S'sci.space/62428'
p1978
sI1978
S'sci.space/62429'
p1979
sI1979
S'sci.space/62448'
p1980
sI1980
S'sci.space/62449'
p1981
sI1981
S'sci.space/62450'
p1982
sI1982
S'sci.space/62451'
p1983
sI1983
S'sci.space/62452'
p1984
sI1984
S'sci.space/62453'
p1985
sI1985
S'sci.space/62454'
p1986
sI1986
S'sci.space/62455'
p1987
sI1987
S'sci.space/62474'
p1988
sI1988
S'sci.space/62475'
p1989
sI1989
S'sci.space/62476'
p1990
sI1990
S'sci.space/62477'
p1991
sI1991
S'sci.space/62478'
p1992
sI1992
S'sci.space/62479'
p1993
sI1993
S'sci.space/62480'
p1994
sI1994
S'sci.space/62481'
p1995
sI1995
S'sci.space/62614'
p1996
sI1996
S'sci.space/62615'
p1997
sI1997
S'sci.space/62616'
p1998
sI1998
S'sci.space/62708'
p1999
sI1999
S'sci.space/62709'
p2000
sI2000
S'sci.med/57110'
p2001
sI2001
S'sci.med/58043'
p2002
sI2002
S'sci.med/58044'
p2003
sI2003
S'sci.med/58045'
p2004
sI2004
S'sci.med/58046'
p2005
sI2005
S'sci.med/58047'
p2006
sI2006
S'sci.med/58048'
p2007
sI2007
S'sci.med/58049'
p2008
sI2008
S'sci.med/58050'
p2009
sI2009
S'sci.med/58051'
p2010
sI2010
S'sci.med/58052'
p2011
sI2011
S'sci.med/58053'
p2012
sI2012
S'sci.med/58054'
p2013
sI2013
S'sci.med/58055'
p2014
sI2014
S'sci.med/58056'
p2015
sI2015
S'sci.med/58057'
p2016
sI2016
S'sci.med/58058'
p2017
sI2017
S'sci.med/58059'
p2018
sI2018
S'sci.med/58060'
p2019
sI2019
S'sci.med/58061'
p2020
sI2020
S'sci.med/58062'
p2021
sI2021
S'sci.med/58063'
p2022
sI2022
S'sci.med/58064'
p2023
sI2023
S'sci.med/58065'
p2024
sI2024
S'sci.med/58066'
p2025
sI2025
S'sci.med/58067'
p2026
sI2026
S'sci.med/58068'
p2027
sI2027
S'sci.med/58069'
p2028
sI2028
S'sci.med/58070'
p2029
sI2029
S'sci.med/58071'
p2030
sI2030
S'sci.med/58072'
p2031
sI2031
S'sci.med/58073'
p2032
sI2032
S'sci.med/58074'
p2033
sI2033
S'sci.med/58075'
p2034
sI2034
S'sci.med/58076'
p2035
sI2035
S'sci.med/58077'
p2036
sI2036
S'sci.med/58078'
p2037
sI2037
S'sci.med/58079'
p2038
sI2038
S'sci.med/58080'
p2039
sI2039
S'sci.med/58081'
p2040
sI2040
S'sci.med/58082'
p2041
sI2041
S'sci.med/58083'
p2042
sI2042
S'sci.med/58084'
p2043
sI2043
S'sci.med/58085'
p2044
sI2044
S'sci.med/58086'
p2045
sI2045
S'sci.med/58087'
p2046
sI2046
S'sci.med/58088'
p2047
sI2047
S'sci.med/58089'
p2048
sI2048
S'sci.med/58090'
p2049
sI2049
S'sci.med/58091'
p2050
sI2050
S'sci.med/58092'
p2051
sI2051
S'sci.med/58093'
p2052
sI2052
S'sci.med/58094'
p2053
sI2053
S'sci.med/58095'
p2054
sI2054
S'sci.med/58096'
p2055
sI2055
S'sci.med/58097'
p2056
sI2056
S'sci.med/58098'
p2057
sI2057
S'sci.med/58099'
p2058
sI2058
S'sci.med/58100'
p2059
sI2059
S'sci.med/58101'
p2060
sI2060
S'sci.med/58102'
p2061
sI2061
S'sci.med/58103'
p2062
sI2062
S'sci.med/58104'
p2063
sI2063
S'sci.med/58105'
p2064
sI2064
S'sci.med/58106'
p2065
sI2065
S'sci.med/58107'
p2066
sI2066
S'sci.med/58108'
p2067
sI2067
S'sci.med/58109'
p2068
sI2068
S'sci.med/58110'
p2069
sI2069
S'sci.med/58111'
p2070
sI2070
S'sci.med/58112'
p2071
sI2071
S'sci.med/58113'
p2072
sI2072
S'sci.med/58114'
p2073
sI2073
S'sci.med/58115'
p2074
sI2074
S'sci.med/58116'
p2075
sI2075
S'sci.med/58117'
p2076
sI2076
S'sci.med/58118'
p2077
sI2077
S'sci.med/58119'
p2078
sI2078
S'sci.med/58120'
p2079
sI2079
S'sci.med/58121'
p2080
sI2080
S'sci.med/58122'
p2081
sI2081
S'sci.med/58123'
p2082
sI2082
S'sci.med/58124'
p2083
sI2083
S'sci.med/58125'
p2084
sI2084
S'sci.med/58126'
p2085
sI2085
S'sci.med/58127'
p2086
sI2086
S'sci.med/58128'
p2087
sI2087
S'sci.med/58129'
p2088
sI2088
S'sci.med/58130'
p2089
sI2089
S'sci.med/58131'
p2090
sI2090
S'sci.med/58132'
p2091
sI2091
S'sci.med/58133'
p2092
sI2092
S'sci.med/58134'
p2093
sI2093
S'sci.med/58135'
p2094
sI2094
S'sci.med/58136'
p2095
sI2095
S'sci.med/58137'
p2096
sI2096
S'sci.med/58138'
p2097
sI2097
S'sci.med/58139'
p2098
sI2098
S'sci.med/58140'
p2099
sI2099
S'sci.med/58141'
p2100
sI2100
S'sci.med/58142'
p2101
sI2101
S'sci.med/58143'
p2102
sI2102
S'sci.med/58144'
p2103
sI2103
S'sci.med/58145'
p2104
sI2104
S'sci.med/58146'
p2105
sI2105
S'sci.med/58147'
p2106
sI2106
S'sci.med/58148'
p2107
sI2107
S'sci.med/58149'
p2108
sI2108
S'sci.med/58150'
p2109
sI2109
S'sci.med/58151'
p2110
sI2110
S'sci.med/58152'
p2111
sI2111
S'sci.med/58153'
p2112
sI2112
S'sci.med/58154'
p2113
sI2113
S'sci.med/58155'
p2114
sI2114
S'sci.med/58568'
p2115
sI2115
S'sci.med/58569'
p2116
sI2116
S'sci.med/58570'
p2117
sI2117
S'sci.med/58577'
p2118
sI2118
S'sci.med/58578'
p2119
sI2119
S'sci.med/58719'
p2120
sI2120
S'sci.med/58758'
p2121
sI2121
S'sci.med/58759'
p2122
sI2122
S'sci.med/58760'
p2123
sI2123
S'sci.med/58761'
p2124
sI2124
S'sci.med/58762'
p2125
sI2125
S'sci.med/58763'
p2126
sI2126
S'sci.med/58764'
p2127
sI2127
S'sci.med/58765'
p2128
sI2128
S'sci.med/58766'
p2129
sI2129
S'sci.med/58767'
p2130
sI2130
S'sci.med/58768'
p2131
sI2131
S'sci.med/58769'
p2132
sI2132
S'sci.med/58770'
p2133
sI2133
S'sci.med/58771'
p2134
sI2134
S'sci.med/58772'
p2135
sI2135
S'sci.med/58773'
p2136
sI2136
S'sci.med/58774'
p2137
sI2137
S'sci.med/58775'
p2138
sI2138
S'sci.med/58776'
p2139
sI2139
S'sci.med/58777'
p2140
sI2140
S'sci.med/58778'
p2141
sI2141
S'sci.med/58779'
p2142
sI2142
S'sci.med/58780'
p2143
sI2143
S'sci.med/58781'
p2144
sI2144
S'sci.med/58782'
p2145
sI2145
S'sci.med/58783'
p2146
sI2146
S'sci.med/58784'
p2147
sI2147
S'sci.med/58785'
p2148
sI2148
S'sci.med/58786'
p2149
sI2149
S'sci.med/58787'
p2150
sI2150
S'sci.med/58788'
p2151
sI2151
S'sci.med/58789'
p2152
sI2152
S'sci.med/58790'
p2153
sI2153
S'sci.med/58791'
p2154
sI2154
S'sci.med/58792'
p2155
sI2155
S'sci.med/58793'
p2156
sI2156
S'sci.med/58794'
p2157
sI2157
S'sci.med/58795'
p2158
sI2158
S'sci.med/58796'
p2159
sI2159
S'sci.med/58797'
p2160
sI2160
S'sci.med/58798'
p2161
sI2161
S'sci.med/58799'
p2162
sI2162
S'sci.med/58800'
p2163
sI2163
S'sci.med/58801'
p2164
sI2164
S'sci.med/58802'
p2165
sI2165
S'sci.med/58803'
p2166
sI2166
S'sci.med/58804'
p2167
sI2167
S'sci.med/58805'
p2168
sI2168
S'sci.med/58806'
p2169
sI2169
S'sci.med/58807'
p2170
sI2170
S'sci.med/58808'
p2171
sI2171
S'sci.med/58809'
p2172
sI2172
S'sci.med/58810'
p2173
sI2173
S'sci.med/58811'
p2174
sI2174
S'sci.med/58812'
p2175
sI2175
S'sci.med/58813'
p2176
sI2176
S'sci.med/58814'
p2177
sI2177
S'sci.med/58815'
p2178
sI2178
S'sci.med/58816'
p2179
sI2179
S'sci.med/58817'
p2180
sI2180
S'sci.med/58818'
p2181
sI2181
S'sci.med/58819'
p2182
sI2182
S'sci.med/58820'
p2183
sI2183
S'sci.med/58821'
p2184
sI2184
S'sci.med/58822'
p2185
sI2185
S'sci.med/58823'
p2186
sI2186
S'sci.med/58824'
p2187
sI2187
S'sci.med/58825'
p2188
sI2188
S'sci.med/58826'
p2189
sI2189
S'sci.med/58827'
p2190
sI2190
S'sci.med/58828'
p2191
sI2191
S'sci.med/58829'
p2192
sI2192
S'sci.med/58830'
p2193
sI2193
S'sci.med/58831'
p2194
sI2194
S'sci.med/58832'
p2195
sI2195
S'sci.med/58833'
p2196
sI2196
S'sci.med/58834'
p2197
sI2197
S'sci.med/58835'
p2198
sI2198
S'sci.med/58836'
p2199
sI2199
S'sci.med/58837'
p2200
sI2200
S'sci.med/58838'
p2201
sI2201
S'sci.med/58839'
p2202
sI2202
S'sci.med/58840'
p2203
sI2203
S'sci.med/58841'
p2204
sI2204
S'sci.med/58842'
p2205
sI2205
S'sci.med/58843'
p2206
sI2206
S'sci.med/58844'
p2207
sI2207
S'sci.med/58845'
p2208
sI2208
S'sci.med/58846'
p2209
sI2209
S'sci.med/58847'
p2210
sI2210
S'sci.med/58848'
p2211
sI2211
S'sci.med/58849'
p2212
sI2212
S'sci.med/58850'
p2213
sI2213
S'sci.med/58851'
p2214
sI2214
S'sci.med/58852'
p2215
sI2215
S'sci.med/58853'
p2216
sI2216
S'sci.med/58854'
p2217
sI2217
S'sci.med/58855'
p2218
sI2218
S'sci.med/58856'
p2219
sI2219
S'sci.med/58857'
p2220
sI2220
S'sci.med/58858'
p2221
sI2221
S'sci.med/58859'
p2222
sI2222
S'sci.med/58860'
p2223
sI2223
S'sci.med/58861'
p2224
sI2224
S'sci.med/58862'
p2225
sI2225
S'sci.med/58863'
p2226
sI2226
S'sci.med/58864'
p2227
sI2227
S'sci.med/58865'
p2228
sI2228
S'sci.med/58866'
p2229
sI2229
S'sci.med/58867'
p2230
sI2230
S'sci.med/58868'
p2231
sI2231
S'sci.med/58869'
p2232
sI2232
S'sci.med/58870'
p2233
sI2233
S'sci.med/58871'
p2234
sI2234
S'sci.med/58872'
p2235
sI2235
S'sci.med/58873'
p2236
sI2236
S'sci.med/58874'
p2237
sI2237
S'sci.med/58875'
p2238
sI2238
S'sci.med/58876'
p2239
sI2239
S'sci.med/58877'
p2240
sI2240
S'sci.med/58878'
p2241
sI2241
S'sci.med/58879'
p2242
sI2242
S'sci.med/58880'
p2243
sI2243
S'sci.med/58881'
p2244
sI2244
S'sci.med/58882'
p2245
sI2245
S'sci.med/58883'
p2246
sI2246
S'sci.med/58884'
p2247
sI2247
S'sci.med/58885'
p2248
sI2248
S'sci.med/58886'
p2249
sI2249
S'sci.med/58887'
p2250
sI2250
S'sci.med/58888'
p2251
sI2251
S'sci.med/58889'
p2252
sI2252
S'sci.med/58890'
p2253
sI2253
S'sci.med/58891'
p2254
sI2254
S'sci.med/58892'
p2255
sI2255
S'sci.med/58893'
p2256
sI2256
S'sci.med/58894'
p2257
sI2257
S'sci.med/58895'
p2258
sI2258
S'sci.med/58896'
p2259
sI2259
S'sci.med/58897'
p2260
sI2260
S'sci.med/58898'
p2261
sI2261
S'sci.med/58899'
p2262
sI2262
S'sci.med/58900'
p2263
sI2263
S'sci.med/58901'
p2264
sI2264
S'sci.med/58902'
p2265
sI2265
S'sci.med/58903'
p2266
sI2266
S'sci.med/58904'
p2267
sI2267
S'sci.med/58905'
p2268
sI2268
S'sci.med/58906'
p2269
sI2269
S'sci.med/58907'
p2270
sI2270
S'sci.med/58908'
p2271
sI2271
S'sci.med/58909'
p2272
sI2272
S'sci.med/58910'
p2273
sI2273
S'sci.med/58911'
p2274
sI2274
S'sci.med/58912'
p2275
sI2275
S'sci.med/58913'
p2276
sI2276
S'sci.med/58914'
p2277
sI2277
S'sci.med/58915'
p2278
sI2278
S'sci.med/58916'
p2279
sI2279
S'sci.med/58917'
p2280
sI2280
S'sci.med/58918'
p2281
sI2281
S'sci.med/58919'
p2282
sI2282
S'sci.med/58920'
p2283
sI2283
S'sci.med/58921'
p2284
sI2284
S'sci.med/58922'
p2285
sI2285
S'sci.med/58923'
p2286
sI2286
S'sci.med/58924'
p2287
sI2287
S'sci.med/58925'
p2288
sI2288
S'sci.med/58926'
p2289
sI2289
S'sci.med/58927'
p2290
sI2290
S'sci.med/58928'
p2291
sI2291
S'sci.med/58929'
p2292
sI2292
S'sci.med/58930'
p2293
sI2293
S'sci.med/58931'
p2294
sI2294
S'sci.med/58932'
p2295
sI2295
S'sci.med/58933'
p2296
sI2296
S'sci.med/58934'
p2297
sI2297
S'sci.med/58935'
p2298
sI2298
S'sci.med/58936'
p2299
sI2299
S'sci.med/58937'
p2300
sI2300
S'sci.med/58938'
p2301
sI2301
S'sci.med/58939'
p2302
sI2302
S'sci.med/58940'
p2303
sI2303
S'sci.med/58941'
p2304
sI2304
S'sci.med/58942'
p2305
sI2305
S'sci.med/58943'
p2306
sI2306
S'sci.med/58944'
p2307
sI2307
S'sci.med/58945'
p2308
sI2308
S'sci.med/58946'
p2309
sI2309
S'sci.med/58947'
p2310
sI2310
S'sci.med/58948'
p2311
sI2311
S'sci.med/58949'
p2312
sI2312
S'sci.med/58950'
p2313
sI2313
S'sci.med/58951'
p2314
sI2314
S'sci.med/58952'
p2315
sI2315
S'sci.med/58953'
p2316
sI2316
S'sci.med/58954'
p2317
sI2317
S'sci.med/58955'
p2318
sI2318
S'sci.med/58956'
p2319
sI2319
S'sci.med/58957'
p2320
sI2320
S'sci.med/58958'
p2321
sI2321
S'sci.med/58959'
p2322
sI2322
S'sci.med/58960'
p2323
sI2323
S'sci.med/58961'
p2324
sI2324
S'sci.med/58962'
p2325
sI2325
S'sci.med/58963'
p2326
sI2326
S'sci.med/58964'
p2327
sI2327
S'sci.med/58965'
p2328
sI2328
S'sci.med/58966'
p2329
sI2329
S'sci.med/58967'
p2330
sI2330
S'sci.med/58968'
p2331
sI2331
S'sci.med/58969'
p2332
sI2332
S'sci.med/58970'
p2333
sI2333
S'sci.med/58971'
p2334
sI2334
S'sci.med/58972'
p2335
sI2335
S'sci.med/58973'
p2336
sI2336
S'sci.med/58974'
p2337
sI2337
S'sci.med/58975'
p2338
sI2338
S'sci.med/58976'
p2339
sI2339
S'sci.med/58977'
p2340
sI2340
S'sci.med/58978'
p2341
sI2341
S'sci.med/58979'
p2342
sI2342
S'sci.med/58980'
p2343
sI2343
S'sci.med/58981'
p2344
sI2344
S'sci.med/58982'
p2345
sI2345
S'sci.med/58983'
p2346
sI2346
S'sci.med/58984'
p2347
sI2347
S'sci.med/58985'
p2348
sI2348
S'sci.med/58986'
p2349
sI2349
S'sci.med/58987'
p2350
sI2350
S'sci.med/58988'
p2351
sI2351
S'sci.med/58989'
p2352
sI2352
S'sci.med/58990'
p2353
sI2353
S'sci.med/58991'
p2354
sI2354
S'sci.med/58992'
p2355
sI2355
S'sci.med/58993'
p2356
sI2356
S'sci.med/58994'
p2357
sI2357
S'sci.med/58995'
p2358
sI2358
S'sci.med/58996'
p2359
sI2359
S'sci.med/58997'
p2360
sI2360
S'sci.med/58998'
p2361
sI2361
S'sci.med/58999'
p2362
sI2362
S'sci.med/59000'
p2363
sI2363
S'sci.med/59001'
p2364
sI2364
S'sci.med/59002'
p2365
sI2365
S'sci.med/59003'
p2366
sI2366
S'sci.med/59004'
p2367
sI2367
S'sci.med/59006'
p2368
sI2368
S'sci.med/59007'
p2369
sI2369
S'sci.med/59008'
p2370
sI2370
S'sci.med/59009'
p2371
sI2371
S'sci.med/59010'
p2372
sI2372
S'sci.med/59011'
p2373
sI2373
S'sci.med/59012'
p2374
sI2374
S'sci.med/59013'
p2375
sI2375
S'sci.med/59014'
p2376
sI2376
S'sci.med/59015'
p2377
sI2377
S'sci.med/59016'
p2378
sI2378
S'sci.med/59017'
p2379
sI2379
S'sci.med/59018'
p2380
sI2380
S'sci.med/59019'
p2381
sI2381
S'sci.med/59020'
p2382
sI2382
S'sci.med/59021'
p2383
sI2383
S'sci.med/59022'
p2384
sI2384
S'sci.med/59023'
p2385
sI2385
S'sci.med/59024'
p2386
sI2386
S'sci.med/59025'
p2387
sI2387
S'sci.med/59026'
p2388
sI2388
S'sci.med/59027'
p2389
sI2389
S'sci.med/59028'
p2390
sI2390
S'sci.med/59029'
p2391
sI2391
S'sci.med/59030'
p2392
sI2392
S'sci.med/59031'
p2393
sI2393
S'sci.med/59032'
p2394
sI2394
S'sci.med/59033'
p2395
sI2395
S'sci.med/59034'
p2396
sI2396
S'sci.med/59035'
p2397
sI2397
S'sci.med/59036'
p2398
sI2398
S'sci.med/59037'
p2399
sI2399
S'sci.med/59038'
p2400
sI2400
S'sci.med/59039'
p2401
sI2401
S'sci.med/59040'
p2402
sI2402
S'sci.med/59041'
p2403
sI2403
S'sci.med/59042'
p2404
sI2404
S'sci.med/59043'
p2405
sI2405
S'sci.med/59044'
p2406
sI2406
S'sci.med/59045'
p2407
sI2407
S'sci.med/59046'
p2408
sI2408
S'sci.med/59047'
p2409
sI2409
S'sci.med/59048'
p2410
sI2410
S'sci.med/59049'
p2411
sI2411
S'sci.med/59050'
p2412
sI2412
S'sci.med/59051'
p2413
sI2413
S'sci.med/59052'
p2414
sI2414
S'sci.med/59053'
p2415
sI2415
S'sci.med/59054'
p2416
sI2416
S'sci.med/59055'
p2417
sI2417
S'sci.med/59056'
p2418
sI2418
S'sci.med/59057'
p2419
sI2419
S'sci.med/59058'
p2420
sI2420
S'sci.med/59059'
p2421
sI2421
S'sci.med/59060'
p2422
sI2422
S'sci.med/59061'
p2423
sI2423
S'sci.med/59062'
p2424
sI2424
S'sci.med/59063'
p2425
sI2425
S'sci.med/59064'
p2426
sI2426
S'sci.med/59065'
p2427
sI2427
S'sci.med/59066'
p2428
sI2428
S'sci.med/59067'
p2429
sI2429
S'sci.med/59068'
p2430
sI2430
S'sci.med/59069'
p2431
sI2431
S'sci.med/59070'
p2432
sI2432
S'sci.med/59071'
p2433
sI2433
S'sci.med/59072'
p2434
sI2434
S'sci.med/59073'
p2435
sI2435
S'sci.med/59074'
p2436
sI2436
S'sci.med/59075'
p2437
sI2437
S'sci.med/59076'
p2438
sI2438
S'sci.med/59077'
p2439
sI2439
S'sci.med/59078'
p2440
sI2440
S'sci.med/59079'
p2441
sI2441
S'sci.med/59080'
p2442
sI2442
S'sci.med/59081'
p2443
sI2443
S'sci.med/59082'
p2444
sI2444
S'sci.med/59083'
p2445
sI2445
S'sci.med/59084'
p2446
sI2446
S'sci.med/59085'
p2447
sI2447
S'sci.med/59086'
p2448
sI2448
S'sci.med/59087'
p2449
sI2449
S'sci.med/59088'
p2450
sI2450
S'sci.med/59089'
p2451
sI2451
S'sci.med/59090'
p2452
sI2452
S'sci.med/59091'
p2453
sI2453
S'sci.med/59092'
p2454
sI2454
S'sci.med/59093'
p2455
sI2455
S'sci.med/59094'
p2456
sI2456
S'sci.med/59095'
p2457
sI2457
S'sci.med/59096'
p2458
sI2458
S'sci.med/59097'
p2459
sI2459
S'sci.med/59098'
p2460
sI2460
S'sci.med/59099'
p2461
sI2461
S'sci.med/59100'
p2462
sI2462
S'sci.med/59101'
p2463
sI2463
S'sci.med/59102'
p2464
sI2464
S'sci.med/59103'
p2465
sI2465
S'sci.med/59104'
p2466
sI2466
S'sci.med/59105'
p2467
sI2467
S'sci.med/59106'
p2468
sI2468
S'sci.med/59107'
p2469
sI2469
S'sci.med/59108'
p2470
sI2470
S'sci.med/59109'
p2471
sI2471
S'sci.med/59110'
p2472
sI2472
S'sci.med/59111'
p2473
sI2473
S'sci.med/59112'
p2474
sI2474
S'sci.med/59113'
p2475
sI2475
S'sci.med/59114'
p2476
sI2476
S'sci.med/59115'
p2477
sI2477
S'sci.med/59116'
p2478
sI2478
S'sci.med/59117'
p2479
sI2479
S'sci.med/59118'
p2480
sI2480
S'sci.med/59119'
p2481
sI2481
S'sci.med/59120'
p2482
sI2482
S'sci.med/59121'
p2483
sI2483
S'sci.med/59122'
p2484
sI2484
S'sci.med/59123'
p2485
sI2485
S'sci.med/59124'
p2486
sI2486
S'sci.med/59125'
p2487
sI2487
S'sci.med/59126'
p2488
sI2488
S'sci.med/59127'
p2489
sI2489
S'sci.med/59128'
p2490
sI2490
S'sci.med/59129'
p2491
sI2491
S'sci.med/59130'
p2492
sI2492
S'sci.med/59131'
p2493
sI2493
S'sci.med/59132'
p2494
sI2494
S'sci.med/59133'
p2495
sI2495
S'sci.med/59134'
p2496
sI2496
S'sci.med/59135'
p2497
sI2497
S'sci.med/59136'
p2498
sI2498
S'sci.med/59137'
p2499
sI2499
S'sci.med/59138'
p2500
sI2500
S'sci.med/59139'
p2501
sI2501
S'sci.med/59140'
p2502
sI2502
S'sci.med/59141'
p2503
sI2503
S'sci.med/59142'
p2504
sI2504
S'sci.med/59143'
p2505
sI2505
S'sci.med/59144'
p2506
sI2506
S'sci.med/59145'
p2507
sI2507
S'sci.med/59146'
p2508
sI2508
S'sci.med/59147'
p2509
sI2509
S'sci.med/59148'
p2510
sI2510
S'sci.med/59149'
p2511
sI2511
S'sci.med/59150'
p2512
sI2512
S'sci.med/59151'
p2513
sI2513
S'sci.med/59152'
p2514
sI2514
S'sci.med/59153'
p2515
sI2515
S'sci.med/59154'
p2516
sI2516
S'sci.med/59155'
p2517
sI2517
S'sci.med/59156'
p2518
sI2518
S'sci.med/59157'
p2519
sI2519
S'sci.med/59158'
p2520
sI2520
S'sci.med/59159'
p2521
sI2521
S'sci.med/59160'
p2522
sI2522
S'sci.med/59161'
p2523
sI2523
S'sci.med/59162'
p2524
sI2524
S'sci.med/59163'
p2525
sI2525
S'sci.med/59164'
p2526
sI2526
S'sci.med/59165'
p2527
sI2527
S'sci.med/59166'
p2528
sI2528
S'sci.med/59167'
p2529
sI2529
S'sci.med/59168'
p2530
sI2530
S'sci.med/59169'
p2531
sI2531
S'sci.med/59170'
p2532
sI2532
S'sci.med/59171'
p2533
sI2533
S'sci.med/59172'
p2534
sI2534
S'sci.med/59173'
p2535
sI2535
S'sci.med/59174'
p2536
sI2536
S'sci.med/59175'
p2537
sI2537
S'sci.med/59176'
p2538
sI2538
S'sci.med/59178'
p2539
sI2539
S'sci.med/59179'
p2540
sI2540
S'sci.med/59180'
p2541
sI2541
S'sci.med/59181'
p2542
sI2542
S'sci.med/59182'
p2543
sI2543
S'sci.med/59183'
p2544
sI2544
S'sci.med/59184'
p2545
sI2545
S'sci.med/59185'
p2546
sI2546
S'sci.med/59186'
p2547
sI2547
S'sci.med/59187'
p2548
sI2548
S'sci.med/59188'
p2549
sI2549
S'sci.med/59189'
p2550
sI2550
S'sci.med/59190'
p2551
sI2551
S'sci.med/59191'
p2552
sI2552
S'sci.med/59192'
p2553
sI2553
S'sci.med/59193'
p2554
sI2554
S'sci.med/59194'
p2555
sI2555
S'sci.med/59195'
p2556
sI2556
S'sci.med/59196'
p2557
sI2557
S'sci.med/59197'
p2558
sI2558
S'sci.med/59198'
p2559
sI2559
S'sci.med/59199'
p2560
sI2560
S'sci.med/59200'
p2561
sI2561
S'sci.med/59201'
p2562
sI2562
S'sci.med/59202'
p2563
sI2563
S'sci.med/59203'
p2564
sI2564
S'sci.med/59204'
p2565
sI2565
S'sci.med/59205'
p2566
sI2566
S'sci.med/59206'
p2567
sI2567
S'sci.med/59207'
p2568
sI2568
S'sci.med/59208'
p2569
sI2569
S'sci.med/59209'
p2570
sI2570
S'sci.med/59210'
p2571
sI2571
S'sci.med/59211'
p2572
sI2572
S'sci.med/59212'
p2573
sI2573
S'sci.med/59213'
p2574
sI2574
S'sci.med/59214'
p2575
sI2575
S'sci.med/59215'
p2576
sI2576
S'sci.med/59216'
p2577
sI2577
S'sci.med/59217'
p2578
sI2578
S'sci.med/59218'
p2579
sI2579
S'sci.med/59219'
p2580
sI2580
S'sci.med/59220'
p2581
sI2581
S'sci.med/59221'
p2582
sI2582
S'sci.med/59222'
p2583
sI2583
S'sci.med/59223'
p2584
sI2584
S'sci.med/59224'
p2585
sI2585
S'sci.med/59225'
p2586
sI2586
S'sci.med/59226'
p2587
sI2587
S'sci.med/59227'
p2588
sI2588
S'sci.med/59228'
p2589
sI2589
S'sci.med/59229'
p2590
sI2590
S'sci.med/59230'
p2591
sI2591
S'sci.med/59231'
p2592
sI2592
S'sci.med/59232'
p2593
sI2593
S'sci.med/59233'
p2594
sI2594
S'sci.med/59234'
p2595
sI2595
S'sci.med/59235'
p2596
sI2596
S'sci.med/59236'
p2597
sI2597
S'sci.med/59237'
p2598
sI2598
S'sci.med/59238'
p2599
sI2599
S'sci.med/59239'
p2600
sI2600
S'sci.med/59240'
p2601
sI2601
S'sci.med/59241'
p2602
sI2602
S'sci.med/59242'
p2603
sI2603
S'sci.med/59243'
p2604
sI2604
S'sci.med/59244'
p2605
sI2605
S'sci.med/59245'
p2606
sI2606
S'sci.med/59246'
p2607
sI2607
S'sci.med/59247'
p2608
sI2608
S'sci.med/59248'
p2609
sI2609
S'sci.med/59249'
p2610
sI2610
S'sci.med/59250'
p2611
sI2611
S'sci.med/59251'
p2612
sI2612
S'sci.med/59252'
p2613
sI2613
S'sci.med/59253'
p2614
sI2614
S'sci.med/59254'
p2615
sI2615
S'sci.med/59255'
p2616
sI2616
S'sci.med/59256'
p2617
sI2617
S'sci.med/59257'
p2618
sI2618
S'sci.med/59258'
p2619
sI2619
S'sci.med/59259'
p2620
sI2620
S'sci.med/59260'
p2621
sI2621
S'sci.med/59261'
p2622
sI2622
S'sci.med/59262'
p2623
sI2623
S'sci.med/59263'
p2624
sI2624
S'sci.med/59264'
p2625
sI2625
S'sci.med/59265'
p2626
sI2626
S'sci.med/59266'
p2627
sI2627
S'sci.med/59267'
p2628
sI2628
S'sci.med/59268'
p2629
sI2629
S'sci.med/59269'
p2630
sI2630
S'sci.med/59270'
p2631
sI2631
S'sci.med/59271'
p2632
sI2632
S'sci.med/59272'
p2633
sI2633
S'sci.med/59273'
p2634
sI2634
S'sci.med/59274'
p2635
sI2635
S'sci.med/59275'
p2636
sI2636
S'sci.med/59276'
p2637
sI2637
S'sci.med/59277'
p2638
sI2638
S'sci.med/59278'
p2639
sI2639
S'sci.med/59279'
p2640
sI2640
S'sci.med/59280'
p2641
sI2641
S'sci.med/59281'
p2642
sI2642
S'sci.med/59282'
p2643
sI2643
S'sci.med/59283'
p2644
sI2644
S'sci.med/59284'
p2645
sI2645
S'sci.med/59285'
p2646
sI2646
S'sci.med/59286'
p2647
sI2647
S'sci.med/59287'
p2648
sI2648
S'sci.med/59288'
p2649
sI2649
S'sci.med/59289'
p2650
sI2650
S'sci.med/59290'
p2651
sI2651
S'sci.med/59291'
p2652
sI2652
S'sci.med/59292'
p2653
sI2653
S'sci.med/59293'
p2654
sI2654
S'sci.med/59294'
p2655
sI2655
S'sci.med/59295'
p2656
sI2656
S'sci.med/59296'
p2657
sI2657
S'sci.med/59297'
p2658
sI2658
S'sci.med/59298'
p2659
sI2659
S'sci.med/59299'
p2660
sI2660
S'sci.med/59300'
p2661
sI2661
S'sci.med/59301'
p2662
sI2662
S'sci.med/59302'
p2663
sI2663
S'sci.med/59303'
p2664
sI2664
S'sci.med/59304'
p2665
sI2665
S'sci.med/59305'
p2666
sI2666
S'sci.med/59306'
p2667
sI2667
S'sci.med/59307'
p2668
sI2668
S'sci.med/59308'
p2669
sI2669
S'sci.med/59309'
p2670
sI2670
S'sci.med/59310'
p2671
sI2671
S'sci.med/59311'
p2672
sI2672
S'sci.med/59312'
p2673
sI2673
S'sci.med/59313'
p2674
sI2674
S'sci.med/59314'
p2675
sI2675
S'sci.med/59315'
p2676
sI2676
S'sci.med/59316'
p2677
sI2677
S'sci.med/59317'
p2678
sI2678
S'sci.med/59318'
p2679
sI2679
S'sci.med/59319'
p2680
sI2680
S'sci.med/59320'
p2681
sI2681
S'sci.med/59321'
p2682
sI2682
S'sci.med/59322'
p2683
sI2683
S'sci.med/59323'
p2684
sI2684
S'sci.med/59324'
p2685
sI2685
S'sci.med/59325'
p2686
sI2686
S'sci.med/59326'
p2687
sI2687
S'sci.med/59327'
p2688
sI2688
S'sci.med/59328'
p2689
sI2689
S'sci.med/59329'
p2690
sI2690
S'sci.med/59330'
p2691
sI2691
S'sci.med/59331'
p2692
sI2692
S'sci.med/59332'
p2693
sI2693
S'sci.med/59333'
p2694
sI2694
S'sci.med/59334'
p2695
sI2695
S'sci.med/59335'
p2696
sI2696
S'sci.med/59336'
p2697
sI2697
S'sci.med/59337'
p2698
sI2698
S'sci.med/59338'
p2699
sI2699
S'sci.med/59339'
p2700
sI2700
S'sci.med/59340'
p2701
sI2701
S'sci.med/59341'
p2702
sI2702
S'sci.med/59342'
p2703
sI2703
S'sci.med/59343'
p2704
sI2704
S'sci.med/59344'
p2705
sI2705
S'sci.med/59345'
p2706
sI2706
S'sci.med/59346'
p2707
sI2707
S'sci.med/59347'
p2708
sI2708
S'sci.med/59348'
p2709
sI2709
S'sci.med/59349'
p2710
sI2710
S'sci.med/59350'
p2711
sI2711
S'sci.med/59351'
p2712
sI2712
S'sci.med/59352'
p2713
sI2713
S'sci.med/59353'
p2714
sI2714
S'sci.med/59354'
p2715
sI2715
S'sci.med/59355'
p2716
sI2716
S'sci.med/59356'
p2717
sI2717
S'sci.med/59357'
p2718
sI2718
S'sci.med/59358'
p2719
sI2719
S'sci.med/59359'
p2720
sI2720
S'sci.med/59360'
p2721
sI2721
S'sci.med/59361'
p2722
sI2722
S'sci.med/59362'
p2723
sI2723
S'sci.med/59363'
p2724
sI2724
S'sci.med/59364'
p2725
sI2725
S'sci.med/59365'
p2726
sI2726
S'sci.med/59366'
p2727
sI2727
S'sci.med/59367'
p2728
sI2728
S'sci.med/59368'
p2729
sI2729
S'sci.med/59369'
p2730
sI2730
S'sci.med/59370'
p2731
sI2731
S'sci.med/59371'
p2732
sI2732
S'sci.med/59372'
p2733
sI2733
S'sci.med/59373'
p2734
sI2734
S'sci.med/59374'
p2735
sI2735
S'sci.med/59375'
p2736
sI2736
S'sci.med/59376'
p2737
sI2737
S'sci.med/59377'
p2738
sI2738
S'sci.med/59378'
p2739
sI2739
S'sci.med/59379'
p2740
sI2740
S'sci.med/59380'
p2741
sI2741
S'sci.med/59381'
p2742
sI2742
S'sci.med/59382'
p2743
sI2743
S'sci.med/59383'
p2744
sI2744
S'sci.med/59384'
p2745
sI2745
S'sci.med/59385'
p2746
sI2746
S'sci.med/59386'
p2747
sI2747
S'sci.med/59387'
p2748
sI2748
S'sci.med/59388'
p2749
sI2749
S'sci.med/59389'
p2750
sI2750
S'sci.med/59390'
p2751
sI2751
S'sci.med/59391'
p2752
sI2752
S'sci.med/59392'
p2753
sI2753
S'sci.med/59393'
p2754
sI2754
S'sci.med/59394'
p2755
sI2755
S'sci.med/59395'
p2756
sI2756
S'sci.med/59396'
p2757
sI2757
S'sci.med/59397'
p2758
sI2758
S'sci.med/59398'
p2759
sI2759
S'sci.med/59399'
p2760
sI2760
S'sci.med/59400'
p2761
sI2761
S'sci.med/59401'
p2762
sI2762
S'sci.med/59402'
p2763
sI2763
S'sci.med/59403'
p2764
sI2764
S'sci.med/59404'
p2765
sI2765
S'sci.med/59405'
p2766
sI2766
S'sci.med/59406'
p2767
sI2767
S'sci.med/59407'
p2768
sI2768
S'sci.med/59408'
p2769
sI2769
S'sci.med/59409'
p2770
sI2770
S'sci.med/59410'
p2771
sI2771
S'sci.med/59411'
p2772
sI2772
S'sci.med/59412'
p2773
sI2773
S'sci.med/59413'
p2774
sI2774
S'sci.med/59414'
p2775
sI2775
S'sci.med/59415'
p2776
sI2776
S'sci.med/59416'
p2777
sI2777
S'sci.med/59417'
p2778
sI2778
S'sci.med/59418'
p2779
sI2779
S'sci.med/59419'
p2780
sI2780
S'sci.med/59420'
p2781
sI2781
S'sci.med/59421'
p2782
sI2782
S'sci.med/59422'
p2783
sI2783
S'sci.med/59423'
p2784
sI2784
S'sci.med/59424'
p2785
sI2785
S'sci.med/59425'
p2786
sI2786
S'sci.med/59426'
p2787
sI2787
S'sci.med/59427'
p2788
sI2788
S'sci.med/59428'
p2789
sI2789
S'sci.med/59429'
p2790
sI2790
S'sci.med/59430'
p2791
sI2791
S'sci.med/59431'
p2792
sI2792
S'sci.med/59432'
p2793
sI2793
S'sci.med/59433'
p2794
sI2794
S'sci.med/59434'
p2795
sI2795
S'sci.med/59435'
p2796
sI2796
S'sci.med/59436'
p2797
sI2797
S'sci.med/59437'
p2798
sI2798
S'sci.med/59438'
p2799
sI2799
S'sci.med/59439'
p2800
sI2800
S'sci.med/59440'
p2801
sI2801
S'sci.med/59441'
p2802
sI2802
S'sci.med/59442'
p2803
sI2803
S'sci.med/59443'
p2804
sI2804
S'sci.med/59444'
p2805
sI2805
S'sci.med/59445'
p2806
sI2806
S'sci.med/59446'
p2807
sI2807
S'sci.med/59447'
p2808
sI2808
S'sci.med/59448'
p2809
sI2809
S'sci.med/59449'
p2810
sI2810
S'sci.med/59450'
p2811
sI2811
S'sci.med/59451'
p2812
sI2812
S'sci.med/59452'
p2813
sI2813
S'sci.med/59453'
p2814
sI2814
S'sci.med/59454'
p2815
sI2815
S'sci.med/59455'
p2816
sI2816
S'sci.med/59456'
p2817
sI2817
S'sci.med/59457'
p2818
sI2818
S'sci.med/59458'
p2819
sI2819
S'sci.med/59459'
p2820
sI2820
S'sci.med/59460'
p2821
sI2821
S'sci.med/59461'
p2822
sI2822
S'sci.med/59462'
p2823
sI2823
S'sci.med/59463'
p2824
sI2824
S'sci.med/59464'
p2825
sI2825
S'sci.med/59465'
p2826
sI2826
S'sci.med/59466'
p2827
sI2827
S'sci.med/59467'
p2828
sI2828
S'sci.med/59468'
p2829
sI2829
S'sci.med/59469'
p2830
sI2830
S'sci.med/59470'
p2831
sI2831
S'sci.med/59471'
p2832
sI2832
S'sci.med/59472'
p2833
sI2833
S'sci.med/59473'
p2834
sI2834
S'sci.med/59474'
p2835
sI2835
S'sci.med/59475'
p2836
sI2836
S'sci.med/59476'
p2837
sI2837
S'sci.med/59477'
p2838
sI2838
S'sci.med/59478'
p2839
sI2839
S'sci.med/59479'
p2840
sI2840
S'sci.med/59480'
p2841
sI2841
S'sci.med/59481'
p2842
sI2842
S'sci.med/59482'
p2843
sI2843
S'sci.med/59483'
p2844
sI2844
S'sci.med/59484'
p2845
sI2845
S'sci.med/59485'
p2846
sI2846
S'sci.med/59486'
p2847
sI2847
S'sci.med/59487'
p2848
sI2848
S'sci.med/59488'
p2849
sI2849
S'sci.med/59489'
p2850
sI2850
S'sci.med/59490'
p2851
sI2851
S'sci.med/59491'
p2852
sI2852
S'sci.med/59492'
p2853
sI2853
S'sci.med/59493'
p2854
sI2854
S'sci.med/59494'
p2855
sI2855
S'sci.med/59495'
p2856
sI2856
S'sci.med/59496'
p2857
sI2857
S'sci.med/59497'
p2858
sI2858
S'sci.med/59498'
p2859
sI2859
S'sci.med/59499'
p2860
sI2860
S'sci.med/59500'
p2861
sI2861
S'sci.med/59501'
p2862
sI2862
S'sci.med/59502'
p2863
sI2863
S'sci.med/59503'
p2864
sI2864
S'sci.med/59504'
p2865
sI2865
S'sci.med/59505'
p2866
sI2866
S'sci.med/59506'
p2867
sI2867
S'sci.med/59507'
p2868
sI2868
S'sci.med/59508'
p2869
sI2869
S'sci.med/59509'
p2870
sI2870
S'sci.med/59510'
p2871
sI2871
S'sci.med/59511'
p2872
sI2872
S'sci.med/59512'
p2873
sI2873
S'sci.med/59513'
p2874
sI2874
S'sci.med/59514'
p2875
sI2875
S'sci.med/59515'
p2876
sI2876
S'sci.med/59516'
p2877
sI2877
S'sci.med/59517'
p2878
sI2878
S'sci.med/59518'
p2879
sI2879
S'sci.med/59519'
p2880
sI2880
S'sci.med/59520'
p2881
sI2881
S'sci.med/59521'
p2882
sI2882
S'sci.med/59522'
p2883
sI2883
S'sci.med/59523'
p2884
sI2884
S'sci.med/59524'
p2885
sI2885
S'sci.med/59525'
p2886
sI2886
S'sci.med/59526'
p2887
sI2887
S'sci.med/59527'
p2888
sI2888
S'sci.med/59528'
p2889
sI2889
S'sci.med/59529'
p2890
sI2890
S'sci.med/59530'
p2891
sI2891
S'sci.med/59531'
p2892
sI2892
S'sci.med/59532'
p2893
sI2893
S'sci.med/59533'
p2894
sI2894
S'sci.med/59534'
p2895
sI2895
S'sci.med/59535'
p2896
sI2896
S'sci.med/59536'
p2897
sI2897
S'sci.med/59537'
p2898
sI2898
S'sci.med/59538'
p2899
sI2899
S'sci.med/59539'
p2900
sI2900
S'sci.med/59540'
p2901
sI2901
S'sci.med/59541'
p2902
sI2902
S'sci.med/59542'
p2903
sI2903
S'sci.med/59543'
p2904
sI2904
S'sci.med/59544'
p2905
sI2905
S'sci.med/59545'
p2906
sI2906
S'sci.med/59546'
p2907
sI2907
S'sci.med/59547'
p2908
sI2908
S'sci.med/59548'
p2909
sI2909
S'sci.med/59549'
p2910
sI2910
S'sci.med/59550'
p2911
sI2911
S'sci.med/59551'
p2912
sI2912
S'sci.med/59552'
p2913
sI2913
S'sci.med/59553'
p2914
sI2914
S'sci.med/59554'
p2915
sI2915
S'sci.med/59555'
p2916
sI2916
S'sci.med/59556'
p2917
sI2917
S'sci.med/59557'
p2918
sI2918
S'sci.med/59558'
p2919
sI2919
S'sci.med/59559'
p2920
sI2920
S'sci.med/59560'
p2921
sI2921
S'sci.med/59561'
p2922
sI2922
S'sci.med/59562'
p2923
sI2923
S'sci.med/59563'
p2924
sI2924
S'sci.med/59564'
p2925
sI2925
S'sci.med/59565'
p2926
sI2926
S'sci.med/59566'
p2927
sI2927
S'sci.med/59567'
p2928
sI2928
S'sci.med/59568'
p2929
sI2929
S'sci.med/59569'
p2930
sI2930
S'sci.med/59570'
p2931
sI2931
S'sci.med/59571'
p2932
sI2932
S'sci.med/59572'
p2933
sI2933
S'sci.med/59573'
p2934
sI2934
S'sci.med/59574'
p2935
sI2935
S'sci.med/59575'
p2936
sI2936
S'sci.med/59576'
p2937
sI2937
S'sci.med/59577'
p2938
sI2938
S'sci.med/59578'
p2939
sI2939
S'sci.med/59579'
p2940
sI2940
S'sci.med/59580'
p2941
sI2941
S'sci.med/59581'
p2942
sI2942
S'sci.med/59582'
p2943
sI2943
S'sci.med/59583'
p2944
sI2944
S'sci.med/59584'
p2945
sI2945
S'sci.med/59585'
p2946
sI2946
S'sci.med/59586'
p2947
sI2947
S'sci.med/59587'
p2948
sI2948
S'sci.med/59588'
p2949
sI2949
S'sci.med/59589'
p2950
sI2950
S'sci.med/59590'
p2951
sI2951
S'sci.med/59591'
p2952
sI2952
S'sci.med/59592'
p2953
sI2953
S'sci.med/59593'
p2954
sI2954
S'sci.med/59594'
p2955
sI2955
S'sci.med/59595'
p2956
sI2956
S'sci.med/59596'
p2957
sI2957
S'sci.med/59597'
p2958
sI2958
S'sci.med/59598'
p2959
sI2959
S'sci.med/59599'
p2960
sI2960
S'sci.med/59600'
p2961
sI2961
S'sci.med/59601'
p2962
sI2962
S'sci.med/59602'
p2963
sI2963
S'sci.med/59603'
p2964
sI2964
S'sci.med/59604'
p2965
sI2965
S'sci.med/59605'
p2966
sI2966
S'sci.med/59606'
p2967
sI2967
S'sci.med/59615'
p2968
sI2968
S'sci.med/59616'
p2969
sI2969
S'sci.med/59617'
p2970
sI2970
S'sci.med/59619'
p2971
sI2971
S'sci.med/59620'
p2972
sI2972
S'sci.med/59621'
p2973
sI2973
S'sci.med/59622'
p2974
sI2974
S'sci.med/59623'
p2975
sI2975
S'sci.med/59624'
p2976
sI2976
S'sci.med/59625'
p2977
sI2977
S'sci.med/59626'
p2978
sI2978
S'sci.med/59627'
p2979
sI2979
S'sci.med/59628'
p2980
sI2980
S'sci.med/59629'
p2981
sI2981
S'sci.med/59630'
p2982
sI2982
S'sci.med/59631'
p2983
sI2983
S'sci.med/59632'
p2984
sI2984
S'sci.med/59633'
p2985
sI2985
S'sci.med/59634'
p2986
sI2986
S'sci.med/59635'
p2987
sI2987
S'sci.med/59636'
p2988
sI2988
S'sci.med/59637'
p2989
sI2989
S'sci.med/59638'
p2990
sI2990
S'sci.med/59639'
p2991
sI2991
S'sci.med/59640'
p2992
sI2992
S'sci.med/59641'
p2993
sI2993
S'sci.med/59642'
p2994
sI2994
S'sci.med/59643'
p2995
sI2995
S'sci.med/59644'
p2996
sI2996
S'sci.med/59645'
p2997
sI2997
S'sci.med/59646'
p2998
sI2998
S'sci.med/59648'
p2999
sI2999
S'sci.med/59652'
p3000
sI3000
S'comp.graphics/37261'
p3001
sI3001
S'comp.graphics/37913'
p3002
sI3002
S'comp.graphics/37914'
p3003
sI3003
S'comp.graphics/37915'
p3004
sI3004
S'comp.graphics/37916'
p3005
sI3005
S'comp.graphics/37917'
p3006
sI3006
S'comp.graphics/37918'
p3007
sI3007
S'comp.graphics/37919'
p3008
sI3008
S'comp.graphics/37920'
p3009
sI3009
S'comp.graphics/37921'
p3010
sI3010
S'comp.graphics/37922'
p3011
sI3011
S'comp.graphics/37923'
p3012
sI3012
S'comp.graphics/37924'
p3013
sI3013
S'comp.graphics/37925'
p3014
sI3014
S'comp.graphics/37926'
p3015
sI3015
S'comp.graphics/37927'
p3016
sI3016
S'comp.graphics/37928'
p3017
sI3017
S'comp.graphics/37929'
p3018
sI3018
S'comp.graphics/37930'
p3019
sI3019
S'comp.graphics/37931'
p3020
sI3020
S'comp.graphics/37932'
p3021
sI3021
S'comp.graphics/37933'
p3022
sI3022
S'comp.graphics/37934'
p3023
sI3023
S'comp.graphics/37935'
p3024
sI3024
S'comp.graphics/37936'
p3025
sI3025
S'comp.graphics/37937'
p3026
sI3026
S'comp.graphics/37938'
p3027
sI3027
S'comp.graphics/37939'
p3028
sI3028
S'comp.graphics/37940'
p3029
sI3029
S'comp.graphics/37941'
p3030
sI3030
S'comp.graphics/37942'
p3031
sI3031
S'comp.graphics/37943'
p3032
sI3032
S'comp.graphics/37944'
p3033
sI3033
S'comp.graphics/37945'
p3034
sI3034
S'comp.graphics/37946'
p3035
sI3035
S'comp.graphics/37947'
p3036
sI3036
S'comp.graphics/37948'
p3037
sI3037
S'comp.graphics/37949'
p3038
sI3038
S'comp.graphics/37950'
p3039
sI3039
S'comp.graphics/37951'
p3040
sI3040
S'comp.graphics/37952'
p3041
sI3041
S'comp.graphics/37953'
p3042
sI3042
S'comp.graphics/37954'
p3043
sI3043
S'comp.graphics/37955'
p3044
sI3044
S'comp.graphics/37956'
p3045
sI3045
S'comp.graphics/37957'
p3046
sI3046
S'comp.graphics/37958'
p3047
sI3047
S'comp.graphics/37959'
p3048
sI3048
S'comp.graphics/37960'
p3049
sI3049
S'comp.graphics/37961'
p3050
sI3050
S'comp.graphics/37962'
p3051
sI3051
S'comp.graphics/37963'
p3052
sI3052
S'comp.graphics/38099'
p3053
sI3053
S'comp.graphics/38214'
p3054
sI3054
S'comp.graphics/38215'
p3055
sI3055
S'comp.graphics/38216'
p3056
sI3056
S'comp.graphics/38217'
p3057
sI3057
S'comp.graphics/38218'
p3058
sI3058
S'comp.graphics/38219'
p3059
sI3059
S'comp.graphics/38220'
p3060
sI3060
S'comp.graphics/38221'
p3061
sI3061
S'comp.graphics/38222'
p3062
sI3062
S'comp.graphics/38223'
p3063
sI3063
S'comp.graphics/38224'
p3064
sI3064
S'comp.graphics/38225'
p3065
sI3065
S'comp.graphics/38226'
p3066
sI3066
S'comp.graphics/38227'
p3067
sI3067
S'comp.graphics/38228'
p3068
sI3068
S'comp.graphics/38229'
p3069
sI3069
S'comp.graphics/38230'
p3070
sI3070
S'comp.graphics/38231'
p3071
sI3071
S'comp.graphics/38232'
p3072
sI3072
S'comp.graphics/38233'
p3073
sI3073
S'comp.graphics/38234'
p3074
sI3074
S'comp.graphics/38235'
p3075
sI3075
S'comp.graphics/38236'
p3076
sI3076
S'comp.graphics/38237'
p3077
sI3077
S'comp.graphics/38238'
p3078
sI3078
S'comp.graphics/38239'
p3079
sI3079
S'comp.graphics/38240'
p3080
sI3080
S'comp.graphics/38241'
p3081
sI3081
S'comp.graphics/38242'
p3082
sI3082
S'comp.graphics/38243'
p3083
sI3083
S'comp.graphics/38244'
p3084
sI3084
S'comp.graphics/38245'
p3085
sI3085
S'comp.graphics/38246'
p3086
sI3086
S'comp.graphics/38247'
p3087
sI3087
S'comp.graphics/38248'
p3088
sI3088
S'comp.graphics/38249'
p3089
sI3089
S'comp.graphics/38250'
p3090
sI3090
S'comp.graphics/38251'
p3091
sI3091
S'comp.graphics/38252'
p3092
sI3092
S'comp.graphics/38253'
p3093
sI3093
S'comp.graphics/38254'
p3094
sI3094
S'comp.graphics/38255'
p3095
sI3095
S'comp.graphics/38256'
p3096
sI3096
S'comp.graphics/38257'
p3097
sI3097
S'comp.graphics/38258'
p3098
sI3098
S'comp.graphics/38259'
p3099
sI3099
S'comp.graphics/38260'
p3100
sI3100
S'comp.graphics/38261'
p3101
sI3101
S'comp.graphics/38262'
p3102
sI3102
S'comp.graphics/38263'
p3103
sI3103
S'comp.graphics/38264'
p3104
sI3104
S'comp.graphics/38265'
p3105
sI3105
S'comp.graphics/38266'
p3106
sI3106
S'comp.graphics/38267'
p3107
sI3107
S'comp.graphics/38268'
p3108
sI3108
S'comp.graphics/38269'
p3109
sI3109
S'comp.graphics/38270'
p3110
sI3110
S'comp.graphics/38271'
p3111
sI3111
S'comp.graphics/38272'
p3112
sI3112
S'comp.graphics/38273'
p3113
sI3113
S'comp.graphics/38274'
p3114
sI3114
S'comp.graphics/38275'
p3115
sI3115
S'comp.graphics/38276'
p3116
sI3116
S'comp.graphics/38277'
p3117
sI3117
S'comp.graphics/38278'
p3118
sI3118
S'comp.graphics/38279'
p3119
sI3119
S'comp.graphics/38280'
p3120
sI3120
S'comp.graphics/38281'
p3121
sI3121
S'comp.graphics/38282'
p3122
sI3122
S'comp.graphics/38283'
p3123
sI3123
S'comp.graphics/38284'
p3124
sI3124
S'comp.graphics/38285'
p3125
sI3125
S'comp.graphics/38286'
p3126
sI3126
S'comp.graphics/38287'
p3127
sI3127
S'comp.graphics/38288'
p3128
sI3128
S'comp.graphics/38289'
p3129
sI3129
S'comp.graphics/38290'
p3130
sI3130
S'comp.graphics/38291'
p3131
sI3131
S'comp.graphics/38292'
p3132
sI3132
S'comp.graphics/38293'
p3133
sI3133
S'comp.graphics/38294'
p3134
sI3134
S'comp.graphics/38295'
p3135
sI3135
S'comp.graphics/38296'
p3136
sI3136
S'comp.graphics/38297'
p3137
sI3137
S'comp.graphics/38298'
p3138
sI3138
S'comp.graphics/38299'
p3139
sI3139
S'comp.graphics/38300'
p3140
sI3140
S'comp.graphics/38301'
p3141
sI3141
S'comp.graphics/38302'
p3142
sI3142
S'comp.graphics/38303'
p3143
sI3143
S'comp.graphics/38304'
p3144
sI3144
S'comp.graphics/38305'
p3145
sI3145
S'comp.graphics/38306'
p3146
sI3146
S'comp.graphics/38307'
p3147
sI3147
S'comp.graphics/38308'
p3148
sI3148
S'comp.graphics/38309'
p3149
sI3149
S'comp.graphics/38310'
p3150
sI3150
S'comp.graphics/38311'
p3151
sI3151
S'comp.graphics/38312'
p3152
sI3152
S'comp.graphics/38313'
p3153
sI3153
S'comp.graphics/38314'
p3154
sI3154
S'comp.graphics/38315'
p3155
sI3155
S'comp.graphics/38316'
p3156
sI3156
S'comp.graphics/38317'
p3157
sI3157
S'comp.graphics/38318'
p3158
sI3158
S'comp.graphics/38319'
p3159
sI3159
S'comp.graphics/38320'
p3160
sI3160
S'comp.graphics/38321'
p3161
sI3161
S'comp.graphics/38322'
p3162
sI3162
S'comp.graphics/38323'
p3163
sI3163
S'comp.graphics/38324'
p3164
sI3164
S'comp.graphics/38325'
p3165
sI3165
S'comp.graphics/38326'
p3166
sI3166
S'comp.graphics/38327'
p3167
sI3167
S'comp.graphics/38328'
p3168
sI3168
S'comp.graphics/38329'
p3169
sI3169
S'comp.graphics/38330'
p3170
sI3170
S'comp.graphics/38331'
p3171
sI3171
S'comp.graphics/38332'
p3172
sI3172
S'comp.graphics/38333'
p3173
sI3173
S'comp.graphics/38334'
p3174
sI3174
S'comp.graphics/38335'
p3175
sI3175
S'comp.graphics/38336'
p3176
sI3176
S'comp.graphics/38337'
p3177
sI3177
S'comp.graphics/38338'
p3178
sI3178
S'comp.graphics/38339'
p3179
sI3179
S'comp.graphics/38340'
p3180
sI3180
S'comp.graphics/38341'
p3181
sI3181
S'comp.graphics/38342'
p3182
sI3182
S'comp.graphics/38343'
p3183
sI3183
S'comp.graphics/38344'
p3184
sI3184
S'comp.graphics/38345'
p3185
sI3185
S'comp.graphics/38346'
p3186
sI3186
S'comp.graphics/38347'
p3187
sI3187
S'comp.graphics/38348'
p3188
sI3188
S'comp.graphics/38349'
p3189
sI3189
S'comp.graphics/38350'
p3190
sI3190
S'comp.graphics/38351'
p3191
sI3191
S'comp.graphics/38352'
p3192
sI3192
S'comp.graphics/38353'
p3193
sI3193
S'comp.graphics/38354'
p3194
sI3194
S'comp.graphics/38355'
p3195
sI3195
S'comp.graphics/38356'
p3196
sI3196
S'comp.graphics/38357'
p3197
sI3197
S'comp.graphics/38358'
p3198
sI3198
S'comp.graphics/38359'
p3199
sI3199
S'comp.graphics/38360'
p3200
sI3200
S'comp.graphics/38361'
p3201
sI3201
S'comp.graphics/38362'
p3202
sI3202
S'comp.graphics/38363'
p3203
sI3203
S'comp.graphics/38364'
p3204
sI3204
S'comp.graphics/38365'
p3205
sI3205
S'comp.graphics/38366'
p3206
sI3206
S'comp.graphics/38367'
p3207
sI3207
S'comp.graphics/38368'
p3208
sI3208
S'comp.graphics/38369'
p3209
sI3209
S'comp.graphics/38370'
p3210
sI3210
S'comp.graphics/38371'
p3211
sI3211
S'comp.graphics/38372'
p3212
sI3212
S'comp.graphics/38373'
p3213
sI3213
S'comp.graphics/38374'
p3214
sI3214
S'comp.graphics/38375'
p3215
sI3215
S'comp.graphics/38376'
p3216
sI3216
S'comp.graphics/38377'
p3217
sI3217
S'comp.graphics/38378'
p3218
sI3218
S'comp.graphics/38379'
p3219
sI3219
S'comp.graphics/38380'
p3220
sI3220
S'comp.graphics/38381'
p3221
sI3221
S'comp.graphics/38382'
p3222
sI3222
S'comp.graphics/38383'
p3223
sI3223
S'comp.graphics/38384'
p3224
sI3224
S'comp.graphics/38385'
p3225
sI3225
S'comp.graphics/38386'
p3226
sI3226
S'comp.graphics/38387'
p3227
sI3227
S'comp.graphics/38388'
p3228
sI3228
S'comp.graphics/38389'
p3229
sI3229
S'comp.graphics/38390'
p3230
sI3230
S'comp.graphics/38391'
p3231
sI3231
S'comp.graphics/38392'
p3232
sI3232
S'comp.graphics/38393'
p3233
sI3233
S'comp.graphics/38394'
p3234
sI3234
S'comp.graphics/38395'
p3235
sI3235
S'comp.graphics/38396'
p3236
sI3236
S'comp.graphics/38397'
p3237
sI3237
S'comp.graphics/38398'
p3238
sI3238
S'comp.graphics/38399'
p3239
sI3239
S'comp.graphics/38400'
p3240
sI3240
S'comp.graphics/38401'
p3241
sI3241
S'comp.graphics/38402'
p3242
sI3242
S'comp.graphics/38403'
p3243
sI3243
S'comp.graphics/38404'
p3244
sI3244
S'comp.graphics/38405'
p3245
sI3245
S'comp.graphics/38406'
p3246
sI3246
S'comp.graphics/38407'
p3247
sI3247
S'comp.graphics/38408'
p3248
sI3248
S'comp.graphics/38409'
p3249
sI3249
S'comp.graphics/38410'
p3250
sI3250
S'comp.graphics/38411'
p3251
sI3251
S'comp.graphics/38412'
p3252
sI3252
S'comp.graphics/38413'
p3253
sI3253
S'comp.graphics/38414'
p3254
sI3254
S'comp.graphics/38415'
p3255
sI3255
S'comp.graphics/38416'
p3256
sI3256
S'comp.graphics/38417'
p3257
sI3257
S'comp.graphics/38418'
p3258
sI3258
S'comp.graphics/38420'
p3259
sI3259
S'comp.graphics/38421'
p3260
sI3260
S'comp.graphics/38422'
p3261
sI3261
S'comp.graphics/38423'
p3262
sI3262
S'comp.graphics/38424'
p3263
sI3263
S'comp.graphics/38425'
p3264
sI3264
S'comp.graphics/38426'
p3265
sI3265
S'comp.graphics/38427'
p3266
sI3266
S'comp.graphics/38428'
p3267
sI3267
S'comp.graphics/38429'
p3268
sI3268
S'comp.graphics/38430'
p3269
sI3269
S'comp.graphics/38431'
p3270
sI3270
S'comp.graphics/38432'
p3271
sI3271
S'comp.graphics/38433'
p3272
sI3272
S'comp.graphics/38434'
p3273
sI3273
S'comp.graphics/38435'
p3274
sI3274
S'comp.graphics/38436'
p3275
sI3275
S'comp.graphics/38437'
p3276
sI3276
S'comp.graphics/38438'
p3277
sI3277
S'comp.graphics/38439'
p3278
sI3278
S'comp.graphics/38440'
p3279
sI3279
S'comp.graphics/38441'
p3280
sI3280
S'comp.graphics/38442'
p3281
sI3281
S'comp.graphics/38443'
p3282
sI3282
S'comp.graphics/38444'
p3283
sI3283
S'comp.graphics/38445'
p3284
sI3284
S'comp.graphics/38446'
p3285
sI3285
S'comp.graphics/38447'
p3286
sI3286
S'comp.graphics/38448'
p3287
sI3287
S'comp.graphics/38449'
p3288
sI3288
S'comp.graphics/38450'
p3289
sI3289
S'comp.graphics/38451'
p3290
sI3290
S'comp.graphics/38452'
p3291
sI3291
S'comp.graphics/38453'
p3292
sI3292
S'comp.graphics/38454'
p3293
sI3293
S'comp.graphics/38455'
p3294
sI3294
S'comp.graphics/38456'
p3295
sI3295
S'comp.graphics/38457'
p3296
sI3296
S'comp.graphics/38458'
p3297
sI3297
S'comp.graphics/38459'
p3298
sI3298
S'comp.graphics/38460'
p3299
sI3299
S'comp.graphics/38461'
p3300
sI3300
S'comp.graphics/38462'
p3301
sI3301
S'comp.graphics/38463'
p3302
sI3302
S'comp.graphics/38464'
p3303
sI3303
S'comp.graphics/38465'
p3304
sI3304
S'comp.graphics/38466'
p3305
sI3305
S'comp.graphics/38467'
p3306
sI3306
S'comp.graphics/38468'
p3307
sI3307
S'comp.graphics/38469'
p3308
sI3308
S'comp.graphics/38470'
p3309
sI3309
S'comp.graphics/38471'
p3310
sI3310
S'comp.graphics/38472'
p3311
sI3311
S'comp.graphics/38473'
p3312
sI3312
S'comp.graphics/38474'
p3313
sI3313
S'comp.graphics/38475'
p3314
sI3314
S'comp.graphics/38476'
p3315
sI3315
S'comp.graphics/38477'
p3316
sI3316
S'comp.graphics/38478'
p3317
sI3317
S'comp.graphics/38479'
p3318
sI3318
S'comp.graphics/38480'
p3319
sI3319
S'comp.graphics/38481'
p3320
sI3320
S'comp.graphics/38482'
p3321
sI3321
S'comp.graphics/38483'
p3322
sI3322
S'comp.graphics/38484'
p3323
sI3323
S'comp.graphics/38485'
p3324
sI3324
S'comp.graphics/38486'
p3325
sI3325
S'comp.graphics/38487'
p3326
sI3326
S'comp.graphics/38488'
p3327
sI3327
S'comp.graphics/38489'
p3328
sI3328
S'comp.graphics/38490'
p3329
sI3329
S'comp.graphics/38491'
p3330
sI3330
S'comp.graphics/38492'
p3331
sI3331
S'comp.graphics/38493'
p3332
sI3332
S'comp.graphics/38494'
p3333
sI3333
S'comp.graphics/38495'
p3334
sI3334
S'comp.graphics/38496'
p3335
sI3335
S'comp.graphics/38497'
p3336
sI3336
S'comp.graphics/38498'
p3337
sI3337
S'comp.graphics/38499'
p3338
sI3338
S'comp.graphics/38500'
p3339
sI3339
S'comp.graphics/38501'
p3340
sI3340
S'comp.graphics/38502'
p3341
sI3341
S'comp.graphics/38503'
p3342
sI3342
S'comp.graphics/38504'
p3343
sI3343
S'comp.graphics/38505'
p3344
sI3344
S'comp.graphics/38506'
p3345
sI3345
S'comp.graphics/38507'
p3346
sI3346
S'comp.graphics/38508'
p3347
sI3347
S'comp.graphics/38509'
p3348
sI3348
S'comp.graphics/38510'
p3349
sI3349
S'comp.graphics/38511'
p3350
sI3350
S'comp.graphics/38512'
p3351
sI3351
S'comp.graphics/38513'
p3352
sI3352
S'comp.graphics/38514'
p3353
sI3353
S'comp.graphics/38515'
p3354
sI3354
S'comp.graphics/38516'
p3355
sI3355
S'comp.graphics/38517'
p3356
sI3356
S'comp.graphics/38518'
p3357
sI3357
S'comp.graphics/38519'
p3358
sI3358
S'comp.graphics/38520'
p3359
sI3359
S'comp.graphics/38521'
p3360
sI3360
S'comp.graphics/38522'
p3361
sI3361
S'comp.graphics/38523'
p3362
sI3362
S'comp.graphics/38524'
p3363
sI3363
S'comp.graphics/38525'
p3364
sI3364
S'comp.graphics/38526'
p3365
sI3365
S'comp.graphics/38527'
p3366
sI3366
S'comp.graphics/38528'
p3367
sI3367
S'comp.graphics/38529'
p3368
sI3368
S'comp.graphics/38530'
p3369
sI3369
S'comp.graphics/38531'
p3370
sI3370
S'comp.graphics/38532'
p3371
sI3371
S'comp.graphics/38533'
p3372
sI3372
S'comp.graphics/38534'
p3373
sI3373
S'comp.graphics/38535'
p3374
sI3374
S'comp.graphics/38536'
p3375
sI3375
S'comp.graphics/38537'
p3376
sI3376
S'comp.graphics/38538'
p3377
sI3377
S'comp.graphics/38539'
p3378
sI3378
S'comp.graphics/38540'
p3379
sI3379
S'comp.graphics/38541'
p3380
sI3380
S'comp.graphics/38542'
p3381
sI3381
S'comp.graphics/38543'
p3382
sI3382
S'comp.graphics/38544'
p3383
sI3383
S'comp.graphics/38545'
p3384
sI3384
S'comp.graphics/38546'
p3385
sI3385
S'comp.graphics/38547'
p3386
sI3386
S'comp.graphics/38548'
p3387
sI3387
S'comp.graphics/38549'
p3388
sI3388
S'comp.graphics/38550'
p3389
sI3389
S'comp.graphics/38551'
p3390
sI3390
S'comp.graphics/38552'
p3391
sI3391
S'comp.graphics/38553'
p3392
sI3392
S'comp.graphics/38554'
p3393
sI3393
S'comp.graphics/38555'
p3394
sI3394
S'comp.graphics/38556'
p3395
sI3395
S'comp.graphics/38557'
p3396
sI3396
S'comp.graphics/38558'
p3397
sI3397
S'comp.graphics/38559'
p3398
sI3398
S'comp.graphics/38560'
p3399
sI3399
S'comp.graphics/38561'
p3400
sI3400
S'comp.graphics/38562'
p3401
sI3401
S'comp.graphics/38563'
p3402
sI3402
S'comp.graphics/38564'
p3403
sI3403
S'comp.graphics/38565'
p3404
sI3404
S'comp.graphics/38566'
p3405
sI3405
S'comp.graphics/38567'
p3406
sI3406
S'comp.graphics/38568'
p3407
sI3407
S'comp.graphics/38569'
p3408
sI3408
S'comp.graphics/38570'
p3409
sI3409
S'comp.graphics/38571'
p3410
sI3410
S'comp.graphics/38572'
p3411
sI3411
S'comp.graphics/38573'
p3412
sI3412
S'comp.graphics/38574'
p3413
sI3413
S'comp.graphics/38575'
p3414
sI3414
S'comp.graphics/38576'
p3415
sI3415
S'comp.graphics/38577'
p3416
sI3416
S'comp.graphics/38578'
p3417
sI3417
S'comp.graphics/38579'
p3418
sI3418
S'comp.graphics/38580'
p3419
sI3419
S'comp.graphics/38581'
p3420
sI3420
S'comp.graphics/38582'
p3421
sI3421
S'comp.graphics/38583'
p3422
sI3422
S'comp.graphics/38584'
p3423
sI3423
S'comp.graphics/38585'
p3424
sI3424
S'comp.graphics/38586'
p3425
sI3425
S'comp.graphics/38587'
p3426
sI3426
S'comp.graphics/38588'
p3427
sI3427
S'comp.graphics/38589'
p3428
sI3428
S'comp.graphics/38590'
p3429
sI3429
S'comp.graphics/38591'
p3430
sI3430
S'comp.graphics/38592'
p3431
sI3431
S'comp.graphics/38593'
p3432
sI3432
S'comp.graphics/38594'
p3433
sI3433
S'comp.graphics/38595'
p3434
sI3434
S'comp.graphics/38596'
p3435
sI3435
S'comp.graphics/38597'
p3436
sI3436
S'comp.graphics/38598'
p3437
sI3437
S'comp.graphics/38599'
p3438
sI3438
S'comp.graphics/38600'
p3439
sI3439
S'comp.graphics/38601'
p3440
sI3440
S'comp.graphics/38602'
p3441
sI3441
S'comp.graphics/38603'
p3442
sI3442
S'comp.graphics/38604'
p3443
sI3443
S'comp.graphics/38605'
p3444
sI3444
S'comp.graphics/38606'
p3445
sI3445
S'comp.graphics/38607'
p3446
sI3446
S'comp.graphics/38608'
p3447
sI3447
S'comp.graphics/38609'
p3448
sI3448
S'comp.graphics/38610'
p3449
sI3449
S'comp.graphics/38611'
p3450
sI3450
S'comp.graphics/38612'
p3451
sI3451
S'comp.graphics/38613'
p3452
sI3452
S'comp.graphics/38614'
p3453
sI3453
S'comp.graphics/38615'
p3454
sI3454
S'comp.graphics/38616'
p3455
sI3455
S'comp.graphics/38617'
p3456
sI3456
S'comp.graphics/38618'
p3457
sI3457
S'comp.graphics/38619'
p3458
sI3458
S'comp.graphics/38620'
p3459
sI3459
S'comp.graphics/38621'
p3460
sI3460
S'comp.graphics/38622'
p3461
sI3461
S'comp.graphics/38623'
p3462
sI3462
S'comp.graphics/38624'
p3463
sI3463
S'comp.graphics/38625'
p3464
sI3464
S'comp.graphics/38626'
p3465
sI3465
S'comp.graphics/38627'
p3466
sI3466
S'comp.graphics/38628'
p3467
sI3467
S'comp.graphics/38629'
p3468
sI3468
S'comp.graphics/38630'
p3469
sI3469
S'comp.graphics/38631'
p3470
sI3470
S'comp.graphics/38632'
p3471
sI3471
S'comp.graphics/38633'
p3472
sI3472
S'comp.graphics/38634'
p3473
sI3473
S'comp.graphics/38635'
p3474
sI3474
S'comp.graphics/38636'
p3475
sI3475
S'comp.graphics/38637'
p3476
sI3476
S'comp.graphics/38638'
p3477
sI3477
S'comp.graphics/38639'
p3478
sI3478
S'comp.graphics/38640'
p3479
sI3479
S'comp.graphics/38641'
p3480
sI3480
S'comp.graphics/38642'
p3481
sI3481
S'comp.graphics/38643'
p3482
sI3482
S'comp.graphics/38644'
p3483
sI3483
S'comp.graphics/38645'
p3484
sI3484
S'comp.graphics/38646'
p3485
sI3485
S'comp.graphics/38647'
p3486
sI3486
S'comp.graphics/38648'
p3487
sI3487
S'comp.graphics/38649'
p3488
sI3488
S'comp.graphics/38650'
p3489
sI3489
S'comp.graphics/38651'
p3490
sI3490
S'comp.graphics/38652'
p3491
sI3491
S'comp.graphics/38653'
p3492
sI3492
S'comp.graphics/38654'
p3493
sI3493
S'comp.graphics/38655'
p3494
sI3494
S'comp.graphics/38656'
p3495
sI3495
S'comp.graphics/38657'
p3496
sI3496
S'comp.graphics/38658'
p3497
sI3497
S'comp.graphics/38659'
p3498
sI3498
S'comp.graphics/38660'
p3499
sI3499
S'comp.graphics/38661'
p3500
sI3500
S'comp.graphics/38662'
p3501
sI3501
S'comp.graphics/38663'
p3502
sI3502
S'comp.graphics/38664'
p3503
sI3503
S'comp.graphics/38665'
p3504
sI3504
S'comp.graphics/38666'
p3505
sI3505
S'comp.graphics/38667'
p3506
sI3506
S'comp.graphics/38668'
p3507
sI3507
S'comp.graphics/38669'
p3508
sI3508
S'comp.graphics/38670'
p3509
sI3509
S'comp.graphics/38671'
p3510
sI3510
S'comp.graphics/38672'
p3511
sI3511
S'comp.graphics/38673'
p3512
sI3512
S'comp.graphics/38674'
p3513
sI3513
S'comp.graphics/38675'
p3514
sI3514
S'comp.graphics/38676'
p3515
sI3515
S'comp.graphics/38677'
p3516
sI3516
S'comp.graphics/38678'
p3517
sI3517
S'comp.graphics/38679'
p3518
sI3518
S'comp.graphics/38680'
p3519
sI3519
S'comp.graphics/38681'
p3520
sI3520
S'comp.graphics/38682'
p3521
sI3521
S'comp.graphics/38683'
p3522
sI3522
S'comp.graphics/38684'
p3523
sI3523
S'comp.graphics/38685'
p3524
sI3524
S'comp.graphics/38686'
p3525
sI3525
S'comp.graphics/38687'
p3526
sI3526
S'comp.graphics/38688'
p3527
sI3527
S'comp.graphics/38689'
p3528
sI3528
S'comp.graphics/38690'
p3529
sI3529
S'comp.graphics/38691'
p3530
sI3530
S'comp.graphics/38692'
p3531
sI3531
S'comp.graphics/38693'
p3532
sI3532
S'comp.graphics/38694'
p3533
sI3533
S'comp.graphics/38695'
p3534
sI3534
S'comp.graphics/38696'
p3535
sI3535
S'comp.graphics/38697'
p3536
sI3536
S'comp.graphics/38698'
p3537
sI3537
S'comp.graphics/38699'
p3538
sI3538
S'comp.graphics/38700'
p3539
sI3539
S'comp.graphics/38701'
p3540
sI3540
S'comp.graphics/38702'
p3541
sI3541
S'comp.graphics/38703'
p3542
sI3542
S'comp.graphics/38704'
p3543
sI3543
S'comp.graphics/38705'
p3544
sI3544
S'comp.graphics/38706'
p3545
sI3545
S'comp.graphics/38707'
p3546
sI3546
S'comp.graphics/38708'
p3547
sI3547
S'comp.graphics/38709'
p3548
sI3548
S'comp.graphics/38710'
p3549
sI3549
S'comp.graphics/38711'
p3550
sI3550
S'comp.graphics/38712'
p3551
sI3551
S'comp.graphics/38713'
p3552
sI3552
S'comp.graphics/38714'
p3553
sI3553
S'comp.graphics/38715'
p3554
sI3554
S'comp.graphics/38716'
p3555
sI3555
S'comp.graphics/38717'
p3556
sI3556
S'comp.graphics/38718'
p3557
sI3557
S'comp.graphics/38719'
p3558
sI3558
S'comp.graphics/38720'
p3559
sI3559
S'comp.graphics/38721'
p3560
sI3560
S'comp.graphics/38722'
p3561
sI3561
S'comp.graphics/38723'
p3562
sI3562
S'comp.graphics/38724'
p3563
sI3563
S'comp.graphics/38725'
p3564
sI3564
S'comp.graphics/38726'
p3565
sI3565
S'comp.graphics/38727'
p3566
sI3566
S'comp.graphics/38728'
p3567
sI3567
S'comp.graphics/38729'
p3568
sI3568
S'comp.graphics/38730'
p3569
sI3569
S'comp.graphics/38731'
p3570
sI3570
S'comp.graphics/38732'
p3571
sI3571
S'comp.graphics/38733'
p3572
sI3572
S'comp.graphics/38734'
p3573
sI3573
S'comp.graphics/38735'
p3574
sI3574
S'comp.graphics/38736'
p3575
sI3575
S'comp.graphics/38737'
p3576
sI3576
S'comp.graphics/38738'
p3577
sI3577
S'comp.graphics/38739'
p3578
sI3578
S'comp.graphics/38740'
p3579
sI3579
S'comp.graphics/38741'
p3580
sI3580
S'comp.graphics/38742'
p3581
sI3581
S'comp.graphics/38743'
p3582
sI3582
S'comp.graphics/38744'
p3583
sI3583
S'comp.graphics/38745'
p3584
sI3584
S'comp.graphics/38746'
p3585
sI3585
S'comp.graphics/38747'
p3586
sI3586
S'comp.graphics/38748'
p3587
sI3587
S'comp.graphics/38749'
p3588
sI3588
S'comp.graphics/38750'
p3589
sI3589
S'comp.graphics/38751'
p3590
sI3590
S'comp.graphics/38752'
p3591
sI3591
S'comp.graphics/38753'
p3592
sI3592
S'comp.graphics/38754'
p3593
sI3593
S'comp.graphics/38755'
p3594
sI3594
S'comp.graphics/38756'
p3595
sI3595
S'comp.graphics/38757'
p3596
sI3596
S'comp.graphics/38758'
p3597
sI3597
S'comp.graphics/38759'
p3598
sI3598
S'comp.graphics/38760'
p3599
sI3599
S'comp.graphics/38761'
p3600
sI3600
S'comp.graphics/38762'
p3601
sI3601
S'comp.graphics/38763'
p3602
sI3602
S'comp.graphics/38764'
p3603
sI3603
S'comp.graphics/38765'
p3604
sI3604
S'comp.graphics/38766'
p3605
sI3605
S'comp.graphics/38767'
p3606
sI3606
S'comp.graphics/38768'
p3607
sI3607
S'comp.graphics/38769'
p3608
sI3608
S'comp.graphics/38770'
p3609
sI3609
S'comp.graphics/38771'
p3610
sI3610
S'comp.graphics/38772'
p3611
sI3611
S'comp.graphics/38773'
p3612
sI3612
S'comp.graphics/38774'
p3613
sI3613
S'comp.graphics/38775'
p3614
sI3614
S'comp.graphics/38776'
p3615
sI3615
S'comp.graphics/38777'
p3616
sI3616
S'comp.graphics/38778'
p3617
sI3617
S'comp.graphics/38779'
p3618
sI3618
S'comp.graphics/38780'
p3619
sI3619
S'comp.graphics/38781'
p3620
sI3620
S'comp.graphics/38782'
p3621
sI3621
S'comp.graphics/38783'
p3622
sI3622
S'comp.graphics/38784'
p3623
sI3623
S'comp.graphics/38785'
p3624
sI3624
S'comp.graphics/38786'
p3625
sI3625
S'comp.graphics/38787'
p3626
sI3626
S'comp.graphics/38788'
p3627
sI3627
S'comp.graphics/38789'
p3628
sI3628
S'comp.graphics/38790'
p3629
sI3629
S'comp.graphics/38791'
p3630
sI3630
S'comp.graphics/38792'
p3631
sI3631
S'comp.graphics/38793'
p3632
sI3632
S'comp.graphics/38794'
p3633
sI3633
S'comp.graphics/38795'
p3634
sI3634
S'comp.graphics/38796'
p3635
sI3635
S'comp.graphics/38797'
p3636
sI3636
S'comp.graphics/38798'
p3637
sI3637
S'comp.graphics/38799'
p3638
sI3638
S'comp.graphics/38800'
p3639
sI3639
S'comp.graphics/38801'
p3640
sI3640
S'comp.graphics/38802'
p3641
sI3641
S'comp.graphics/38803'
p3642
sI3642
S'comp.graphics/38804'
p3643
sI3643
S'comp.graphics/38805'
p3644
sI3644
S'comp.graphics/38806'
p3645
sI3645
S'comp.graphics/38807'
p3646
sI3646
S'comp.graphics/38808'
p3647
sI3647
S'comp.graphics/38809'
p3648
sI3648
S'comp.graphics/38810'
p3649
sI3649
S'comp.graphics/38811'
p3650
sI3650
S'comp.graphics/38812'
p3651
sI3651
S'comp.graphics/38813'
p3652
sI3652
S'comp.graphics/38814'
p3653
sI3653
S'comp.graphics/38815'
p3654
sI3654
S'comp.graphics/38816'
p3655
sI3655
S'comp.graphics/38817'
p3656
sI3656
S'comp.graphics/38818'
p3657
sI3657
S'comp.graphics/38819'
p3658
sI3658
S'comp.graphics/38820'
p3659
sI3659
S'comp.graphics/38821'
p3660
sI3660
S'comp.graphics/38822'
p3661
sI3661
S'comp.graphics/38823'
p3662
sI3662
S'comp.graphics/38824'
p3663
sI3663
S'comp.graphics/38825'
p3664
sI3664
S'comp.graphics/38826'
p3665
sI3665
S'comp.graphics/38827'
p3666
sI3666
S'comp.graphics/38828'
p3667
sI3667
S'comp.graphics/38829'
p3668
sI3668
S'comp.graphics/38830'
p3669
sI3669
S'comp.graphics/38831'
p3670
sI3670
S'comp.graphics/38832'
p3671
sI3671
S'comp.graphics/38833'
p3672
sI3672
S'comp.graphics/38834'
p3673
sI3673
S'comp.graphics/38835'
p3674
sI3674
S'comp.graphics/38836'
p3675
sI3675
S'comp.graphics/38837'
p3676
sI3676
S'comp.graphics/38838'
p3677
sI3677
S'comp.graphics/38839'
p3678
sI3678
S'comp.graphics/38840'
p3679
sI3679
S'comp.graphics/38841'
p3680
sI3680
S'comp.graphics/38842'
p3681
sI3681
S'comp.graphics/38843'
p3682
sI3682
S'comp.graphics/38844'
p3683
sI3683
S'comp.graphics/38845'
p3684
sI3684
S'comp.graphics/38846'
p3685
sI3685
S'comp.graphics/38847'
p3686
sI3686
S'comp.graphics/38848'
p3687
sI3687
S'comp.graphics/38849'
p3688
sI3688
S'comp.graphics/38850'
p3689
sI3689
S'comp.graphics/38851'
p3690
sI3690
S'comp.graphics/38852'
p3691
sI3691
S'comp.graphics/38853'
p3692
sI3692
S'comp.graphics/38854'
p3693
sI3693
S'comp.graphics/38855'
p3694
sI3694
S'comp.graphics/38856'
p3695
sI3695
S'comp.graphics/38857'
p3696
sI3696
S'comp.graphics/38858'
p3697
sI3697
S'comp.graphics/38859'
p3698
sI3698
S'comp.graphics/38860'
p3699
sI3699
S'comp.graphics/38861'
p3700
sI3700
S'comp.graphics/38862'
p3701
sI3701
S'comp.graphics/38863'
p3702
sI3702
S'comp.graphics/38864'
p3703
sI3703
S'comp.graphics/38865'
p3704
sI3704
S'comp.graphics/38866'
p3705
sI3705
S'comp.graphics/38867'
p3706
sI3706
S'comp.graphics/38868'
p3707
sI3707
S'comp.graphics/38869'
p3708
sI3708
S'comp.graphics/38870'
p3709
sI3709
S'comp.graphics/38871'
p3710
sI3710
S'comp.graphics/38872'
p3711
sI3711
S'comp.graphics/38873'
p3712
sI3712
S'comp.graphics/38874'
p3713
sI3713
S'comp.graphics/38875'
p3714
sI3714
S'comp.graphics/38876'
p3715
sI3715
S'comp.graphics/38877'
p3716
sI3716
S'comp.graphics/38878'
p3717
sI3717
S'comp.graphics/38879'
p3718
sI3718
S'comp.graphics/38880'
p3719
sI3719
S'comp.graphics/38881'
p3720
sI3720
S'comp.graphics/38882'
p3721
sI3721
S'comp.graphics/38883'
p3722
sI3722
S'comp.graphics/38884'
p3723
sI3723
S'comp.graphics/38885'
p3724
sI3724
S'comp.graphics/38886'
p3725
sI3725
S'comp.graphics/38887'
p3726
sI3726
S'comp.graphics/38888'
p3727
sI3727
S'comp.graphics/38889'
p3728
sI3728
S'comp.graphics/38890'
p3729
sI3729
S'comp.graphics/38891'
p3730
sI3730
S'comp.graphics/38892'
p3731
sI3731
S'comp.graphics/38893'
p3732
sI3732
S'comp.graphics/38894'
p3733
sI3733
S'comp.graphics/38895'
p3734
sI3734
S'comp.graphics/38896'
p3735
sI3735
S'comp.graphics/38897'
p3736
sI3736
S'comp.graphics/38898'
p3737
sI3737
S'comp.graphics/38899'
p3738
sI3738
S'comp.graphics/38900'
p3739
sI3739
S'comp.graphics/38901'
p3740
sI3740
S'comp.graphics/38902'
p3741
sI3741
S'comp.graphics/38903'
p3742
sI3742
S'comp.graphics/38904'
p3743
sI3743
S'comp.graphics/38905'
p3744
sI3744
S'comp.graphics/38906'
p3745
sI3745
S'comp.graphics/38907'
p3746
sI3746
S'comp.graphics/38908'
p3747
sI3747
S'comp.graphics/38909'
p3748
sI3748
S'comp.graphics/38910'
p3749
sI3749
S'comp.graphics/38911'
p3750
sI3750
S'comp.graphics/38912'
p3751
sI3751
S'comp.graphics/38913'
p3752
sI3752
S'comp.graphics/38914'
p3753
sI3753
S'comp.graphics/38915'
p3754
sI3754
S'comp.graphics/38916'
p3755
sI3755
S'comp.graphics/38917'
p3756
sI3756
S'comp.graphics/38918'
p3757
sI3757
S'comp.graphics/38919'
p3758
sI3758
S'comp.graphics/38920'
p3759
sI3759
S'comp.graphics/38921'
p3760
sI3760
S'comp.graphics/38922'
p3761
sI3761
S'comp.graphics/38923'
p3762
sI3762
S'comp.graphics/38924'
p3763
sI3763
S'comp.graphics/38925'
p3764
sI3764
S'comp.graphics/38926'
p3765
sI3765
S'comp.graphics/38927'
p3766
sI3766
S'comp.graphics/38928'
p3767
sI3767
S'comp.graphics/38929'
p3768
sI3768
S'comp.graphics/38930'
p3769
sI3769
S'comp.graphics/38931'
p3770
sI3770
S'comp.graphics/38932'
p3771
sI3771
S'comp.graphics/38933'
p3772
sI3772
S'comp.graphics/38934'
p3773
sI3773
S'comp.graphics/38935'
p3774
sI3774
S'comp.graphics/38936'
p3775
sI3775
S'comp.graphics/38937'
p3776
sI3776
S'comp.graphics/38938'
p3777
sI3777
S'comp.graphics/38939'
p3778
sI3778
S'comp.graphics/38940'
p3779
sI3779
S'comp.graphics/38941'
p3780
sI3780
S'comp.graphics/38942'
p3781
sI3781
S'comp.graphics/38943'
p3782
sI3782
S'comp.graphics/38944'
p3783
sI3783
S'comp.graphics/38945'
p3784
sI3784
S'comp.graphics/38946'
p3785
sI3785
S'comp.graphics/38947'
p3786
sI3786
S'comp.graphics/38948'
p3787
sI3787
S'comp.graphics/38949'
p3788
sI3788
S'comp.graphics/38950'
p3789
sI3789
S'comp.graphics/38951'
p3790
sI3790
S'comp.graphics/38952'
p3791
sI3791
S'comp.graphics/38953'
p3792
sI3792
S'comp.graphics/38954'
p3793
sI3793
S'comp.graphics/38955'
p3794
sI3794
S'comp.graphics/38956'
p3795
sI3795
S'comp.graphics/38957'
p3796
sI3796
S'comp.graphics/38958'
p3797
sI3797
S'comp.graphics/38959'
p3798
sI3798
S'comp.graphics/38960'
p3799
sI3799
S'comp.graphics/38961'
p3800
sI3800
S'comp.graphics/38962'
p3801
sI3801
S'comp.graphics/38963'
p3802
sI3802
S'comp.graphics/38964'
p3803
sI3803
S'comp.graphics/38965'
p3804
sI3804
S'comp.graphics/38966'
p3805
sI3805
S'comp.graphics/38967'
p3806
sI3806
S'comp.graphics/38968'
p3807
sI3807
S'comp.graphics/38969'
p3808
sI3808
S'comp.graphics/38970'
p3809
sI3809
S'comp.graphics/38971'
p3810
sI3810
S'comp.graphics/38972'
p3811
sI3811
S'comp.graphics/38973'
p3812
sI3812
S'comp.graphics/38975'
p3813
sI3813
S'comp.graphics/38976'
p3814
sI3814
S'comp.graphics/38977'
p3815
sI3815
S'comp.graphics/38978'
p3816
sI3816
S'comp.graphics/38979'
p3817
sI3817
S'comp.graphics/38980'
p3818
sI3818
S'comp.graphics/38981'
p3819
sI3819
S'comp.graphics/38982'
p3820
sI3820
S'comp.graphics/38983'
p3821
sI3821
S'comp.graphics/38984'
p3822
sI3822
S'comp.graphics/38985'
p3823
sI3823
S'comp.graphics/38986'
p3824
sI3824
S'comp.graphics/38987'
p3825
sI3825
S'comp.graphics/38988'
p3826
sI3826
S'comp.graphics/38989'
p3827
sI3827
S'comp.graphics/38990'
p3828
sI3828
S'comp.graphics/38991'
p3829
sI3829
S'comp.graphics/38992'
p3830
sI3830
S'comp.graphics/38993'
p3831
sI3831
S'comp.graphics/38994'
p3832
sI3832
S'comp.graphics/38995'
p3833
sI3833
S'comp.graphics/38996'
p3834
sI3834
S'comp.graphics/38997'
p3835
sI3835
S'comp.graphics/38998'
p3836
sI3836
S'comp.graphics/38999'
p3837
sI3837
S'comp.graphics/39000'
p3838
sI3838
S'comp.graphics/39001'
p3839
sI3839
S'comp.graphics/39002'
p3840
sI3840
S'comp.graphics/39003'
p3841
sI3841
S'comp.graphics/39004'
p3842
sI3842
S'comp.graphics/39005'
p3843
sI3843
S'comp.graphics/39006'
p3844
sI3844
S'comp.graphics/39007'
p3845
sI3845
S'comp.graphics/39008'
p3846
sI3846
S'comp.graphics/39009'
p3847
sI3847
S'comp.graphics/39010'
p3848
sI3848
S'comp.graphics/39011'
p3849
sI3849
S'comp.graphics/39012'
p3850
sI3850
S'comp.graphics/39013'
p3851
sI3851
S'comp.graphics/39014'
p3852
sI3852
S'comp.graphics/39015'
p3853
sI3853
S'comp.graphics/39016'
p3854
sI3854
S'comp.graphics/39017'
p3855
sI3855
S'comp.graphics/39018'
p3856
sI3856
S'comp.graphics/39019'
p3857
sI3857
S'comp.graphics/39020'
p3858
sI3858
S'comp.graphics/39021'
p3859
sI3859
S'comp.graphics/39022'
p3860
sI3860
S'comp.graphics/39023'
p3861
sI3861
S'comp.graphics/39024'
p3862
sI3862
S'comp.graphics/39025'
p3863
sI3863
S'comp.graphics/39026'
p3864
sI3864
S'comp.graphics/39027'
p3865
sI3865
S'comp.graphics/39028'
p3866
sI3866
S'comp.graphics/39029'
p3867
sI3867
S'comp.graphics/39030'
p3868
sI3868
S'comp.graphics/39031'
p3869
sI3869
S'comp.graphics/39032'
p3870
sI3870
S'comp.graphics/39033'
p3871
sI3871
S'comp.graphics/39034'
p3872
sI3872
S'comp.graphics/39035'
p3873
sI3873
S'comp.graphics/39036'
p3874
sI3874
S'comp.graphics/39037'
p3875
sI3875
S'comp.graphics/39038'
p3876
sI3876
S'comp.graphics/39039'
p3877
sI3877
S'comp.graphics/39040'
p3878
sI3878
S'comp.graphics/39041'
p3879
sI3879
S'comp.graphics/39042'
p3880
sI3880
S'comp.graphics/39043'
p3881
sI3881
S'comp.graphics/39044'
p3882
sI3882
S'comp.graphics/39045'
p3883
sI3883
S'comp.graphics/39046'
p3884
sI3884
S'comp.graphics/39047'
p3885
sI3885
S'comp.graphics/39048'
p3886
sI3886
S'comp.graphics/39049'
p3887
sI3887
S'comp.graphics/39050'
p3888
sI3888
S'comp.graphics/39051'
p3889
sI3889
S'comp.graphics/39052'
p3890
sI3890
S'comp.graphics/39053'
p3891
sI3891
S'comp.graphics/39054'
p3892
sI3892
S'comp.graphics/39055'
p3893
sI3893
S'comp.graphics/39056'
p3894
sI3894
S'comp.graphics/39057'
p3895
sI3895
S'comp.graphics/39058'
p3896
sI3896
S'comp.graphics/39059'
p3897
sI3897
S'comp.graphics/39060'
p3898
sI3898
S'comp.graphics/39061'
p3899
sI3899
S'comp.graphics/39062'
p3900
sI3900
S'comp.graphics/39063'
p3901
sI3901
S'comp.graphics/39064'
p3902
sI3902
S'comp.graphics/39065'
p3903
sI3903
S'comp.graphics/39066'
p3904
sI3904
S'comp.graphics/39067'
p3905
sI3905
S'comp.graphics/39068'
p3906
sI3906
S'comp.graphics/39069'
p3907
sI3907
S'comp.graphics/39070'
p3908
sI3908
S'comp.graphics/39071'
p3909
sI3909
S'comp.graphics/39072'
p3910
sI3910
S'comp.graphics/39073'
p3911
sI3911
S'comp.graphics/39074'
p3912
sI3912
S'comp.graphics/39075'
p3913
sI3913
S'comp.graphics/39076'
p3914
sI3914
S'comp.graphics/39077'
p3915
sI3915
S'comp.graphics/39078'
p3916
sI3916
S'comp.graphics/39079'
p3917
sI3917
S'comp.graphics/39080'
p3918
sI3918
S'comp.graphics/39081'
p3919
sI3919
S'comp.graphics/39082'
p3920
sI3920
S'comp.graphics/39083'
p3921
sI3921
S'comp.graphics/39084'
p3922
sI3922
S'comp.graphics/39487'
p3923
sI3923
S'comp.graphics/39488'
p3924
sI3924
S'comp.graphics/39489'
p3925
sI3925
S'comp.graphics/39490'
p3926
sI3926
S'comp.graphics/39495'
p3927
sI3927
S'comp.graphics/39496'
p3928
sI3928
S'comp.graphics/39497'
p3929
sI3929
S'comp.graphics/39498'
p3930
sI3930
S'comp.graphics/39499'
p3931
sI3931
S'comp.graphics/39500'
p3932
sI3932
S'comp.graphics/39615'
p3933
sI3933
S'comp.graphics/39617'
p3934
sI3934
S'comp.graphics/39618'
p3935
sI3935
S'comp.graphics/39619'
p3936
sI3936
S'comp.graphics/39620'
p3937
sI3937
S'comp.graphics/39621'
p3938
sI3938
S'comp.graphics/39622'
p3939
sI3939
S'comp.graphics/39623'
p3940
sI3940
S'comp.graphics/39624'
p3941
sI3941
S'comp.graphics/39625'
p3942
sI3942
S'comp.graphics/39626'
p3943
sI3943
S'comp.graphics/39627'
p3944
sI3944
S'comp.graphics/39628'
p3945
sI3945
S'comp.graphics/39629'
p3946
sI3946
S'comp.graphics/39630'
p3947
sI3947
S'comp.graphics/39631'
p3948
sI3948
S'comp.graphics/39632'
p3949
sI3949
S'comp.graphics/39633'
p3950
sI3950
S'comp.graphics/39634'
p3951
sI3951
S'comp.graphics/39635'
p3952
sI3952
S'comp.graphics/39636'
p3953
sI3953
S'comp.graphics/39637'
p3954
sI3954
S'comp.graphics/39638'
p3955
sI3955
S'comp.graphics/39639'
p3956
sI3956
S'comp.graphics/39640'
p3957
sI3957
S'comp.graphics/39641'
p3958
sI3958
S'comp.graphics/39642'
p3959
sI3959
S'comp.graphics/39643'
p3960
sI3960
S'comp.graphics/39644'
p3961
sI3961
S'comp.graphics/39645'
p3962
sI3962
S'comp.graphics/39646'
p3963
sI3963
S'comp.graphics/39647'
p3964
sI3964
S'comp.graphics/39648'
p3965
sI3965
S'comp.graphics/39649'
p3966
sI3966
S'comp.graphics/39650'
p3967
sI3967
S'comp.graphics/39651'
p3968
sI3968
S'comp.graphics/39652'
p3969
sI3969
S'comp.graphics/39653'
p3970
sI3970
S'comp.graphics/39654'
p3971
sI3971
S'comp.graphics/39655'
p3972
sI3972
S'comp.graphics/39656'
p3973
sI3973
S'comp.graphics/39657'
p3974
sI3974
S'comp.graphics/39658'
p3975
sI3975
S'comp.graphics/39659'
p3976
sI3976
S'comp.graphics/39660'
p3977
sI3977
S'comp.graphics/39661'
p3978
sI3978
S'comp.graphics/39662'
p3979
sI3979
S'comp.graphics/39663'
p3980
sI3980
S'comp.graphics/39664'
p3981
sI3981
S'comp.graphics/39665'
p3982
sI3982
S'comp.graphics/39666'
p3983
sI3983
S'comp.graphics/39667'
p3984
sI3984
S'comp.graphics/39668'
p3985
sI3985
S'comp.graphics/39669'
p3986
sI3986
S'comp.graphics/39670'
p3987
sI3987
S'comp.graphics/39671'
p3988
sI3988
S'comp.graphics/39672'
p3989
sI3989
S'comp.graphics/39673'
p3990
sI3990
S'comp.graphics/39674'
p3991
sI3991
S'comp.graphics/39675'
p3992
sI3992
S'comp.graphics/39676'
p3993
sI3993
S'comp.graphics/39677'
p3994
sI3994
S'comp.graphics/39736'
p3995
sI3995
S'comp.graphics/39737'
p3996
sI3996
S'comp.graphics/39738'
p3997
sI3997
S'comp.graphics/40008'
p3998
sI3998
S'comp.graphics/40027'
p3999
sI3999
S'comp.graphics/40062'
p4000
sI4000
S'talk.politics.misc/124146'
p4001
sI4001
S'talk.politics.misc/176845'
p4002
sI4002
S'talk.politics.misc/176846'
p4003
sI4003
S'talk.politics.misc/176847'
p4004
sI4004
S'talk.politics.misc/176849'
p4005
sI4005
S'talk.politics.misc/176850'
p4006
sI4006
S'talk.politics.misc/176851'
p4007
sI4007
S'talk.politics.misc/176852'
p4008
sI4008
S'talk.politics.misc/176853'
p4009
sI4009
S'talk.politics.misc/176854'
p4010
sI4010
S'talk.politics.misc/176855'
p4011
sI4011
S'talk.politics.misc/176856'
p4012
sI4012
S'talk.politics.misc/176857'
p4013
sI4013
S'talk.politics.misc/176858'
p4014
sI4014
S'talk.politics.misc/176859'
p4015
sI4015
S'talk.politics.misc/176860'
p4016
sI4016
S'talk.politics.misc/176861'
p4017
sI4017
S'talk.politics.misc/176862'
p4018
sI4018
S'talk.politics.misc/176863'
p4019
sI4019
S'talk.politics.misc/176864'
p4020
sI4020
S'talk.politics.misc/176865'
p4021
sI4021
S'talk.politics.misc/176866'
p4022
sI4022
S'talk.politics.misc/176867'
p4023
sI4023
S'talk.politics.misc/176868'
p4024
sI4024
S'talk.politics.misc/176869'
p4025
sI4025
S'talk.politics.misc/176870'
p4026
sI4026
S'talk.politics.misc/176871'
p4027
sI4027
S'talk.politics.misc/176872'
p4028
sI4028
S'talk.politics.misc/176873'
p4029
sI4029
S'talk.politics.misc/176874'
p4030
sI4030
S'talk.politics.misc/176875'
p4031
sI4031
S'talk.politics.misc/176876'
p4032
sI4032
S'talk.politics.misc/176877'
p4033
sI4033
S'talk.politics.misc/176878'
p4034
sI4034
S'talk.politics.misc/176880'
p4035
sI4035
S'talk.politics.misc/176881'
p4036
sI4036
S'talk.politics.misc/176882'
p4037
sI4037
S'talk.politics.misc/176883'
p4038
sI4038
S'talk.politics.misc/176884'
p4039
sI4039
S'talk.politics.misc/176885'
p4040
sI4040
S'talk.politics.misc/176886'
p4041
sI4041
S'talk.politics.misc/176887'
p4042
sI4042
S'talk.politics.misc/176888'
p4043
sI4043
S'talk.politics.misc/176889'
p4044
sI4044
S'talk.politics.misc/176890'
p4045
sI4045
S'talk.politics.misc/176891'
p4046
sI4046
S'talk.politics.misc/176892'
p4047
sI4047
S'talk.politics.misc/176893'
p4048
sI4048
S'talk.politics.misc/176894'
p4049
sI4049
S'talk.politics.misc/176895'
p4050
sI4050
S'talk.politics.misc/176896'
p4051
sI4051
S'talk.politics.misc/176897'
p4052
sI4052
S'talk.politics.misc/176898'
p4053
sI4053
S'talk.politics.misc/176899'
p4054
sI4054
S'talk.politics.misc/176900'
p4055
sI4055
S'talk.politics.misc/176901'
p4056
sI4056
S'talk.politics.misc/176902'
p4057
sI4057
S'talk.politics.misc/176903'
p4058
sI4058
S'talk.politics.misc/176904'
p4059
sI4059
S'talk.politics.misc/176905'
p4060
sI4060
S'talk.politics.misc/176906'
p4061
sI4061
S'talk.politics.misc/176907'
p4062
sI4062
S'talk.politics.misc/176908'
p4063
sI4063
S'talk.politics.misc/176909'
p4064
sI4064
S'talk.politics.misc/176910'
p4065
sI4065
S'talk.politics.misc/176911'
p4066
sI4066
S'talk.politics.misc/176912'
p4067
sI4067
S'talk.politics.misc/176913'
p4068
sI4068
S'talk.politics.misc/176914'
p4069
sI4069
S'talk.politics.misc/176915'
p4070
sI4070
S'talk.politics.misc/176916'
p4071
sI4071
S'talk.politics.misc/176917'
p4072
sI4072
S'talk.politics.misc/176918'
p4073
sI4073
S'talk.politics.misc/176919'
p4074
sI4074
S'talk.politics.misc/176920'
p4075
sI4075
S'talk.politics.misc/176921'
p4076
sI4076
S'talk.politics.misc/176922'
p4077
sI4077
S'talk.politics.misc/176923'
p4078
sI4078
S'talk.politics.misc/176924'
p4079
sI4079
S'talk.politics.misc/176925'
p4080
sI4080
S'talk.politics.misc/176926'
p4081
sI4081
S'talk.politics.misc/176927'
p4082
sI4082
S'talk.politics.misc/176928'
p4083
sI4083
S'talk.politics.misc/176929'
p4084
sI4084
S'talk.politics.misc/176930'
p4085
sI4085
S'talk.politics.misc/176931'
p4086
sI4086
S'talk.politics.misc/176932'
p4087
sI4087
S'talk.politics.misc/176933'
p4088
sI4088
S'talk.politics.misc/176934'
p4089
sI4089
S'talk.politics.misc/176935'
p4090
sI4090
S'talk.politics.misc/176936'
p4091
sI4091
S'talk.politics.misc/176937'
p4092
sI4092
S'talk.politics.misc/176938'
p4093
sI4093
S'talk.politics.misc/176939'
p4094
sI4094
S'talk.politics.misc/176940'
p4095
sI4095
S'talk.politics.misc/176941'
p4096
sI4096
S'talk.politics.misc/176942'
p4097
sI4097
S'talk.politics.misc/176943'
p4098
sI4098
S'talk.politics.misc/176944'
p4099
sI4099
S'talk.politics.misc/176945'
p4100
sI4100
S'talk.politics.misc/176946'
p4101
sI4101
S'talk.politics.misc/176947'
p4102
sI4102
S'talk.politics.misc/176948'
p4103
sI4103
S'talk.politics.misc/176949'
p4104
sI4104
S'talk.politics.misc/176950'
p4105
sI4105
S'talk.politics.misc/176951'
p4106
sI4106
S'talk.politics.misc/176952'
p4107
sI4107
S'talk.politics.misc/176953'
p4108
sI4108
S'talk.politics.misc/176954'
p4109
sI4109
S'talk.politics.misc/176955'
p4110
sI4110
S'talk.politics.misc/176956'
p4111
sI4111
S'talk.politics.misc/176957'
p4112
sI4112
S'talk.politics.misc/176958'
p4113
sI4113
S'talk.politics.misc/176959'
p4114
sI4114
S'talk.politics.misc/176960'
p4115
sI4115
S'talk.politics.misc/176961'
p4116
sI4116
S'talk.politics.misc/176962'
p4117
sI4117
S'talk.politics.misc/176963'
p4118
sI4118
S'talk.politics.misc/176964'
p4119
sI4119
S'talk.politics.misc/176965'
p4120
sI4120
S'talk.politics.misc/176966'
p4121
sI4121
S'talk.politics.misc/176967'
p4122
sI4122
S'talk.politics.misc/176968'
p4123
sI4123
S'talk.politics.misc/176969'
p4124
sI4124
S'talk.politics.misc/176970'
p4125
sI4125
S'talk.politics.misc/176971'
p4126
sI4126
S'talk.politics.misc/176972'
p4127
sI4127
S'talk.politics.misc/176973'
p4128
sI4128
S'talk.politics.misc/176974'
p4129
sI4129
S'talk.politics.misc/176975'
p4130
sI4130
S'talk.politics.misc/176976'
p4131
sI4131
S'talk.politics.misc/176977'
p4132
sI4132
S'talk.politics.misc/176978'
p4133
sI4133
S'talk.politics.misc/176979'
p4134
sI4134
S'talk.politics.misc/176980'
p4135
sI4135
S'talk.politics.misc/176981'
p4136
sI4136
S'talk.politics.misc/176982'
p4137
sI4137
S'talk.politics.misc/176983'
p4138
sI4138
S'talk.politics.misc/176984'
p4139
sI4139
S'talk.politics.misc/176985'
p4140
sI4140
S'talk.politics.misc/176986'
p4141
sI4141
S'talk.politics.misc/176987'
p4142
sI4142
S'talk.politics.misc/176988'
p4143
sI4143
S'talk.politics.misc/176989'
p4144
sI4144
S'talk.politics.misc/176990'
p4145
sI4145
S'talk.politics.misc/176991'
p4146
sI4146
S'talk.politics.misc/176992'
p4147
sI4147
S'talk.politics.misc/176993'
p4148
sI4148
S'talk.politics.misc/176994'
p4149
sI4149
S'talk.politics.misc/176995'
p4150
sI4150
S'talk.politics.misc/176996'
p4151
sI4151
S'talk.politics.misc/176997'
p4152
sI4152
S'talk.politics.misc/176998'
p4153
sI4153
S'talk.politics.misc/176999'
p4154
sI4154
S'talk.politics.misc/177000'
p4155
sI4155
S'talk.politics.misc/177001'
p4156
sI4156
S'talk.politics.misc/177002'
p4157
sI4157
S'talk.politics.misc/177003'
p4158
sI4158
S'talk.politics.misc/177004'
p4159
sI4159
S'talk.politics.misc/177005'
p4160
sI4160
S'talk.politics.misc/177006'
p4161
sI4161
S'talk.politics.misc/177007'
p4162
sI4162
S'talk.politics.misc/177008'
p4163
sI4163
S'talk.politics.misc/177009'
p4164
sI4164
S'talk.politics.misc/177010'
p4165
sI4165
S'talk.politics.misc/177011'
p4166
sI4166
S'talk.politics.misc/177012'
p4167
sI4167
S'talk.politics.misc/177013'
p4168
sI4168
S'talk.politics.misc/177014'
p4169
sI4169
S'talk.politics.misc/177015'
p4170
sI4170
S'talk.politics.misc/177016'
p4171
sI4171
S'talk.politics.misc/177017'
p4172
sI4172
S'talk.politics.misc/177018'
p4173
sI4173
S'talk.politics.misc/177019'
p4174
sI4174
S'talk.politics.misc/177020'
p4175
sI4175
S'talk.politics.misc/177021'
p4176
sI4176
S'talk.politics.misc/177022'
p4177
sI4177
S'talk.politics.misc/177023'
p4178
sI4178
S'talk.politics.misc/177024'
p4179
sI4179
S'talk.politics.misc/178293'
p4180
sI4180
S'talk.politics.misc/178294'
p4181
sI4181
S'talk.politics.misc/178295'
p4182
sI4182
S'talk.politics.misc/178296'
p4183
sI4183
S'talk.politics.misc/178297'
p4184
sI4184
S'talk.politics.misc/178298'
p4185
sI4185
S'talk.politics.misc/178299'
p4186
sI4186
S'talk.politics.misc/178300'
p4187
sI4187
S'talk.politics.misc/178301'
p4188
sI4188
S'talk.politics.misc/178302'
p4189
sI4189
S'talk.politics.misc/178303'
p4190
sI4190
S'talk.politics.misc/178304'
p4191
sI4191
S'talk.politics.misc/178305'
p4192
sI4192
S'talk.politics.misc/178306'
p4193
sI4193
S'talk.politics.misc/178307'
p4194
sI4194
S'talk.politics.misc/178308'
p4195
sI4195
S'talk.politics.misc/178309'
p4196
sI4196
S'talk.politics.misc/178310'
p4197
sI4197
S'talk.politics.misc/178311'
p4198
sI4198
S'talk.politics.misc/178312'
p4199
sI4199
S'talk.politics.misc/178313'
p4200
sI4200
S'talk.politics.misc/178314'
p4201
sI4201
S'talk.politics.misc/178315'
p4202
sI4202
S'talk.politics.misc/178316'
p4203
sI4203
S'talk.politics.misc/178317'
p4204
sI4204
S'talk.politics.misc/178318'
p4205
sI4205
S'talk.politics.misc/178319'
p4206
sI4206
S'talk.politics.misc/178320'
p4207
sI4207
S'talk.politics.misc/178321'
p4208
sI4208
S'talk.politics.misc/178322'
p4209
sI4209
S'talk.politics.misc/178323'
p4210
sI4210
S'talk.politics.misc/178324'
p4211
sI4211
S'talk.politics.misc/178325'
p4212
sI4212
S'talk.politics.misc/178326'
p4213
sI4213
S'talk.politics.misc/178327'
p4214
sI4214
S'talk.politics.misc/178328'
p4215
sI4215
S'talk.politics.misc/178329'
p4216
sI4216
S'talk.politics.misc/178330'
p4217
sI4217
S'talk.politics.misc/178331'
p4218
sI4218
S'talk.politics.misc/178332'
p4219
sI4219
S'talk.politics.misc/178333'
p4220
sI4220
S'talk.politics.misc/178334'
p4221
sI4221
S'talk.politics.misc/178335'
p4222
sI4222
S'talk.politics.misc/178336'
p4223
sI4223
S'talk.politics.misc/178337'
p4224
sI4224
S'talk.politics.misc/178338'
p4225
sI4225
S'talk.politics.misc/178339'
p4226
sI4226
S'talk.politics.misc/178340'
p4227
sI4227
S'talk.politics.misc/178341'
p4228
sI4228
S'talk.politics.misc/178342'
p4229
sI4229
S'talk.politics.misc/178343'
p4230
sI4230
S'talk.politics.misc/178344'
p4231
sI4231
S'talk.politics.misc/178345'
p4232
sI4232
S'talk.politics.misc/178346'
p4233
sI4233
S'talk.politics.misc/178347'
p4234
sI4234
S'talk.politics.misc/178348'
p4235
sI4235
S'talk.politics.misc/178349'
p4236
sI4236
S'talk.politics.misc/178350'
p4237
sI4237
S'talk.politics.misc/178351'
p4238
sI4238
S'talk.politics.misc/178352'
p4239
sI4239
S'talk.politics.misc/178353'
p4240
sI4240
S'talk.politics.misc/178354'
p4241
sI4241
S'talk.politics.misc/178355'
p4242
sI4242
S'talk.politics.misc/178356'
p4243
sI4243
S'talk.politics.misc/178357'
p4244
sI4244
S'talk.politics.misc/178358'
p4245
sI4245
S'talk.politics.misc/178359'
p4246
sI4246
S'talk.politics.misc/178360'
p4247
sI4247
S'talk.politics.misc/178361'
p4248
sI4248
S'talk.politics.misc/178362'
p4249
sI4249
S'talk.politics.misc/178363'
p4250
sI4250
S'talk.politics.misc/178364'
p4251
sI4251
S'talk.politics.misc/178365'
p4252
sI4252
S'talk.politics.misc/178366'
p4253
sI4253
S'talk.politics.misc/178367'
p4254
sI4254
S'talk.politics.misc/178368'
p4255
sI4255
S'talk.politics.misc/178369'
p4256
sI4256
S'talk.politics.misc/178370'
p4257
sI4257
S'talk.politics.misc/178371'
p4258
sI4258
S'talk.politics.misc/178372'
p4259
sI4259
S'talk.politics.misc/178373'
p4260
sI4260
S'talk.politics.misc/178374'
p4261
sI4261
S'talk.politics.misc/178375'
p4262
sI4262
S'talk.politics.misc/178376'
p4263
sI4263
S'talk.politics.misc/178377'
p4264
sI4264
S'talk.politics.misc/178378'
p4265
sI4265
S'talk.politics.misc/178379'
p4266
sI4266
S'talk.politics.misc/178380'
p4267
sI4267
S'talk.politics.misc/178381'
p4268
sI4268
S'talk.politics.misc/178382'
p4269
sI4269
S'talk.politics.misc/178383'
p4270
sI4270
S'talk.politics.misc/178384'
p4271
sI4271
S'talk.politics.misc/178385'
p4272
sI4272
S'talk.politics.misc/178386'
p4273
sI4273
S'talk.politics.misc/178387'
p4274
sI4274
S'talk.politics.misc/178388'
p4275
sI4275
S'talk.politics.misc/178389'
p4276
sI4276
S'talk.politics.misc/178390'
p4277
sI4277
S'talk.politics.misc/178391'
p4278
sI4278
S'talk.politics.misc/178392'
p4279
sI4279
S'talk.politics.misc/178393'
p4280
sI4280
S'talk.politics.misc/178394'
p4281
sI4281
S'talk.politics.misc/178395'
p4282
sI4282
S'talk.politics.misc/178396'
p4283
sI4283
S'talk.politics.misc/178397'
p4284
sI4284
S'talk.politics.misc/178398'
p4285
sI4285
S'talk.politics.misc/178399'
p4286
sI4286
S'talk.politics.misc/178400'
p4287
sI4287
S'talk.politics.misc/178401'
p4288
sI4288
S'talk.politics.misc/178402'
p4289
sI4289
S'talk.politics.misc/178403'
p4290
sI4290
S'talk.politics.misc/178404'
p4291
sI4291
S'talk.politics.misc/178405'
p4292
sI4292
S'talk.politics.misc/178406'
p4293
sI4293
S'talk.politics.misc/178407'
p4294
sI4294
S'talk.politics.misc/178408'
p4295
sI4295
S'talk.politics.misc/178409'
p4296
sI4296
S'talk.politics.misc/178410'
p4297
sI4297
S'talk.politics.misc/178411'
p4298
sI4298
S'talk.politics.misc/178412'
p4299
sI4299
S'talk.politics.misc/178413'
p4300
sI4300
S'talk.politics.misc/178414'
p4301
sI4301
S'talk.politics.misc/178415'
p4302
sI4302
S'talk.politics.misc/178416'
p4303
sI4303
S'talk.politics.misc/178417'
p4304
sI4304
S'talk.politics.misc/178418'
p4305
sI4305
S'talk.politics.misc/178419'
p4306
sI4306
S'talk.politics.misc/178420'
p4307
sI4307
S'talk.politics.misc/178421'
p4308
sI4308
S'talk.politics.misc/178422'
p4309
sI4309
S'talk.politics.misc/178423'
p4310
sI4310
S'talk.politics.misc/178424'
p4311
sI4311
S'talk.politics.misc/178425'
p4312
sI4312
S'talk.politics.misc/178426'
p4313
sI4313
S'talk.politics.misc/178427'
p4314
sI4314
S'talk.politics.misc/178428'
p4315
sI4315
S'talk.politics.misc/178429'
p4316
sI4316
S'talk.politics.misc/178430'
p4317
sI4317
S'talk.politics.misc/178431'
p4318
sI4318
S'talk.politics.misc/178432'
p4319
sI4319
S'talk.politics.misc/178433'
p4320
sI4320
S'talk.politics.misc/178434'
p4321
sI4321
S'talk.politics.misc/178435'
p4322
sI4322
S'talk.politics.misc/178436'
p4323
sI4323
S'talk.politics.misc/178437'
p4324
sI4324
S'talk.politics.misc/178438'
p4325
sI4325
S'talk.politics.misc/178439'
p4326
sI4326
S'talk.politics.misc/178440'
p4327
sI4327
S'talk.politics.misc/178441'
p4328
sI4328
S'talk.politics.misc/178442'
p4329
sI4329
S'talk.politics.misc/178443'
p4330
sI4330
S'talk.politics.misc/178444'
p4331
sI4331
S'talk.politics.misc/178445'
p4332
sI4332
S'talk.politics.misc/178446'
p4333
sI4333
S'talk.politics.misc/178447'
p4334
sI4334
S'talk.politics.misc/178448'
p4335
sI4335
S'talk.politics.misc/178449'
p4336
sI4336
S'talk.politics.misc/178450'
p4337
sI4337
S'talk.politics.misc/178451'
p4338
sI4338
S'talk.politics.misc/178452'
p4339
sI4339
S'talk.politics.misc/178453'
p4340
sI4340
S'talk.politics.misc/178454'
p4341
sI4341
S'talk.politics.misc/178455'
p4342
sI4342
S'talk.politics.misc/178456'
p4343
sI4343
S'talk.politics.misc/178457'
p4344
sI4344
S'talk.politics.misc/178458'
p4345
sI4345
S'talk.politics.misc/178459'
p4346
sI4346
S'talk.politics.misc/178460'
p4347
sI4347
S'talk.politics.misc/178461'
p4348
sI4348
S'talk.politics.misc/178462'
p4349
sI4349
S'talk.politics.misc/178463'
p4350
sI4350
S'talk.politics.misc/178464'
p4351
sI4351
S'talk.politics.misc/178465'
p4352
sI4352
S'talk.politics.misc/178466'
p4353
sI4353
S'talk.politics.misc/178467'
p4354
sI4354
S'talk.politics.misc/178468'
p4355
sI4355
S'talk.politics.misc/178469'
p4356
sI4356
S'talk.politics.misc/178470'
p4357
sI4357
S'talk.politics.misc/178471'
p4358
sI4358
S'talk.politics.misc/178472'
p4359
sI4359
S'talk.politics.misc/178473'
p4360
sI4360
S'talk.politics.misc/178474'
p4361
sI4361
S'talk.politics.misc/178475'
p4362
sI4362
S'talk.politics.misc/178476'
p4363
sI4363
S'talk.politics.misc/178477'
p4364
sI4364
S'talk.politics.misc/178478'
p4365
sI4365
S'talk.politics.misc/178479'
p4366
sI4366
S'talk.politics.misc/178480'
p4367
sI4367
S'talk.politics.misc/178481'
p4368
sI4368
S'talk.politics.misc/178482'
p4369
sI4369
S'talk.politics.misc/178483'
p4370
sI4370
S'talk.politics.misc/178484'
p4371
sI4371
S'talk.politics.misc/178485'
p4372
sI4372
S'talk.politics.misc/178486'
p4373
sI4373
S'talk.politics.misc/178487'
p4374
sI4374
S'talk.politics.misc/178488'
p4375
sI4375
S'talk.politics.misc/178489'
p4376
sI4376
S'talk.politics.misc/178490'
p4377
sI4377
S'talk.politics.misc/178491'
p4378
sI4378
S'talk.politics.misc/178492'
p4379
sI4379
S'talk.politics.misc/178493'
p4380
sI4380
S'talk.politics.misc/178494'
p4381
sI4381
S'talk.politics.misc/178495'
p4382
sI4382
S'talk.politics.misc/178496'
p4383
sI4383
S'talk.politics.misc/178497'
p4384
sI4384
S'talk.politics.misc/178498'
p4385
sI4385
S'talk.politics.misc/178499'
p4386
sI4386
S'talk.politics.misc/178500'
p4387
sI4387
S'talk.politics.misc/178501'
p4388
sI4388
S'talk.politics.misc/178502'
p4389
sI4389
S'talk.politics.misc/178503'
p4390
sI4390
S'talk.politics.misc/178504'
p4391
sI4391
S'talk.politics.misc/178505'
p4392
sI4392
S'talk.politics.misc/178506'
p4393
sI4393
S'talk.politics.misc/178507'
p4394
sI4394
S'talk.politics.misc/178508'
p4395
sI4395
S'talk.politics.misc/178509'
p4396
sI4396
S'talk.politics.misc/178510'
p4397
sI4397
S'talk.politics.misc/178511'
p4398
sI4398
S'talk.politics.misc/178512'
p4399
sI4399
S'talk.politics.misc/178513'
p4400
sI4400
S'talk.politics.misc/178514'
p4401
sI4401
S'talk.politics.misc/178515'
p4402
sI4402
S'talk.politics.misc/178516'
p4403
sI4403
S'talk.politics.misc/178517'
p4404
sI4404
S'talk.politics.misc/178518'
p4405
sI4405
S'talk.politics.misc/178519'
p4406
sI4406
S'talk.politics.misc/178520'
p4407
sI4407
S'talk.politics.misc/178521'
p4408
sI4408
S'talk.politics.misc/178522'
p4409
sI4409
S'talk.politics.misc/178523'
p4410
sI4410
S'talk.politics.misc/178524'
p4411
sI4411
S'talk.politics.misc/178525'
p4412
sI4412
S'talk.politics.misc/178526'
p4413
sI4413
S'talk.politics.misc/178527'
p4414
sI4414
S'talk.politics.misc/178528'
p4415
sI4415
S'talk.politics.misc/178529'
p4416
sI4416
S'talk.politics.misc/178530'
p4417
sI4417
S'talk.politics.misc/178531'
p4418
sI4418
S'talk.politics.misc/178532'
p4419
sI4419
S'talk.politics.misc/178533'
p4420
sI4420
S'talk.politics.misc/178534'
p4421
sI4421
S'talk.politics.misc/178535'
p4422
sI4422
S'talk.politics.misc/178536'
p4423
sI4423
S'talk.politics.misc/178537'
p4424
sI4424
S'talk.politics.misc/178538'
p4425
sI4425
S'talk.politics.misc/178539'
p4426
sI4426
S'talk.politics.misc/178540'
p4427
sI4427
S'talk.politics.misc/178541'
p4428
sI4428
S'talk.politics.misc/178542'
p4429
sI4429
S'talk.politics.misc/178543'
p4430
sI4430
S'talk.politics.misc/178544'
p4431
sI4431
S'talk.politics.misc/178545'
p4432
sI4432
S'talk.politics.misc/178546'
p4433
sI4433
S'talk.politics.misc/178547'
p4434
sI4434
S'talk.politics.misc/178548'
p4435
sI4435
S'talk.politics.misc/178549'
p4436
sI4436
S'talk.politics.misc/178550'
p4437
sI4437
S'talk.politics.misc/178551'
p4438
sI4438
S'talk.politics.misc/178552'
p4439
sI4439
S'talk.politics.misc/178553'
p4440
sI4440
S'talk.politics.misc/178554'
p4441
sI4441
S'talk.politics.misc/178555'
p4442
sI4442
S'talk.politics.misc/178556'
p4443
sI4443
S'talk.politics.misc/178557'
p4444
sI4444
S'talk.politics.misc/178558'
p4445
sI4445
S'talk.politics.misc/178559'
p4446
sI4446
S'talk.politics.misc/178560'
p4447
sI4447
S'talk.politics.misc/178561'
p4448
sI4448
S'talk.politics.misc/178562'
p4449
sI4449
S'talk.politics.misc/178563'
p4450
sI4450
S'talk.politics.misc/178564'
p4451
sI4451
S'talk.politics.misc/178565'
p4452
sI4452
S'talk.politics.misc/178566'
p4453
sI4453
S'talk.politics.misc/178567'
p4454
sI4454
S'talk.politics.misc/178568'
p4455
sI4455
S'talk.politics.misc/178569'
p4456
sI4456
S'talk.politics.misc/178570'
p4457
sI4457
S'talk.politics.misc/178571'
p4458
sI4458
S'talk.politics.misc/178572'
p4459
sI4459
S'talk.politics.misc/178573'
p4460
sI4460
S'talk.politics.misc/178574'
p4461
sI4461
S'talk.politics.misc/178575'
p4462
sI4462
S'talk.politics.misc/178576'
p4463
sI4463
S'talk.politics.misc/178577'
p4464
sI4464
S'talk.politics.misc/178578'
p4465
sI4465
S'talk.politics.misc/178579'
p4466
sI4466
S'talk.politics.misc/178581'
p4467
sI4467
S'talk.politics.misc/178582'
p4468
sI4468
S'talk.politics.misc/178583'
p4469
sI4469
S'talk.politics.misc/178584'
p4470
sI4470
S'talk.politics.misc/178585'
p4471
sI4471
S'talk.politics.misc/178586'
p4472
sI4472
S'talk.politics.misc/178587'
p4473
sI4473
S'talk.politics.misc/178588'
p4474
sI4474
S'talk.politics.misc/178589'
p4475
sI4475
S'talk.politics.misc/178590'
p4476
sI4476
S'talk.politics.misc/178591'
p4477
sI4477
S'talk.politics.misc/178592'
p4478
sI4478
S'talk.politics.misc/178593'
p4479
sI4479
S'talk.politics.misc/178594'
p4480
sI4480
S'talk.politics.misc/178595'
p4481
sI4481
S'talk.politics.misc/178596'
p4482
sI4482
S'talk.politics.misc/178597'
p4483
sI4483
S'talk.politics.misc/178598'
p4484
sI4484
S'talk.politics.misc/178599'
p4485
sI4485
S'talk.politics.misc/178600'
p4486
sI4486
S'talk.politics.misc/178601'
p4487
sI4487
S'talk.politics.misc/178602'
p4488
sI4488
S'talk.politics.misc/178603'
p4489
sI4489
S'talk.politics.misc/178604'
p4490
sI4490
S'talk.politics.misc/178605'
p4491
sI4491
S'talk.politics.misc/178606'
p4492
sI4492
S'talk.politics.misc/178607'
p4493
sI4493
S'talk.politics.misc/178608'
p4494
sI4494
S'talk.politics.misc/178609'
p4495
sI4495
S'talk.politics.misc/178610'
p4496
sI4496
S'talk.politics.misc/178611'
p4497
sI4497
S'talk.politics.misc/178612'
p4498
sI4498
S'talk.politics.misc/178613'
p4499
sI4499
S'talk.politics.misc/178614'
p4500
sI4500
S'talk.politics.misc/178615'
p4501
sI4501
S'talk.politics.misc/178616'
p4502
sI4502
S'talk.politics.misc/178617'
p4503
sI4503
S'talk.politics.misc/178618'
p4504
sI4504
S'talk.politics.misc/178619'
p4505
sI4505
S'talk.politics.misc/178620'
p4506
sI4506
S'talk.politics.misc/178621'
p4507
sI4507
S'talk.politics.misc/178622'
p4508
sI4508
S'talk.politics.misc/178623'
p4509
sI4509
S'talk.politics.misc/178624'
p4510
sI4510
S'talk.politics.misc/178625'
p4511
sI4511
S'talk.politics.misc/178626'
p4512
sI4512
S'talk.politics.misc/178627'
p4513
sI4513
S'talk.politics.misc/178628'
p4514
sI4514
S'talk.politics.misc/178629'
p4515
sI4515
S'talk.politics.misc/178630'
p4516
sI4516
S'talk.politics.misc/178631'
p4517
sI4517
S'talk.politics.misc/178632'
p4518
sI4518
S'talk.politics.misc/178633'
p4519
sI4519
S'talk.politics.misc/178634'
p4520
sI4520
S'talk.politics.misc/178635'
p4521
sI4521
S'talk.politics.misc/178636'
p4522
sI4522
S'talk.politics.misc/178637'
p4523
sI4523
S'talk.politics.misc/178638'
p4524
sI4524
S'talk.politics.misc/178639'
p4525
sI4525
S'talk.politics.misc/178640'
p4526
sI4526
S'talk.politics.misc/178641'
p4527
sI4527
S'talk.politics.misc/178642'
p4528
sI4528
S'talk.politics.misc/178643'
p4529
sI4529
S'talk.politics.misc/178644'
p4530
sI4530
S'talk.politics.misc/178645'
p4531
sI4531
S'talk.politics.misc/178646'
p4532
sI4532
S'talk.politics.misc/178647'
p4533
sI4533
S'talk.politics.misc/178648'
p4534
sI4534
S'talk.politics.misc/178649'
p4535
sI4535
S'talk.politics.misc/178650'
p4536
sI4536
S'talk.politics.misc/178651'
p4537
sI4537
S'talk.politics.misc/178652'
p4538
sI4538
S'talk.politics.misc/178653'
p4539
sI4539
S'talk.politics.misc/178654'
p4540
sI4540
S'talk.politics.misc/178655'
p4541
sI4541
S'talk.politics.misc/178656'
p4542
sI4542
S'talk.politics.misc/178657'
p4543
sI4543
S'talk.politics.misc/178658'
p4544
sI4544
S'talk.politics.misc/178659'
p4545
sI4545
S'talk.politics.misc/178660'
p4546
sI4546
S'talk.politics.misc/178661'
p4547
sI4547
S'talk.politics.misc/178662'
p4548
sI4548
S'talk.politics.misc/178663'
p4549
sI4549
S'talk.politics.misc/178664'
p4550
sI4550
S'talk.politics.misc/178665'
p4551
sI4551
S'talk.politics.misc/178666'
p4552
sI4552
S'talk.politics.misc/178667'
p4553
sI4553
S'talk.politics.misc/178668'
p4554
sI4554
S'talk.politics.misc/178669'
p4555
sI4555
S'talk.politics.misc/178670'
p4556
sI4556
S'talk.politics.misc/178671'
p4557
sI4557
S'talk.politics.misc/178672'
p4558
sI4558
S'talk.politics.misc/178673'
p4559
sI4559
S'talk.politics.misc/178674'
p4560
sI4560
S'talk.politics.misc/178675'
p4561
sI4561
S'talk.politics.misc/178676'
p4562
sI4562
S'talk.politics.misc/178677'
p4563
sI4563
S'talk.politics.misc/178678'
p4564
sI4564
S'talk.politics.misc/178679'
p4565
sI4565
S'talk.politics.misc/178680'
p4566
sI4566
S'talk.politics.misc/178681'
p4567
sI4567
S'talk.politics.misc/178682'
p4568
sI4568
S'talk.politics.misc/178683'
p4569
sI4569
S'talk.politics.misc/178684'
p4570
sI4570
S'talk.politics.misc/178685'
p4571
sI4571
S'talk.politics.misc/178686'
p4572
sI4572
S'talk.politics.misc/178687'
p4573
sI4573
S'talk.politics.misc/178688'
p4574
sI4574
S'talk.politics.misc/178689'
p4575
sI4575
S'talk.politics.misc/178690'
p4576
sI4576
S'talk.politics.misc/178691'
p4577
sI4577
S'talk.politics.misc/178692'
p4578
sI4578
S'talk.politics.misc/178693'
p4579
sI4579
S'talk.politics.misc/178694'
p4580
sI4580
S'talk.politics.misc/178695'
p4581
sI4581
S'talk.politics.misc/178696'
p4582
sI4582
S'talk.politics.misc/178697'
p4583
sI4583
S'talk.politics.misc/178698'
p4584
sI4584
S'talk.politics.misc/178699'
p4585
sI4585
S'talk.politics.misc/178700'
p4586
sI4586
S'talk.politics.misc/178701'
p4587
sI4587
S'talk.politics.misc/178702'
p4588
sI4588
S'talk.politics.misc/178703'
p4589
sI4589
S'talk.politics.misc/178704'
p4590
sI4590
S'talk.politics.misc/178705'
p4591
sI4591
S'talk.politics.misc/178706'
p4592
sI4592
S'talk.politics.misc/178707'
p4593
sI4593
S'talk.politics.misc/178708'
p4594
sI4594
S'talk.politics.misc/178709'
p4595
sI4595
S'talk.politics.misc/178710'
p4596
sI4596
S'talk.politics.misc/178711'
p4597
sI4597
S'talk.politics.misc/178712'
p4598
sI4598
S'talk.politics.misc/178713'
p4599
sI4599
S'talk.politics.misc/178714'
p4600
sI4600
S'talk.politics.misc/178715'
p4601
sI4601
S'talk.politics.misc/178716'
p4602
sI4602
S'talk.politics.misc/178717'
p4603
sI4603
S'talk.politics.misc/178718'
p4604
sI4604
S'talk.politics.misc/178719'
p4605
sI4605
S'talk.politics.misc/178720'
p4606
sI4606
S'talk.politics.misc/178721'
p4607
sI4607
S'talk.politics.misc/178722'
p4608
sI4608
S'talk.politics.misc/178723'
p4609
sI4609
S'talk.politics.misc/178724'
p4610
sI4610
S'talk.politics.misc/178725'
p4611
sI4611
S'talk.politics.misc/178727'
p4612
sI4612
S'talk.politics.misc/178728'
p4613
sI4613
S'talk.politics.misc/178729'
p4614
sI4614
S'talk.politics.misc/178730'
p4615
sI4615
S'talk.politics.misc/178731'
p4616
sI4616
S'talk.politics.misc/178732'
p4617
sI4617
S'talk.politics.misc/178733'
p4618
sI4618
S'talk.politics.misc/178734'
p4619
sI4619
S'talk.politics.misc/178735'
p4620
sI4620
S'talk.politics.misc/178736'
p4621
sI4621
S'talk.politics.misc/178737'
p4622
sI4622
S'talk.politics.misc/178738'
p4623
sI4623
S'talk.politics.misc/178739'
p4624
sI4624
S'talk.politics.misc/178740'
p4625
sI4625
S'talk.politics.misc/178741'
p4626
sI4626
S'talk.politics.misc/178742'
p4627
sI4627
S'talk.politics.misc/178743'
p4628
sI4628
S'talk.politics.misc/178744'
p4629
sI4629
S'talk.politics.misc/178745'
p4630
sI4630
S'talk.politics.misc/178746'
p4631
sI4631
S'talk.politics.misc/178747'
p4632
sI4632
S'talk.politics.misc/178748'
p4633
sI4633
S'talk.politics.misc/178749'
p4634
sI4634
S'talk.politics.misc/178750'
p4635
sI4635
S'talk.politics.misc/178751'
p4636
sI4636
S'talk.politics.misc/178752'
p4637
sI4637
S'talk.politics.misc/178753'
p4638
sI4638
S'talk.politics.misc/178754'
p4639
sI4639
S'talk.politics.misc/178755'
p4640
sI4640
S'talk.politics.misc/178756'
p4641
sI4641
S'talk.politics.misc/178757'
p4642
sI4642
S'talk.politics.misc/178758'
p4643
sI4643
S'talk.politics.misc/178759'
p4644
sI4644
S'talk.politics.misc/178760'
p4645
sI4645
S'talk.politics.misc/178761'
p4646
sI4646
S'talk.politics.misc/178762'
p4647
sI4647
S'talk.politics.misc/178763'
p4648
sI4648
S'talk.politics.misc/178764'
p4649
sI4649
S'talk.politics.misc/178765'
p4650
sI4650
S'talk.politics.misc/178766'
p4651
sI4651
S'talk.politics.misc/178767'
p4652
sI4652
S'talk.politics.misc/178768'
p4653
sI4653
S'talk.politics.misc/178769'
p4654
sI4654
S'talk.politics.misc/178770'
p4655
sI4655
S'talk.politics.misc/178771'
p4656
sI4656
S'talk.politics.misc/178772'
p4657
sI4657
S'talk.politics.misc/178773'
p4658
sI4658
S'talk.politics.misc/178774'
p4659
sI4659
S'talk.politics.misc/178775'
p4660
sI4660
S'talk.politics.misc/178776'
p4661
sI4661
S'talk.politics.misc/178777'
p4662
sI4662
S'talk.politics.misc/178778'
p4663
sI4663
S'talk.politics.misc/178779'
p4664
sI4664
S'talk.politics.misc/178780'
p4665
sI4665
S'talk.politics.misc/178781'
p4666
sI4666
S'talk.politics.misc/178782'
p4667
sI4667
S'talk.politics.misc/178783'
p4668
sI4668
S'talk.politics.misc/178784'
p4669
sI4669
S'talk.politics.misc/178785'
p4670
sI4670
S'talk.politics.misc/178786'
p4671
sI4671
S'talk.politics.misc/178787'
p4672
sI4672
S'talk.politics.misc/178788'
p4673
sI4673
S'talk.politics.misc/178789'
p4674
sI4674
S'talk.politics.misc/178790'
p4675
sI4675
S'talk.politics.misc/178791'
p4676
sI4676
S'talk.politics.misc/178792'
p4677
sI4677
S'talk.politics.misc/178793'
p4678
sI4678
S'talk.politics.misc/178794'
p4679
sI4679
S'talk.politics.misc/178795'
p4680
sI4680
S'talk.politics.misc/178796'
p4681
sI4681
S'talk.politics.misc/178797'
p4682
sI4682
S'talk.politics.misc/178798'
p4683
sI4683
S'talk.politics.misc/178799'
p4684
sI4684
S'talk.politics.misc/178800'
p4685
sI4685
S'talk.politics.misc/178801'
p4686
sI4686
S'talk.politics.misc/178802'
p4687
sI4687
S'talk.politics.misc/178803'
p4688
sI4688
S'talk.politics.misc/178804'
p4689
sI4689
S'talk.politics.misc/178805'
p4690
sI4690
S'talk.politics.misc/178806'
p4691
sI4691
S'talk.politics.misc/178807'
p4692
sI4692
S'talk.politics.misc/178808'
p4693
sI4693
S'talk.politics.misc/178809'
p4694
sI4694
S'talk.politics.misc/178810'
p4695
sI4695
S'talk.politics.misc/178811'
p4696
sI4696
S'talk.politics.misc/178812'
p4697
sI4697
S'talk.politics.misc/178813'
p4698
sI4698
S'talk.politics.misc/178814'
p4699
sI4699
S'talk.politics.misc/178815'
p4700
sI4700
S'talk.politics.misc/178816'
p4701
sI4701
S'talk.politics.misc/178817'
p4702
sI4702
S'talk.politics.misc/178818'
p4703
sI4703
S'talk.politics.misc/178819'
p4704
sI4704
S'talk.politics.misc/178820'
p4705
sI4705
S'talk.politics.misc/178821'
p4706
sI4706
S'talk.politics.misc/178822'
p4707
sI4707
S'talk.politics.misc/178823'
p4708
sI4708
S'talk.politics.misc/178824'
p4709
sI4709
S'talk.politics.misc/178825'
p4710
sI4710
S'talk.politics.misc/178826'
p4711
sI4711
S'talk.politics.misc/178827'
p4712
sI4712
S'talk.politics.misc/178828'
p4713
sI4713
S'talk.politics.misc/178829'
p4714
sI4714
S'talk.politics.misc/178830'
p4715
sI4715
S'talk.politics.misc/178831'
p4716
sI4716
S'talk.politics.misc/178832'
p4717
sI4717
S'talk.politics.misc/178833'
p4718
sI4718
S'talk.politics.misc/178834'
p4719
sI4719
S'talk.politics.misc/178835'
p4720
sI4720
S'talk.politics.misc/178836'
p4721
sI4721
S'talk.politics.misc/178837'
p4722
sI4722
S'talk.politics.misc/178838'
p4723
sI4723
S'talk.politics.misc/178839'
p4724
sI4724
S'talk.politics.misc/178840'
p4725
sI4725
S'talk.politics.misc/178841'
p4726
sI4726
S'talk.politics.misc/178842'
p4727
sI4727
S'talk.politics.misc/178843'
p4728
sI4728
S'talk.politics.misc/178844'
p4729
sI4729
S'talk.politics.misc/178845'
p4730
sI4730
S'talk.politics.misc/178846'
p4731
sI4731
S'talk.politics.misc/178847'
p4732
sI4732
S'talk.politics.misc/178848'
p4733
sI4733
S'talk.politics.misc/178849'
p4734
sI4734
S'talk.politics.misc/178850'
p4735
sI4735
S'talk.politics.misc/178851'
p4736
sI4736
S'talk.politics.misc/178852'
p4737
sI4737
S'talk.politics.misc/178853'
p4738
sI4738
S'talk.politics.misc/178854'
p4739
sI4739
S'talk.politics.misc/178855'
p4740
sI4740
S'talk.politics.misc/178856'
p4741
sI4741
S'talk.politics.misc/178857'
p4742
sI4742
S'talk.politics.misc/178858'
p4743
sI4743
S'talk.politics.misc/178859'
p4744
sI4744
S'talk.politics.misc/178860'
p4745
sI4745
S'talk.politics.misc/178861'
p4746
sI4746
S'talk.politics.misc/178862'
p4747
sI4747
S'talk.politics.misc/178863'
p4748
sI4748
S'talk.politics.misc/178864'
p4749
sI4749
S'talk.politics.misc/178865'
p4750
sI4750
S'talk.politics.misc/178866'
p4751
sI4751
S'talk.politics.misc/178867'
p4752
sI4752
S'talk.politics.misc/178868'
p4753
sI4753
S'talk.politics.misc/178869'
p4754
sI4754
S'talk.politics.misc/178870'
p4755
sI4755
S'talk.politics.misc/178871'
p4756
sI4756
S'talk.politics.misc/178872'
p4757
sI4757
S'talk.politics.misc/178873'
p4758
sI4758
S'talk.politics.misc/178874'
p4759
sI4759
S'talk.politics.misc/178875'
p4760
sI4760
S'talk.politics.misc/178876'
p4761
sI4761
S'talk.politics.misc/178877'
p4762
sI4762
S'talk.politics.misc/178878'
p4763
sI4763
S'talk.politics.misc/178879'
p4764
sI4764
S'talk.politics.misc/178880'
p4765
sI4765
S'talk.politics.misc/178881'
p4766
sI4766
S'talk.politics.misc/178882'
p4767
sI4767
S'talk.politics.misc/178883'
p4768
sI4768
S'talk.politics.misc/178884'
p4769
sI4769
S'talk.politics.misc/178885'
p4770
sI4770
S'talk.politics.misc/178886'
p4771
sI4771
S'talk.politics.misc/178887'
p4772
sI4772
S'talk.politics.misc/178888'
p4773
sI4773
S'talk.politics.misc/178889'
p4774
sI4774
S'talk.politics.misc/178890'
p4775
sI4775
S'talk.politics.misc/178891'
p4776
sI4776
S'talk.politics.misc/178892'
p4777
sI4777
S'talk.politics.misc/178893'
p4778
sI4778
S'talk.politics.misc/178894'
p4779
sI4779
S'talk.politics.misc/178895'
p4780
sI4780
S'talk.politics.misc/178896'
p4781
sI4781
S'talk.politics.misc/178897'
p4782
sI4782
S'talk.politics.misc/178898'
p4783
sI4783
S'talk.politics.misc/178899'
p4784
sI4784
S'talk.politics.misc/178900'
p4785
sI4785
S'talk.politics.misc/178901'
p4786
sI4786
S'talk.politics.misc/178902'
p4787
sI4787
S'talk.politics.misc/178903'
p4788
sI4788
S'talk.politics.misc/178904'
p4789
sI4789
S'talk.politics.misc/178905'
p4790
sI4790
S'talk.politics.misc/178906'
p4791
sI4791
S'talk.politics.misc/178907'
p4792
sI4792
S'talk.politics.misc/178908'
p4793
sI4793
S'talk.politics.misc/178909'
p4794
sI4794
S'talk.politics.misc/178910'
p4795
sI4795
S'talk.politics.misc/178911'
p4796
sI4796
S'talk.politics.misc/178912'
p4797
sI4797
S'talk.politics.misc/178913'
p4798
sI4798
S'talk.politics.misc/178914'
p4799
sI4799
S'talk.politics.misc/178915'
p4800
sI4800
S'talk.politics.misc/178916'
p4801
sI4801
S'talk.politics.misc/178917'
p4802
sI4802
S'talk.politics.misc/178918'
p4803
sI4803
S'talk.politics.misc/178919'
p4804
sI4804
S'talk.politics.misc/178920'
p4805
sI4805
S'talk.politics.misc/178921'
p4806
sI4806
S'talk.politics.misc/178922'
p4807
sI4807
S'talk.politics.misc/178923'
p4808
sI4808
S'talk.politics.misc/178924'
p4809
sI4809
S'talk.politics.misc/178925'
p4810
sI4810
S'talk.politics.misc/178926'
p4811
sI4811
S'talk.politics.misc/178927'
p4812
sI4812
S'talk.politics.misc/178928'
p4813
sI4813
S'talk.politics.misc/178929'
p4814
sI4814
S'talk.politics.misc/178930'
p4815
sI4815
S'talk.politics.misc/178931'
p4816
sI4816
S'talk.politics.misc/178932'
p4817
sI4817
S'talk.politics.misc/178933'
p4818
sI4818
S'talk.politics.misc/178934'
p4819
sI4819
S'talk.politics.misc/178935'
p4820
sI4820
S'talk.politics.misc/178936'
p4821
sI4821
S'talk.politics.misc/178937'
p4822
sI4822
S'talk.politics.misc/178938'
p4823
sI4823
S'talk.politics.misc/178939'
p4824
sI4824
S'talk.politics.misc/178940'
p4825
sI4825
S'talk.politics.misc/178941'
p4826
sI4826
S'talk.politics.misc/178942'
p4827
sI4827
S'talk.politics.misc/178943'
p4828
sI4828
S'talk.politics.misc/178944'
p4829
sI4829
S'talk.politics.misc/178945'
p4830
sI4830
S'talk.politics.misc/178946'
p4831
sI4831
S'talk.politics.misc/178947'
p4832
sI4832
S'talk.politics.misc/178948'
p4833
sI4833
S'talk.politics.misc/178949'
p4834
sI4834
S'talk.politics.misc/178950'
p4835
sI4835
S'talk.politics.misc/178951'
p4836
sI4836
S'talk.politics.misc/178952'
p4837
sI4837
S'talk.politics.misc/178953'
p4838
sI4838
S'talk.politics.misc/178954'
p4839
sI4839
S'talk.politics.misc/178955'
p4840
sI4840
S'talk.politics.misc/178956'
p4841
sI4841
S'talk.politics.misc/178957'
p4842
sI4842
S'talk.politics.misc/178958'
p4843
sI4843
S'talk.politics.misc/178959'
p4844
sI4844
S'talk.politics.misc/178960'
p4845
sI4845
S'talk.politics.misc/178961'
p4846
sI4846
S'talk.politics.misc/178962'
p4847
sI4847
S'talk.politics.misc/178963'
p4848
sI4848
S'talk.politics.misc/178964'
p4849
sI4849
S'talk.politics.misc/178965'
p4850
sI4850
S'talk.politics.misc/178966'
p4851
sI4851
S'talk.politics.misc/178967'
p4852
sI4852
S'talk.politics.misc/178968'
p4853
sI4853
S'talk.politics.misc/178969'
p4854
sI4854
S'talk.politics.misc/178970'
p4855
sI4855
S'talk.politics.misc/178971'
p4856
sI4856
S'talk.politics.misc/178972'
p4857
sI4857
S'talk.politics.misc/178973'
p4858
sI4858
S'talk.politics.misc/178974'
p4859
sI4859
S'talk.politics.misc/178975'
p4860
sI4860
S'talk.politics.misc/178976'
p4861
sI4861
S'talk.politics.misc/178977'
p4862
sI4862
S'talk.politics.misc/178978'
p4863
sI4863
S'talk.politics.misc/178979'
p4864
sI4864
S'talk.politics.misc/178980'
p4865
sI4865
S'talk.politics.misc/178981'
p4866
sI4866
S'talk.politics.misc/178982'
p4867
sI4867
S'talk.politics.misc/178983'
p4868
sI4868
S'talk.politics.misc/178984'
p4869
sI4869
S'talk.politics.misc/178985'
p4870
sI4870
S'talk.politics.misc/178986'
p4871
sI4871
S'talk.politics.misc/178987'
p4872
sI4872
S'talk.politics.misc/178988'
p4873
sI4873
S'talk.politics.misc/178989'
p4874
sI4874
S'talk.politics.misc/178990'
p4875
sI4875
S'talk.politics.misc/178991'
p4876
sI4876
S'talk.politics.misc/178992'
p4877
sI4877
S'talk.politics.misc/178993'
p4878
sI4878
S'talk.politics.misc/178994'
p4879
sI4879
S'talk.politics.misc/178995'
p4880
sI4880
S'talk.politics.misc/178996'
p4881
sI4881
S'talk.politics.misc/178997'
p4882
sI4882
S'talk.politics.misc/178998'
p4883
sI4883
S'talk.politics.misc/178999'
p4884
sI4884
S'talk.politics.misc/179000'
p4885
sI4885
S'talk.politics.misc/179001'
p4886
sI4886
S'talk.politics.misc/179002'
p4887
sI4887
S'talk.politics.misc/179003'
p4888
sI4888
S'talk.politics.misc/179004'
p4889
sI4889
S'talk.politics.misc/179005'
p4890
sI4890
S'talk.politics.misc/179006'
p4891
sI4891
S'talk.politics.misc/179007'
p4892
sI4892
S'talk.politics.misc/179008'
p4893
sI4893
S'talk.politics.misc/179009'
p4894
sI4894
S'talk.politics.misc/179011'
p4895
sI4895
S'talk.politics.misc/179012'
p4896
sI4896
S'talk.politics.misc/179013'
p4897
sI4897
S'talk.politics.misc/179014'
p4898
sI4898
S'talk.politics.misc/179015'
p4899
sI4899
S'talk.politics.misc/179016'
p4900
sI4900
S'talk.politics.misc/179017'
p4901
sI4901
S'talk.politics.misc/179018'
p4902
sI4902
S'talk.politics.misc/179019'
p4903
sI4903
S'talk.politics.misc/179020'
p4904
sI4904
S'talk.politics.misc/179021'
p4905
sI4905
S'talk.politics.misc/179022'
p4906
sI4906
S'talk.politics.misc/179023'
p4907
sI4907
S'talk.politics.misc/179024'
p4908
sI4908
S'talk.politics.misc/179025'
p4909
sI4909
S'talk.politics.misc/179026'
p4910
sI4910
S'talk.politics.misc/179027'
p4911
sI4911
S'talk.politics.misc/179028'
p4912
sI4912
S'talk.politics.misc/179029'
p4913
sI4913
S'talk.politics.misc/179030'
p4914
sI4914
S'talk.politics.misc/179031'
p4915
sI4915
S'talk.politics.misc/179032'
p4916
sI4916
S'talk.politics.misc/179033'
p4917
sI4917
S'talk.politics.misc/179034'
p4918
sI4918
S'talk.politics.misc/179035'
p4919
sI4919
S'talk.politics.misc/179036'
p4920
sI4920
S'talk.politics.misc/179037'
p4921
sI4921
S'talk.politics.misc/179038'
p4922
sI4922
S'talk.politics.misc/179039'
p4923
sI4923
S'talk.politics.misc/179040'
p4924
sI4924
S'talk.politics.misc/179041'
p4925
sI4925
S'talk.politics.misc/179042'
p4926
sI4926
S'talk.politics.misc/179043'
p4927
sI4927
S'talk.politics.misc/179044'
p4928
sI4928
S'talk.politics.misc/179045'
p4929
sI4929
S'talk.politics.misc/179046'
p4930
sI4930
S'talk.politics.misc/179047'
p4931
sI4931
S'talk.politics.misc/179048'
p4932
sI4932
S'talk.politics.misc/179049'
p4933
sI4933
S'talk.politics.misc/179050'
p4934
sI4934
S'talk.politics.misc/179051'
p4935
sI4935
S'talk.politics.misc/179052'
p4936
sI4936
S'talk.politics.misc/179053'
p4937
sI4937
S'talk.politics.misc/179054'
p4938
sI4938
S'talk.politics.misc/179055'
p4939
sI4939
S'talk.politics.misc/179056'
p4940
sI4940
S'talk.politics.misc/179057'
p4941
sI4941
S'talk.politics.misc/179058'
p4942
sI4942
S'talk.politics.misc/179059'
p4943
sI4943
S'talk.politics.misc/179060'
p4944
sI4944
S'talk.politics.misc/179061'
p4945
sI4945
S'talk.politics.misc/179062'
p4946
sI4946
S'talk.politics.misc/179063'
p4947
sI4947
S'talk.politics.misc/179064'
p4948
sI4948
S'talk.politics.misc/179065'
p4949
sI4949
S'talk.politics.misc/179066'
p4950
sI4950
S'talk.politics.misc/179067'
p4951
sI4951
S'talk.politics.misc/179068'
p4952
sI4952
S'talk.politics.misc/179069'
p4953
sI4953
S'talk.politics.misc/179070'
p4954
sI4954
S'talk.politics.misc/179071'
p4955
sI4955
S'talk.politics.misc/179072'
p4956
sI4956
S'talk.politics.misc/179073'
p4957
sI4957
S'talk.politics.misc/179074'
p4958
sI4958
S'talk.politics.misc/179075'
p4959
sI4959
S'talk.politics.misc/179076'
p4960
sI4960
S'talk.politics.misc/179077'
p4961
sI4961
S'talk.politics.misc/179078'
p4962
sI4962
S'talk.politics.misc/179079'
p4963
sI4963
S'talk.politics.misc/179080'
p4964
sI4964
S'talk.politics.misc/179081'
p4965
sI4965
S'talk.politics.misc/179082'
p4966
sI4966
S'talk.politics.misc/179083'
p4967
sI4967
S'talk.politics.misc/179084'
p4968
sI4968
S'talk.politics.misc/179085'
p4969
sI4969
S'talk.politics.misc/179086'
p4970
sI4970
S'talk.politics.misc/179087'
p4971
sI4971
S'talk.politics.misc/179088'
p4972
sI4972
S'talk.politics.misc/179089'
p4973
sI4973
S'talk.politics.misc/179090'
p4974
sI4974
S'talk.politics.misc/179091'
p4975
sI4975
S'talk.politics.misc/179092'
p4976
sI4976
S'talk.politics.misc/179093'
p4977
sI4977
S'talk.politics.misc/179094'
p4978
sI4978
S'talk.politics.misc/179095'
p4979
sI4979
S'talk.politics.misc/179096'
p4980
sI4980
S'talk.politics.misc/179097'
p4981
sI4981
S'talk.politics.misc/179098'
p4982
sI4982
S'talk.politics.misc/179099'
p4983
sI4983
S'talk.politics.misc/179100'
p4984
sI4984
S'talk.politics.misc/179101'
p4985
sI4985
S'talk.politics.misc/179102'
p4986
sI4986
S'talk.politics.misc/179103'
p4987
sI4987
S'talk.politics.misc/179104'
p4988
sI4988
S'talk.politics.misc/179105'
p4989
sI4989
S'talk.politics.misc/179106'
p4990
sI4990
S'talk.politics.misc/179107'
p4991
sI4991
S'talk.politics.misc/179108'
p4992
sI4992
S'talk.politics.misc/179109'
p4993
sI4993
S'talk.politics.misc/179110'
p4994
sI4994
S'talk.politics.misc/179111'
p4995
sI4995
S'talk.politics.misc/179112'
p4996
sI4996
S'talk.politics.misc/179113'
p4997
sI4997
S'talk.politics.misc/179114'
p4998
sI4998
S'talk.politics.misc/179115'
p4999
sI4999
S'talk.politics.misc/179116'
p5000
s.