(dp0
S'sci.space/62409'
p1
I1962
sS'sci.space/62408'
p2
I1961
sS'sci.med/58138'
p3
I2096
sS'sci.med/58139'
p4
I2097
sS'sci.med/59542'
p5
I2902
sS'talk.politics.misc/179109'
p6
I4992
sS'sci.space/62401'
p7
I1954
sS'sci.space/62400'
p8
I1953
sS'sci.space/62403'
p9
I1956
sS'sci.space/62402'
p10
I1955
sS'sci.space/62405'
p11
I1958
sS'sci.space/62404'
p12
I1957
sS'sci.space/62407'
p13
I1960
sS'sci.space/62406'
p14
I1959
sS'comp.graphics/38912'
p15
I3750
sS'comp.graphics/38986'
p16
I3823
sS'comp.graphics/38555'
p17
I3393
sS'comp.graphics/38554'
p18
I3392
sS'comp.graphics/38557'
p19
I3395
sS'comp.graphics/38556'
p20
I3394
sS'comp.graphics/38551'
p21
I3389
sS'comp.graphics/38550'
p22
I3388
sS'comp.graphics/38553'
p23
I3391
sS'comp.graphics/38552'
p24
I3390
sS'talk.politics.misc/178395'
p25
I4281
sS'comp.graphics/38559'
p26
I3397
sS'comp.graphics/38558'
p27
I3396
sS'talk.politics.misc/178394'
p28
I4280
sS'sci.med/58132'
p29
I2090
sS'comp.graphics/38399'
p30
I3238
sS'comp.graphics/38398'
p31
I3237
sS'talk.politics.misc/178397'
p32
I4283
sS'sci.med/58133'
p33
I2091
sS'comp.graphics/38393'
p34
I3232
sS'comp.graphics/38392'
p35
I3231
sS'comp.graphics/38391'
p36
I3230
sS'comp.graphics/38390'
p37
I3229
sS'comp.graphics/38397'
p38
I3236
sS'sci.med/58130'
p39
I2088
sS'comp.graphics/38395'
p40
I3234
sS'comp.graphics/38394'
p41
I3233
sS'talk.politics.misc/178715'
p42
I4600
sS'sci.med/58131'
p43
I2089
sS'talk.politics.misc/178858'
p44
I4742
sS'talk.politics.misc/178714'
p45
I4599
sS'talk.politics.misc/178856'
p46
I4740
sS'sci.med/58136'
p47
I2094
sS'talk.politics.misc/178854'
p48
I4738
sS'talk.politics.misc/178855'
p49
I4739
sS'talk.politics.misc/178852'
p50
I4736
sS'talk.politics.misc/178717'
p51
I4602
sS'talk.politics.misc/178850'
p52
I4734
sS'sci.med/58137'
p53
I2095
sS'comp.graphics/38951'
p54
I3789
sS'comp.graphics/38950'
p55
I3788
sS'comp.graphics/38953'
p56
I3791
sS'comp.graphics/38952'
p57
I3790
sS'rec.sport.hockey/53839'
p58
I439
sS'rec.sport.hockey/53838'
p59
I438
sS'comp.graphics/38957'
p60
I3795
sS'comp.graphics/38956'
p61
I3794
sS'rec.sport.hockey/53835'
p62
I435
sS'rec.sport.hockey/53834'
p63
I434
sS'rec.sport.hockey/53837'
p64
I437
sS'rec.sport.hockey/53836'
p65
I436
sS'rec.sport.hockey/53831'
p66
I431
sS'rec.sport.hockey/53830'
p67
I430
sS'rec.sport.hockey/53833'
p68
I433
sS'rec.sport.hockey/53832'
p69
I432
sS'rec.sport.hockey/53901'
p70
I501
sS'rec.sport.hockey/53900'
p71
I500
sS'rec.sport.hockey/53903'
p72
I503
sS'rec.sport.hockey/53902'
p73
I502
sS'rec.sport.hockey/53905'
p74
I505
sS'rec.sport.hockey/53904'
p75
I504
sS'rec.sport.hockey/53907'
p76
I507
sS'rec.sport.hockey/53906'
p77
I506
sS'rec.sport.hockey/53909'
p78
I509
sS'rec.sport.hockey/53908'
p79
I508
sS'talk.politics.misc/178712'
p80
I4597
sS'talk.politics.misc/179039'
p81
I4922
sS'talk.politics.misc/179038'
p82
I4921
sS'comp.graphics/37936'
p83
I3024
sS'comp.graphics/37937'
p84
I3025
sS'comp.graphics/37934'
p85
I3022
sS'comp.graphics/37935'
p86
I3023
sS'comp.graphics/37932'
p87
I3020
sS'comp.graphics/37933'
p88
I3021
sS'comp.graphics/37930'
p89
I3018
sS'comp.graphics/37931'
p90
I3019
sS'talk.politics.misc/178526'
p91
I4412
sS'talk.politics.misc/178527'
p92
I4413
sS'talk.politics.misc/178524'
p93
I4410
sS'talk.politics.misc/178525'
p94
I4411
sS'talk.politics.misc/178522'
p95
I4408
sS'talk.politics.misc/178523'
p96
I4409
sS'comp.graphics/37938'
p97
I3026
sS'comp.graphics/37939'
p98
I3027
sS'sci.med/59067'
p99
I2428
sS'sci.med/59066'
p100
I2427
sS'sci.med/59065'
p101
I2426
sS'sci.med/59064'
p102
I2425
sS'sci.med/59063'
p103
I2424
sS'sci.med/59062'
p104
I2423
sS'sci.med/59061'
p105
I2422
sS'sci.med/59060'
p106
I2421
sS'talk.politics.misc/178719'
p107
I4604
sS'comp.graphics/38829'
p108
I3667
sS'comp.graphics/38828'
p109
I3666
sS'sci.med/59069'
p110
I2430
sS'sci.med/59068'
p111
I2429
sS'sci.med/59265'
p112
I2625
sS'sci.med/58043'
p113
I2001
sS'sci.med/59267'
p114
I2627
sS'sci.med/59266'
p115
I2626
sS'sci.med/58046'
p116
I2004
sS'sci.med/58047'
p117
I2005
sS'sci.med/58044'
p118
I2002
sS'sci.med/58045'
p119
I2003
sS'sci.med/58048'
p120
I2006
sS'sci.med/58049'
p121
I2007
sS'sci.med/59269'
p122
I2629
sS'sci.med/59268'
p123
I2628
sS'talk.politics.misc/178882'
p124
I4766
sS'talk.politics.misc/178452'
p125
I4338
sS'talk.politics.misc/178453'
p126
I4339
sS'talk.politics.misc/178450'
p127
I4336
sS'talk.politics.misc/178451'
p128
I4337
sS'talk.politics.misc/178456'
p129
I4342
sS'talk.politics.misc/178457'
p130
I4343
sS'talk.politics.misc/178454'
p131
I4340
sS'talk.politics.misc/178455'
p132
I4341
sS'comp.graphics/38619'
p133
I3457
sS'talk.politics.misc/178989'
p134
I4873
sS'talk.politics.misc/178458'
p135
I4344
sS'talk.politics.misc/178459'
p136
I4345
sS'talk.politics.misc/179107'
p137
I4990
sS'talk.politics.misc/179106'
p138
I4989
sS'talk.politics.misc/179105'
p139
I4988
sS'talk.politics.misc/179104'
p140
I4987
sS'talk.politics.misc/176850'
p141
I4005
sS'comp.graphics/38726'
p142
I3564
sS'comp.graphics/38763'
p143
I3601
sS'talk.politics.misc/176853'
p144
I4008
sS'talk.politics.misc/176854'
p145
I4009
sS'talk.politics.misc/176855'
p146
I4010
sS'talk.politics.misc/176856'
p147
I4011
sS'comp.graphics/38727'
p148
I3565
sS'talk.politics.misc/176858'
p149
I4013
sS'talk.politics.misc/176859'
p150
I4014
sS'talk.politics.misc/179026'
p151
I4909
sS'talk.politics.misc/179103'
p152
I4986
sS'talk.politics.misc/178298'
p153
I4184
sS'sci.med/59189'
p154
I2549
sS'comp.graphics/38725'
p155
I3563
sS'comp.graphics/38918'
p156
I3756
sS'comp.graphics/38722'
p157
I3560
sS'comp.graphics/38723'
p158
I3561
sS'sci.med/59401'
p159
I2761
sS'sci.med/59400'
p160
I2760
sS'sci.med/59403'
p161
I2763
sS'sci.med/59402'
p162
I2762
sS'sci.space/59850'
p163
I1004
sS'sci.med/59404'
p164
I2764
sS'sci.med/59407'
p165
I2767
sS'sci.med/59406'
p166
I2766
sS'sci.med/59409'
p167
I2769
sS'sci.med/59408'
p168
I2768
sS'comp.graphics/38721'
p169
I3559
sS'talk.politics.misc/178816'
p170
I4700
sS'sci.space/61282'
p171
I1631
sS'sci.space/61283'
p172
I1632
sS'sci.space/61280'
p173
I1629
sS'sci.space/61281'
p174
I1630
sS'sci.space/61286'
p175
I1635
sS'sci.space/61287'
p176
I1636
sS'sci.space/61284'
p177
I1633
sS'sci.space/61285'
p178
I1634
sS'sci.space/61288'
p179
I1637
sS'sci.space/61289'
p180
I1638
sS'talk.politics.misc/178678'
p181
I4563
sS'talk.politics.misc/178679'
p182
I4564
sS'sci.space/61044'
p183
I1393
sS'sci.space/61045'
p184
I1394
sS'sci.space/61046'
p185
I1395
sS'sci.space/61047'
p186
I1396
sS'sci.space/61040'
p187
I1389
sS'sci.space/61041'
p188
I1390
sS'sci.space/61042'
p189
I1391
sS'sci.space/61043'
p190
I1392
sS'sci.space/61349'
p191
I1698
sS'sci.space/61519'
p192
I1868
sS'sci.space/61048'
p193
I1397
sS'sci.space/61049'
p194
I1398
sS'talk.politics.misc/178710'
p195
I4595
sS'comp.graphics/38417'
p196
I3256
sS'sci.space/61268'
p197
I1617
sS'sci.space/61269'
p198
I1618
sS'sci.space/61264'
p199
I1613
sS'sci.space/61265'
p200
I1614
sS'sci.space/61266'
p201
I1615
sS'sci.space/61267'
p202
I1616
sS'sci.space/61260'
p203
I1609
sS'sci.space/61261'
p204
I1610
sS'sci.space/61262'
p205
I1611
sS'sci.space/61263'
p206
I1612
sS'sci.med/59319'
p207
I2679
sS'sci.med/59318'
p208
I2678
sS'sci.med/59315'
p209
I2675
sS'sci.med/59314'
p210
I2674
sS'sci.med/59317'
p211
I2677
sS'sci.med/59316'
p212
I2676
sS'sci.med/59311'
p213
I2671
sS'sci.med/59310'
p214
I2670
sS'sci.med/59313'
p215
I2673
sS'sci.med/59312'
p216
I2672
sS'sci.space/60245'
p217
I1112
sS'sci.space/60244'
p218
I1111
sS'sci.space/60247'
p219
I1114
sS'sci.space/60246'
p220
I1113
sS'sci.space/60241'
p221
I1108
sS'sci.space/60240'
p222
I1107
sS'sci.space/60243'
p223
I1110
sS'sci.space/60242'
p224
I1109
sS'sci.med/59085'
p225
I2446
sS'sci.med/59084'
p226
I2445
sS'sci.med/59087'
p227
I2448
sS'sci.med/59086'
p228
I2447
sS'sci.space/60249'
p229
I1116
sS'sci.space/60248'
p230
I1115
sS'sci.med/59083'
p231
I2444
sS'sci.med/59082'
p232
I2443
sS'talk.politics.misc/179032'
p233
I4915
sS'talk.politics.misc/177008'
p234
I4162
sS'sci.space/60809'
p235
I1158
sS'sci.space/60808'
p236
I1157
sS'comp.graphics/37948'
p237
I3036
sS'talk.politics.misc/178448'
p238
I4334
sS'sci.space/60803'
p239
I1153
sS'sci.space/60802'
p240
I1152
sS'sci.space/60801'
p241
I1151
sS'sci.space/60800'
p242
I1150
sS'sci.space/60807'
p243
I1156
sS'sci.space/60806'
p244
I1155
sS'sci.space/60804'
p245
I1154
sS'sci.med/58859'
p246
I2221
sS'sci.med/58858'
p247
I2220
sS'sci.med/58851'
p248
I2213
sS'sci.med/58850'
p249
I2212
sS'sci.med/58853'
p250
I2215
sS'sci.med/58852'
p251
I2214
sS'sci.med/58855'
p252
I2217
sS'sci.med/58854'
p253
I2216
sS'sci.med/58857'
p254
I2219
sS'sci.med/58856'
p255
I2218
sS'comp.graphics/38818'
p256
I3656
sS'comp.graphics/38396'
p257
I3235
sS'talk.politics.misc/179058'
p258
I4941
sS'sci.space/61468'
p259
I1817
sS'sci.space/61469'
p260
I1818
sS'sci.space/61462'
p261
I1811
sS'sci.space/61463'
p262
I1812
sS'sci.space/61460'
p263
I1809
sS'sci.space/61461'
p264
I1810
sS'sci.space/61466'
p265
I1815
sS'sci.space/61467'
p266
I1816
sS'sci.space/61464'
p267
I1813
sS'sci.space/61465'
p268
I1814
sS'comp.graphics/38819'
p269
I3657
sS'talk.politics.misc/178350'
p270
I4236
sS'sci.space/60774'
p271
I1125
sS'talk.politics.misc/177010'
p272
I4164
sS'sci.med/59333'
p273
I2693
sS'sci.med/59213'
p274
I2573
sS'talk.politics.misc/178713'
p275
I4598
sS'talk.politics.misc/178666'
p276
I4551
sS'rec.sport.hockey/54029'
p277
I629
sS'rec.sport.hockey/54028'
p278
I628
sS'rec.sport.hockey/54023'
p279
I623
sS'rec.sport.hockey/54022'
p280
I622
sS'rec.sport.hockey/54021'
p281
I621
sS'rec.sport.hockey/54020'
p282
I620
sS'rec.sport.hockey/54027'
p283
I627
sS'rec.sport.hockey/54026'
p284
I626
sS'rec.sport.hockey/54025'
p285
I625
sS'rec.sport.hockey/54024'
p286
I624
sS'comp.graphics/39676'
p287
I3992
sS'comp.graphics/39673'
p288
I3989
sS'talk.politics.misc/178857'
p289
I4741
sS'comp.graphics/38762'
p290
I3600
sS'comp.graphics/38608'
p291
I3446
sS'comp.graphics/38760'
p292
I3598
sS'comp.graphics/38761'
p293
I3599
sS'comp.graphics/38766'
p294
I3604
sS'comp.graphics/38767'
p295
I3605
sS'comp.graphics/38764'
p296
I3602
sS'comp.graphics/38765'
p297
I3603
sS'comp.graphics/38768'
p298
I3606
sS'comp.graphics/38769'
p299
I3607
sS'comp.graphics/38921'
p300
I3759
sS'talk.politics.misc/178853'
p301
I4737
sS'rec.sport.hockey/54203'
p302
I777
sS'rec.sport.hockey/54202'
p303
I776
sS'rec.sport.hockey/54201'
p304
I775
sS'rec.sport.hockey/54200'
p305
I774
sS'rec.sport.hockey/54207'
p306
I781
sS'rec.sport.hockey/54206'
p307
I780
sS'rec.sport.hockey/54205'
p308
I779
sS'rec.sport.hockey/54756'
p309
I971
sS'rec.sport.hockey/54759'
p310
I974
sS'rec.sport.hockey/54758'
p311
I973
sS'rec.sport.hockey/54208'
p312
I782
sS'rec.sport.hockey/54117'
p313
I717
sS'rec.sport.hockey/54116'
p314
I716
sS'rec.sport.hockey/54115'
p315
I715
sS'rec.sport.hockey/54114'
p316
I714
sS'rec.sport.hockey/54113'
p317
I713
sS'rec.sport.hockey/54112'
p318
I712
sS'rec.sport.hockey/54111'
p319
I711
sS'rec.sport.hockey/54110'
p320
I710
sS'comp.graphics/38922'
p321
I3760
sS'rec.sport.hockey/54119'
p322
I719
sS'rec.sport.hockey/54118'
p323
I718
sS'rec.sport.hockey/53798'
p324
I398
sS'rec.sport.hockey/53799'
p325
I399
sS'comp.graphics/38258'
p326
I3097
sS'rec.sport.hockey/53790'
p327
I390
sS'rec.sport.hockey/53791'
p328
I391
sS'rec.sport.hockey/53792'
p329
I392
sS'rec.sport.hockey/53793'
p330
I393
sS'rec.sport.hockey/53794'
p331
I394
sS'rec.sport.hockey/53795'
p332
I395
sS'rec.sport.hockey/53796'
p333
I396
sS'rec.sport.hockey/53797'
p334
I397
sS'comp.graphics/38494'
p335
I3332
sS'comp.graphics/38495'
p336
I3333
sS'comp.graphics/38496'
p337
I3334
sS'comp.graphics/38497'
p338
I3335
sS'comp.graphics/38490'
p339
I3328
sS'comp.graphics/38491'
p340
I3329
sS'comp.graphics/38492'
p341
I3330
sS'comp.graphics/38493'
p342
I3331
sS'comp.graphics/38923'
p343
I3761
sS'comp.graphics/38498'
p344
I3336
sS'comp.graphics/38499'
p345
I3337
sS'talk.politics.misc/178624'
p346
I4509
sS'comp.graphics/38959'
p347
I3797
sS'comp.graphics/38958'
p348
I3796
sS'comp.graphics/38620'
p349
I3458
sS'comp.graphics/38617'
p350
I3455
sS'talk.politics.misc/178353'
p351
I4239
sS'comp.graphics/38893'
p352
I3731
sS'comp.graphics/38924'
p353
I3762
sS'comp.graphics/38615'
p354
I3453
sS'rec.sport.hockey/53468'
p355
I120
sS'rec.sport.hockey/53664'
p356
I264
sS'rec.sport.hockey/53665'
p357
I265
sS'rec.sport.hockey/53666'
p358
I266
sS'rec.sport.hockey/53667'
p359
I267
sS'rec.sport.hockey/53660'
p360
I260
sS'rec.sport.hockey/53661'
p361
I261
sS'rec.sport.hockey/53662'
p362
I262
sS'rec.sport.hockey/53663'
p363
I263
sS'rec.sport.hockey/53668'
p364
I268
sS'rec.sport.hockey/53669'
p365
I269
sS'sci.space/62416'
p366
I1969
sS'sci.space/62417'
p367
I1970
sS'sci.space/62414'
p368
I1967
sS'rec.sport.hockey/54231'
p369
I796
sS'sci.space/62412'
p370
I1965
sS'sci.space/62413'
p371
I1966
sS'sci.space/62410'
p372
I1963
sS'sci.space/62411'
p373
I1964
sS'comp.graphics/38595'
p374
I3433
sS'comp.graphics/38302'
p375
I3141
sS'sci.space/62418'
p376
I1971
sS'sci.space/62419'
p377
I1972
sS'comp.graphics/38303'
p378
I3142
sS'comp.graphics/38597'
p379
I3435
sS'comp.graphics/38304'
p380
I3143
sS'talk.politics.misc/176943'
p381
I4097
sS'comp.graphics/38596'
p382
I3434
sS'comp.graphics/38305'
p383
I3144
sS'comp.graphics/39013'
p384
I3850
sS'comp.graphics/39012'
p385
I3849
sS'comp.graphics/38548'
p386
I3386
sS'comp.graphics/38549'
p387
I3387
sS'comp.graphics/39017'
p388
I3854
sS'comp.graphics/38306'
p389
I3145
sS'comp.graphics/39015'
p390
I3852
sS'comp.graphics/39014'
p391
I3851
sS'comp.graphics/38542'
p392
I3380
sS'comp.graphics/38543'
p393
I3381
sS'comp.graphics/38540'
p394
I3378
sS'comp.graphics/38307'
p395
I3146
sS'comp.graphics/38546'
p396
I3384
sS'comp.graphics/38547'
p397
I3385
sS'comp.graphics/38544'
p398
I3382
sS'comp.graphics/38545'
p399
I3383
sS'comp.graphics/38388'
p400
I3227
sS'comp.graphics/38308'
p401
I3147
sS'comp.graphics/38309'
p402
I3148
sS'comp.graphics/38380'
p403
I3219
sS'comp.graphics/38381'
p404
I3220
sS'comp.graphics/38382'
p405
I3221
sS'comp.graphics/38383'
p406
I3222
sS'comp.graphics/38384'
p407
I3223
sS'comp.graphics/38385'
p408
I3224
sS'comp.graphics/38386'
p409
I3225
sS'comp.graphics/38387'
p410
I3226
sS'comp.graphics/38927'
p411
I3765
sS'talk.politics.misc/176910'
p412
I4064
sS'talk.politics.misc/176913'
p413
I4067
sS'talk.politics.misc/176912'
p414
I4066
sS'talk.politics.misc/176915'
p415
I4069
sS'talk.politics.misc/176914'
p416
I4068
sS'talk.politics.misc/176917'
p417
I4071
sS'talk.politics.misc/176916'
p418
I4070
sS'talk.politics.misc/176919'
p419
I4073
sS'talk.politics.misc/176918'
p420
I4072
sS'talk.politics.misc/178869'
p421
I4753
sS'talk.politics.misc/178868'
p422
I4752
sS'rec.sport.hockey/53808'
p423
I408
sS'rec.sport.hockey/53809'
p424
I409
sS'comp.graphics/38944'
p425
I3782
sS'comp.graphics/38945'
p426
I3783
sS'comp.graphics/38942'
p427
I3780
sS'comp.graphics/38943'
p428
I3781
sS'comp.graphics/38940'
p429
I3778
sS'comp.graphics/38941'
p430
I3779
sS'rec.sport.hockey/53800'
p431
I400
sS'rec.sport.hockey/53801'
p432
I401
sS'rec.sport.hockey/53802'
p433
I402
sS'rec.sport.hockey/53803'
p434
I403
sS'rec.sport.hockey/53804'
p435
I404
sS'rec.sport.hockey/53805'
p436
I405
sS'rec.sport.hockey/53806'
p437
I406
sS'rec.sport.hockey/53807'
p438
I407
sS'rec.sport.hockey/53938'
p439
I538
sS'rec.sport.hockey/53939'
p440
I539
sS'rec.sport.hockey/53934'
p441
I534
sS'rec.sport.hockey/53935'
p442
I535
sS'rec.sport.hockey/53936'
p443
I536
sS'rec.sport.hockey/53937'
p444
I537
sS'rec.sport.hockey/53930'
p445
I530
sS'rec.sport.hockey/53931'
p446
I531
sS'rec.sport.hockey/53932'
p447
I532
sS'rec.sport.hockey/53933'
p448
I533
sS'talk.politics.misc/178513'
p449
I4399
sS'sci.space/61431'
p450
I1780
sS'talk.politics.misc/178511'
p451
I4397
sS'talk.politics.misc/178510'
p452
I4396
sS'talk.politics.misc/178517'
p453
I4403
sS'talk.politics.misc/178516'
p454
I4402
sS'talk.politics.misc/178352'
p455
I4238
sS'sci.space/61430'
p456
I1779
sS'talk.politics.misc/179020'
p457
I4903
sS'talk.politics.misc/179021'
p458
I4904
sS'talk.politics.misc/178519'
p459
I4405
sS'talk.politics.misc/178518'
p460
I4404
sS'comp.graphics/38929'
p461
I3767
sS'sci.space/61433'
p462
I1782
sS'comp.graphics/39618'
p463
I3934
sS'talk.politics.misc/179027'
p464
I4910
sS'sci.med/59070'
p465
I2431
sS'sci.med/59071'
p466
I2432
sS'sci.med/59072'
p467
I2433
sS'sci.space/61432'
p468
I1781
sS'sci.med/59074'
p469
I2435
sS'sci.med/59075'
p470
I2436
sS'sci.space/59913'
p471
I1016
sS'sci.med/58078'
p472
I2036
sS'sci.med/58077'
p473
I2035
sS'sci.space/61435'
p474
I1784
sS'sci.med/58075'
p475
I2033
sS'sci.med/58074'
p476
I2032
sS'sci.med/58073'
p477
I2031
sS'sci.med/58072'
p478
I2030
sS'sci.med/58071'
p479
I2029
sS'sci.space/61434'
p480
I1783
sS'sci.med/59276'
p481
I2636
sS'sci.med/59277'
p482
I2637
sS'sci.med/59274'
p483
I2634
sS'sci.med/59275'
p484
I2635
sS'sci.med/59272'
p485
I2632
sS'sci.space/61437'
p486
I1786
sS'sci.med/59270'
p487
I2630
sS'sci.med/59271'
p488
I2631
sS'comp.graphics/39628'
p489
I3944
sS'sci.space/61436'
p490
I1785
sS'comp.graphics/38850'
p491
I3688
sS'sci.med/59278'
p492
I2638
sS'sci.med/59279'
p493
I2639
sS'talk.politics.misc/178467'
p494
I4353
sS'talk.politics.misc/178466'
p495
I4352
sS'talk.politics.misc/178465'
p496
I4351
sS'talk.politics.misc/178464'
p497
I4350
sS'talk.politics.misc/178463'
p498
I4349
sS'talk.politics.misc/178462'
p499
I4348
sS'comp.graphics/38803'
p500
I3641
sS'talk.politics.misc/178460'
p501
I4346
sS'talk.politics.misc/179114'
p502
I4997
sS'talk.politics.misc/179115'
p503
I4998
sS'talk.politics.misc/179116'
p504
I4999
sS'talk.politics.misc/179110'
p505
I4993
sS'talk.politics.misc/179111'
p506
I4994
sS'talk.politics.misc/178469'
p507
I4355
sS'talk.politics.misc/178468'
p508
I4354
sS'talk.politics.misc/178520'
p509
I4406
sS'sci.med/59174'
p510
I2535
sS'comp.graphics/38243'
p511
I3082
sS'comp.graphics/38825'
p512
I3663
sS'comp.graphics/39627'
p513
I3943
sS'comp.graphics/38802'
p514
I3640
sS'comp.graphics/38824'
p515
I3662
sS'comp.graphics/39620'
p516
I3936
sS'talk.politics.misc/179088'
p517
I4971
sS'comp.graphics/38827'
p518
I3665
sS'talk.politics.misc/178743'
p519
I4627
sS'comp.graphics/39621'
p520
I3937
sS'sci.med/59412'
p521
I2772
sS'sci.med/59413'
p522
I2773
sS'sci.med/59410'
p523
I2770
sS'sci.med/59411'
p524
I2771
sS'sci.med/59416'
p525
I2776
sS'sci.med/59417'
p526
I2777
sS'sci.med/59414'
p527
I2774
sS'sci.med/59415'
p528
I2775
sS'sci.med/59108'
p529
I2469
sS'sci.med/59418'
p530
I2778
sS'sci.med/59419'
p531
I2779
sS'comp.graphics/38857'
p532
I3695
sS'sci.med/59109'
p533
I2470
sS'talk.politics.misc/178889'
p534
I4773
sS'talk.politics.misc/178888'
p535
I4772
sS'comp.graphics/38823'
p536
I3661
sS'talk.politics.misc/178881'
p537
I4765
sS'talk.politics.misc/178880'
p538
I4764
sS'sci.med/58110'
p539
I2068
sS'comp.graphics/38822'
p540
I3660
sS'talk.politics.misc/178885'
p541
I4769
sS'comp.graphics/38759'
p542
I3597
sS'talk.politics.misc/178887'
p543
I4771
sS'talk.politics.misc/178886'
p544
I4770
sS'sci.space/61071'
p545
I1420
sS'sci.space/61070'
p546
I1419
sS'sci.space/61073'
p547
I1422
sS'sci.space/61072'
p548
I1421
sS'sci.space/61075'
p549
I1424
sS'sci.space/61074'
p550
I1423
sS'sci.space/61077'
p551
I1426
sS'sci.space/61076'
p552
I1425
sS'sci.space/61079'
p553
I1428
sS'sci.space/61078'
p554
I1427
sS'talk.politics.misc/178641'
p555
I4526
sS'talk.politics.misc/178640'
p556
I4525
sS'talk.politics.misc/178647'
p557
I4532
sS'talk.politics.misc/178646'
p558
I4531
sS'talk.politics.misc/178645'
p559
I4530
sS'talk.politics.misc/178644'
p560
I4529
sS'sci.space/61259'
p561
I1608
sS'sci.space/61258'
p562
I1607
sS'talk.politics.misc/177017'
p563
I4171
sS'sci.space/61251'
p564
I1600
sS'sci.space/61250'
p565
I1599
sS'sci.space/61253'
p566
I1602
sS'sci.space/61252'
p567
I1601
sS'sci.space/61255'
p568
I1604
sS'sci.space/61254'
p569
I1603
sS'sci.space/61257'
p570
I1606
sS'sci.space/61256'
p571
I1605
sS'comp.graphics/38753'
p572
I3591
sS'sci.med/59308'
p573
I2668
sS'sci.med/59309'
p574
I2669
sS'sci.med/59306'
p575
I2666
sS'sci.med/59307'
p576
I2667
sS'sci.med/59304'
p577
I2664
sS'sci.med/59305'
p578
I2665
sS'sci.med/59302'
p579
I2662
sS'sci.med/59303'
p580
I2663
sS'sci.med/59300'
p581
I2660
sS'sci.med/59301'
p582
I2661
sS'sci.space/60252'
p583
I1119
sS'sci.space/60253'
p584
I1120
sS'sci.space/60250'
p585
I1117
sS'sci.space/60251'
p586
I1118
sS'comp.graphics/38724'
p587
I3562
sS'sci.med/58112'
p588
I2070
sS'sci.med/59099'
p589
I2460
sS'sci.space/61383'
p590
I1732
sS'sci.space/61382'
p591
I1731
sS'sci.space/61381'
p592
I1730
sS'sci.space/61380'
p593
I1729
sS'sci.space/61387'
p594
I1736
sS'sci.space/61386'
p595
I1735
sS'sci.space/61385'
p596
I1734
sS'sci.space/61384'
p597
I1733
sS'talk.politics.misc/176889'
p598
I4043
sS'sci.med/59261'
p599
I2621
sS'sci.med/59260'
p600
I2620
sS'sci.space/60818'
p601
I1167
sS'sci.space/60819'
p602
I1168
sS'sci.med/59263'
p603
I2623
sS'sci.space/60810'
p604
I1159
sS'sci.space/60811'
p605
I1160
sS'sci.space/60812'
p606
I1161
sS'sci.space/60813'
p607
I1162
sS'sci.space/60814'
p608
I1163
sS'sci.space/60815'
p609
I1164
sS'sci.space/60816'
p610
I1165
sS'sci.space/60817'
p611
I1166
sS'sci.med/58848'
p612
I2210
sS'sci.med/58849'
p613
I2211
sS'sci.med/58842'
p614
I2204
sS'sci.med/58843'
p615
I2205
sS'sci.med/58840'
p616
I2202
sS'sci.med/58841'
p617
I2203
sS'sci.med/58846'
p618
I2208
sS'sci.med/58847'
p619
I2209
sS'sci.med/58844'
p620
I2206
sS'sci.med/58845'
p621
I2207
sS'talk.politics.misc/178668'
p622
I4553
sS'sci.space/61497'
p623
I1846
sS'sci.space/61496'
p624
I1845
sS'sci.space/61495'
p625
I1844
sS'sci.space/61494'
p626
I1843
sS'sci.space/61493'
p627
I1842
sS'sci.space/61492'
p628
I1841
sS'sci.space/61491'
p629
I1840
sS'sci.space/61490'
p630
I1839
sS'sci.space/61329'
p631
I1678
sS'sci.space/61499'
p632
I1848
sS'sci.space/61328'
p633
I1677
sS'talk.politics.misc/178980'
p634
I4864
sS'talk.politics.misc/178981'
p635
I4865
sS'talk.politics.misc/178599'
p636
I4484
sS'talk.politics.misc/178804'
p637
I4688
sS'talk.politics.misc/178788'
p638
I4672
sS'talk.politics.misc/178598'
p639
I4483
sS'comp.graphics/38781'
p640
I3619
sS'talk.politics.misc/178984'
p641
I4868
sS'comp.graphics/38978'
p642
I3815
sS'sci.med/58116'
p643
I2074
sS'comp.graphics/37946'
p644
I3034
sS'talk.politics.misc/178812'
p645
I4696
sS'talk.politics.misc/178986'
p646
I4870
sS'talk.politics.misc/178860'
p647
I4744
sS'sci.space/61321'
p648
I1670
sS'talk.politics.misc/177019'
p649
I4173
sS'talk.politics.misc/178987'
p650
I4871
sS'sci.space/61320'
p651
I1669
sS'talk.politics.misc/178988'
p652
I4872
sS'sci.med/59073'
p653
I2434
sS'talk.politics.misc/179102'
p654
I4985
sS'talk.politics.misc/178591'
p655
I4476
sS'talk.politics.misc/178813'
p656
I4697
sS'rec.sport.hockey/53787'
p657
I387
sS'rec.sport.hockey/53786'
p658
I386
sS'rec.sport.hockey/53785'
p659
I385
sS'rec.sport.hockey/53784'
p660
I384
sS'rec.sport.hockey/53783'
p661
I383
sS'rec.sport.hockey/53782'
p662
I382
sS'rec.sport.hockey/53781'
p663
I381
sS'rec.sport.hockey/53780'
p664
I380
sS'rec.sport.hockey/54564'
p665
I919
sS'rec.sport.hockey/54562'
p666
I917
sS'rec.sport.hockey/54563'
p667
I918
sS'rec.sport.hockey/53789'
p668
I389
sS'rec.sport.hockey/53788'
p669
I388
sS'comp.graphics/38809'
p670
I3647
sS'rec.sport.hockey/54768'
p671
I983
sS'rec.sport.hockey/54769'
p672
I984
sS'rec.sport.hockey/54764'
p673
I979
sS'rec.sport.hockey/54765'
p674
I980
sS'rec.sport.hockey/54766'
p675
I981
sS'rec.sport.hockey/54767'
p676
I982
sS'rec.sport.hockey/54760'
p677
I975
sS'rec.sport.hockey/54761'
p678
I976
sS'rec.sport.hockey/54762'
p679
I977
sS'rec.sport.hockey/54763'
p680
I978
sS'rec.sport.hockey/54162'
p681
I744
sS'rec.sport.hockey/54163'
p682
I745
sS'rec.sport.hockey/54160'
p683
I742
sS'rec.sport.hockey/54161'
p684
I743
sS'rec.sport.hockey/54166'
p685
I748
sS'rec.sport.hockey/54167'
p686
I749
sS'rec.sport.hockey/54164'
p687
I746
sS'rec.sport.hockey/54165'
p688
I747
sS'rec.sport.hockey/54168'
p689
I750
sS'rec.sport.hockey/54169'
p690
I751
sS'talk.politics.misc/176852'
p691
I4007
sS'comp.graphics/38989'
p692
I3826
sS'comp.graphics/38808'
p693
I3646
sS'talk.politics.misc/178297'
p694
I4183
sS'sci.med/58119'
p695
I2077
sS'talk.politics.misc/178359'
p696
I4245
sS'comp.graphics/38932'
p697
I3770
sS'talk.politics.misc/178358'
p698
I4244
sS'comp.graphics/38296'
p699
I3135
sS'rec.sport.hockey/54308'
p700
I854
sS'rec.sport.hockey/54309'
p701
I855
sS'comp.graphics/38297'
p702
I3136
sS'rec.sport.hockey/54302'
p703
I848
sS'rec.sport.hockey/54303'
p704
I849
sS'rec.sport.hockey/54300'
p705
I846
sS'rec.sport.hockey/54301'
p706
I847
sS'rec.sport.hockey/54306'
p707
I852
sS'rec.sport.hockey/54307'
p708
I853
sS'rec.sport.hockey/54304'
p709
I850
sS'rec.sport.hockey/54305'
p710
I851
sS'sci.med/59076'
p711
I2437
sS'talk.politics.misc/176991'
p712
I4145
sS'comp.graphics/38295'
p713
I3134
sS'talk.politics.misc/178588'
p714
I4473
sS'talk.politics.misc/176990'
p715
I4144
sS'comp.graphics/38292'
p716
I3131
sS'comp.graphics/39675'
p717
I3991
sS'comp.graphics/38293'
p718
I3132
sS'talk.politics.misc/178356'
p719
I4242
sS'comp.graphics/38290'
p720
I3129
sS'talk.politics.misc/178936'
p721
I4820
sS'talk.politics.misc/178351'
p722
I4237
sS'comp.graphics/38291'
p723
I3130
sS'talk.politics.misc/176994'
p724
I4148
sS'rec.sport.hockey/53673'
p725
I273
sS'rec.sport.hockey/53672'
p726
I272
sS'rec.sport.hockey/53671'
p727
I271
sS'rec.sport.hockey/53670'
p728
I270
sS'rec.sport.hockey/53677'
p729
I277
sS'rec.sport.hockey/53676'
p730
I276
sS'rec.sport.hockey/53675'
p731
I275
sS'rec.sport.hockey/53674'
p732
I274
sS'comp.graphics/38623'
p733
I3461
sS'comp.graphics/38622'
p734
I3460
sS'rec.sport.hockey/53679'
p735
I279
sS'rec.sport.hockey/53678'
p736
I278
sS'comp.graphics/38627'
p737
I3465
sS'comp.graphics/38626'
p738
I3464
sS'comp.graphics/38625'
p739
I3463
sS'comp.graphics/38624'
p740
I3462
sS'sci.space/62391'
p741
I1944
sS'sci.space/62390'
p742
I1943
sS'sci.space/62393'
p743
I1946
sS'sci.space/62392'
p744
I1945
sS'sci.space/62395'
p745
I1948
sS'sci.space/62394'
p746
I1947
sS'sci.space/62397'
p747
I1950
sS'sci.space/62396'
p748
I1949
sS'sci.space/62399'
p749
I1952
sS'sci.space/62398'
p750
I1951
sS'comp.graphics/38298'
p751
I3137
sS'comp.graphics/38665'
p752
I3503
sS'talk.politics.misc/177012'
p753
I4166
sS'comp.graphics/39669'
p754
I3985
sS'comp.graphics/38299'
p755
I3138
sS'comp.graphics/39000'
p756
I3837
sS'comp.graphics/39001'
p757
I3838
sS'comp.graphics/39002'
p758
I3839
sS'comp.graphics/39003'
p759
I3840
sS'comp.graphics/38926'
p760
I3764
sS'comp.graphics/39005'
p761
I3842
sS'comp.graphics/38539'
p762
I3377
sS'comp.graphics/38538'
p763
I3376
sS'comp.graphics/38537'
p764
I3375
sS'comp.graphics/38536'
p765
I3374
sS'sci.med/59079'
p766
I2440
sS'comp.graphics/38534'
p767
I3372
sS'comp.graphics/38533'
p768
I3371
sS'comp.graphics/38532'
p769
I3370
sS'comp.graphics/38531'
p770
I3369
sS'comp.graphics/38530'
p771
I3368
sS'talk.politics.misc/178815'
p772
I4699
sS'rec.sport.hockey/54780'
p773
I995
sS'sci.med/59361'
p774
I2721
sS'talk.politics.misc/177016'
p775
I4170
sS'comp.graphics/38695'
p776
I3533
sS'talk.politics.misc/176902'
p777
I4056
sS'talk.politics.misc/176903'
p778
I4057
sS'talk.politics.misc/176900'
p779
I4054
sS'comp.graphics/39084'
p780
I3921
sS'talk.politics.misc/176906'
p781
I4060
sS'talk.politics.misc/176907'
p782
I4061
sS'talk.politics.misc/176904'
p783
I4058
sS'talk.politics.misc/176905'
p784
I4059
sS'talk.politics.misc/176908'
p785
I4062
sS'talk.politics.misc/176909'
p786
I4063
sS'talk.politics.misc/178878'
p787
I4762
sS'talk.politics.misc/178879'
p788
I4763
sS'comp.graphics/38935'
p789
I3773
sS'sci.med/59366'
p790
I2726
sS'talk.politics.misc/177015'
p791
I4169
sS'sci.med/59367'
p792
I2727
sS'talk.politics.misc/178512'
p793
I4398
sS'comp.graphics/38443'
p794
I3281
sS'comp.graphics/38442'
p795
I3280
sS'rec.sport.hockey/53929'
p796
I529
sS'rec.sport.hockey/53928'
p797
I528
sS'comp.graphics/38447'
p798
I3285
sS'comp.graphics/38446'
p799
I3284
sS'comp.graphics/38445'
p800
I3283
sS'comp.graphics/38444'
p801
I3282
sS'rec.sport.hockey/53923'
p802
I523
sS'rec.sport.hockey/53922'
p803
I522
sS'rec.sport.hockey/53921'
p804
I521
sS'rec.sport.hockey/53920'
p805
I520
sS'rec.sport.hockey/53927'
p806
I527
sS'rec.sport.hockey/53926'
p807
I526
sS'rec.sport.hockey/53925'
p808
I525
sS'rec.sport.hockey/53924'
p809
I524
sS'talk.politics.misc/178504'
p810
I4390
sS'talk.politics.misc/178505'
p811
I4391
sS'talk.politics.misc/178506'
p812
I4392
sS'talk.politics.misc/178507'
p813
I4393
sS'talk.politics.misc/178500'
p814
I4386
sS'talk.politics.misc/177014'
p815
I4168
sS'talk.politics.misc/178502'
p816
I4388
sS'talk.politics.misc/178503'
p817
I4389
sS'talk.politics.misc/179055'
p818
I4938
sS'sci.med/59405'
p819
I2765
sS'talk.politics.misc/179057'
p820
I4940
sS'talk.politics.misc/178806'
p821
I4690
sS'talk.politics.misc/178508'
p822
I4394
sS'talk.politics.misc/178509'
p823
I4395
sS'talk.politics.misc/179053'
p824
I4936
sS'talk.politics.misc/179052'
p825
I4935
sS'sci.med/58068'
p826
I2026
sS'sci.med/58069'
p827
I2027
sS'talk.politics.misc/179045'
p828
I4928
sS'comp.graphics/39007'
p829
I3844
sS'sci.space/59906'
p830
I1012
sS'sci.space/59907'
p831
I1013
sS'sci.space/59904'
p832
I1010
sS'sci.space/59905'
p833
I1011
sS'sci.med/58060'
p834
I2018
sS'sci.med/58061'
p835
I2019
sS'sci.space/59908'
p836
I1014
sS'sci.space/59909'
p837
I1015
sS'sci.med/58064'
p838
I2022
sS'sci.med/58065'
p839
I2023
sS'rec.sport.hockey/54240'
p840
I800
sS'sci.med/58067'
p841
I2025
sS'sci.med/59243'
p842
I2603
sS'sci.med/59242'
p843
I2602
sS'sci.med/59241'
p844
I2601
sS'sci.med/59240'
p845
I2600
sS'sci.med/59247'
p846
I2607
sS'sci.med/59246'
p847
I2606
sS'sci.med/59245'
p848
I2605
sS'sci.med/59244'
p849
I2604
sS'sci.med/59249'
p850
I2609
sS'sci.med/59248'
p851
I2608
sS'comp.graphics/38403'
p852
I3242
sS'rec.sport.hockey/53817'
p853
I417
sS'rec.sport.hockey/53816'
p854
I416
sS'rec.sport.hockey/53815'
p855
I415
sS'rec.sport.hockey/53814'
p856
I414
sS'rec.sport.hockey/53813'
p857
I413
sS'rec.sport.hockey/53812'
p858
I412
sS'rec.sport.hockey/53811'
p859
I411
sS'rec.sport.hockey/53810'
p860
I410
sS'comp.graphics/38992'
p861
I3829
sS'talk.politics.misc/178943'
p862
I4827
sS'talk.politics.misc/179086'
p863
I4969
sS'rec.sport.hockey/53819'
p864
I419
sS'rec.sport.hockey/53818'
p865
I418
sS'talk.politics.misc/178421'
p866
I4307
sS'sci.med/58154'
p867
I2112
sS'sci.med/59645'
p868
I2996
sS'sci.med/59644'
p869
I2995
sS'sci.med/59643'
p870
I2994
sS'sci.med/59642'
p871
I2993
sS'sci.med/59641'
p872
I2992
sS'sci.med/58155'
p873
I2113
sS'talk.politics.misc/178470'
p874
I4356
sS'talk.politics.misc/178471'
p875
I4357
sS'talk.politics.misc/178472'
p876
I4358
sS'talk.politics.misc/178473'
p877
I4359
sS'talk.politics.misc/178474'
p878
I4360
sS'talk.politics.misc/178475'
p879
I4361
sS'talk.politics.misc/178476'
p880
I4362
sS'sci.med/59648'
p881
I2998
sS'talk.politics.misc/178676'
p882
I4561
sS'sci.med/59429'
p883
I2789
sS'sci.med/59428'
p884
I2788
sS'sci.med/59427'
p885
I2787
sS'sci.med/59426'
p886
I2786
sS'sci.space/59874'
p887
I1009
sS'sci.med/59424'
p888
I2784
sS'sci.space/59872'
p889
I1007
sS'sci.space/59873'
p890
I1008
sS'sci.space/59870'
p891
I1005
sS'sci.space/59871'
p892
I1006
sS'talk.politics.misc/178675'
p893
I4560
sS'talk.politics.misc/176999'
p894
I4153
sS'comp.graphics/39059'
p895
I3896
sS'talk.politics.misc/178672'
p896
I4557
sS'sci.med/58153'
p897
I2111
sS'talk.politics.misc/178673'
p898
I4558
sS'talk.politics.misc/178898'
p899
I4782
sS'talk.politics.misc/178899'
p900
I4783
sS'talk.politics.misc/178670'
p901
I4555
sS'sci.space/61068'
p902
I1417
sS'sci.space/61069'
p903
I1418
sS'sci.space/61066'
p904
I1415
sS'sci.space/61067'
p905
I1416
sS'sci.space/61064'
p906
I1413
sS'sci.space/61065'
p907
I1414
sS'sci.space/61062'
p908
I1411
sS'sci.space/61063'
p909
I1412
sS'sci.space/61060'
p910
I1409
sS'sci.space/61061'
p911
I1410
sS'talk.politics.misc/178777'
p912
I4661
sS'talk.politics.misc/178658'
p913
I4543
sS'talk.politics.misc/178659'
p914
I4544
sS'talk.politics.misc/176887'
p915
I4041
sS'talk.politics.misc/178654'
p916
I4539
sS'talk.politics.misc/178655'
p917
I4540
sS'talk.politics.misc/178656'
p918
I4541
sS'talk.politics.misc/178657'
p919
I4542
sS'talk.politics.misc/178650'
p920
I4535
sS'talk.politics.misc/178651'
p921
I4536
sS'talk.politics.misc/178652'
p922
I4537
sS'talk.politics.misc/178653'
p923
I4538
sS'sci.space/61246'
p924
I1595
sS'sci.space/61247'
p925
I1596
sS'sci.space/61244'
p926
I1593
sS'sci.space/61245'
p927
I1594
sS'sci.space/61242'
p928
I1591
sS'sci.space/61243'
p929
I1592
sS'sci.space/61240'
p930
I1589
sS'sci.space/61241'
p931
I1590
sS'talk.politics.misc/178793'
p932
I4677
sS'talk.politics.misc/178773'
p933
I4657
sS'sci.space/61248'
p934
I1597
sS'sci.space/61249'
p935
I1598
sS'sci.med/59339'
p936
I2699
sS'sci.med/59338'
p937
I2698
sS'talk.politics.misc/179022'
p938
I4905
sS'talk.politics.misc/178771'
p939
I4655
sS'talk.politics.misc/176954'
p940
I4108
sS'sci.med/58107'
p941
I2065
sS'sci.med/59332'
p942
I2692
sS'sci.med/59331'
p943
I2691
sS'sci.space/59497'
p944
I1000
sS'sci.med/59337'
p945
I2697
sS'sci.med/59336'
p946
I2696
sS'sci.med/59335'
p947
I2695
sS'sci.med/59334'
p948
I2694
sS'sci.space/61398'
p949
I1747
sS'sci.space/61399'
p950
I1748
sS'sci.med/59147'
p951
I2508
sS'sci.space/61513'
p952
I1862
sS'sci.space/61390'
p953
I1739
sS'sci.space/61391'
p954
I1740
sS'sci.space/61392'
p955
I1741
sS'sci.space/61393'
p956
I1742
sS'sci.space/61394'
p957
I1743
sS'sci.space/61395'
p958
I1744
sS'sci.space/61396'
p959
I1745
sS'sci.space/61397'
p960
I1746
sS'talk.politics.misc/178718'
p961
I4603
sS'sci.space/61511'
p962
I1860
sS'sci.space/61516'
p963
I1865
sS'comp.graphics/38848'
p964
I3686
sS'sci.space/61517'
p965
I1866
sS'sci.space/60825'
p966
I1174
sS'sci.space/60824'
p967
I1173
sS'sci.space/60827'
p968
I1176
sS'sci.space/60826'
p969
I1175
sS'sci.space/60821'
p970
I1170
sS'sci.space/60820'
p971
I1169
sS'sci.space/60823'
p972
I1172
sS'sci.space/60822'
p973
I1171
sS'comp.graphics/38708'
p974
I3546
sS'sci.space/61515'
p975
I1864
sS'sci.space/60829'
p976
I1178
sS'sci.space/60828'
p977
I1177
sS'talk.politics.misc/176929'
p978
I4083
sS'sci.med/58877'
p979
I2239
sS'sci.med/58876'
p980
I2238
sS'sci.med/58875'
p981
I2237
sS'sci.med/58874'
p982
I2236
sS'sci.med/58873'
p983
I2235
sS'sci.med/58872'
p984
I2234
sS'sci.med/58871'
p985
I2233
sS'sci.med/58870'
p986
I2232
sS'talk.politics.misc/176851'
p987
I4006
sS'talk.politics.misc/178752'
p988
I4636
sS'sci.space/61518'
p989
I1867
sS'sci.med/58879'
p990
I2241
sS'sci.med/58878'
p991
I2240
sS'talk.politics.misc/178925'
p992
I4809
sS'talk.politics.misc/176998'
p993
I4152
sS'sci.space/61484'
p994
I1833
sS'sci.space/61485'
p995
I1834
sS'sci.space/61486'
p996
I1835
sS'sci.space/61487'
p997
I1836
sS'sci.space/61480'
p998
I1829
sS'sci.space/61481'
p999
I1830
sS'sci.space/61482'
p1000
I1831
sS'sci.space/61483'
p1001
I1832
sS'sci.space/61488'
p1002
I1837
sS'sci.space/61489'
p1003
I1838
sS'talk.politics.misc/178667'
p1004
I4552
sS'comp.graphics/38471'
p1005
I3309
sS'comp.graphics/39047'
p1006
I3884
sS'comp.graphics/38477'
p1007
I3315
sS'sci.med/59251'
p1008
I2611
sS'comp.graphics/38371'
p1009
I3210
sS'talk.politics.misc/179065'
p1010
I4948
sS'talk.politics.misc/178294'
p1011
I4180
sS'talk.politics.misc/179067'
p1012
I4950
sS'talk.politics.misc/178398'
p1013
I4284
sS'comp.graphics/40027'
p1014
I3998
sS'talk.politics.misc/178660'
p1015
I4545
sS'comp.graphics/38704'
p1016
I3542
sS'comp.graphics/38705'
p1017
I3543
sS'comp.graphics/38706'
p1018
I3544
sS'comp.graphics/38707'
p1019
I3545
sS'comp.graphics/38700'
p1020
I3538
sS'comp.graphics/38701'
p1021
I3539
sS'comp.graphics/38702'
p1022
I3540
sS'comp.graphics/38703'
p1023
I3541
sS'rec.sport.hockey/54722'
p1024
I937
sS'sci.med/58993'
p1025
I2355
sS'talk.politics.misc/179063'
p1026
I4946
sS'sci.med/58101'
p1027
I2059
sS'comp.graphics/38709'
p1028
I3547
sS'talk.politics.misc/178801'
p1029
I4685
sS'talk.politics.misc/178893'
p1030
I4777
sS'comp.graphics/38379'
p1031
I3218
sS'rec.sport.hockey/54779'
p1032
I994
sS'rec.sport.hockey/54778'
p1033
I993
sS'comp.graphics/38389'
p1034
I3228
sS'rec.sport.hockey/54773'
p1035
I988
sS'rec.sport.hockey/54772'
p1036
I987
sS'rec.sport.hockey/54771'
p1037
I986
sS'rec.sport.hockey/54770'
p1038
I985
sS'rec.sport.hockey/54777'
p1039
I992
sS'rec.sport.hockey/54776'
p1040
I991
sS'rec.sport.hockey/54775'
p1041
I990
sS'rec.sport.hockey/54774'
p1042
I989
sS'rec.sport.hockey/54171'
p1043
I753
sS'rec.sport.hockey/54170'
p1044
I752
sS'rec.sport.hockey/54173'
p1045
I755
sS'rec.sport.hockey/54172'
p1046
I754
sS'rec.sport.hockey/54175'
p1047
I757
sS'rec.sport.hockey/54174'
p1048
I756
sS'rec.sport.hockey/54177'
p1049
I759
sS'rec.sport.hockey/54176'
p1050
I758
sS'comp.graphics/39497'
p1051
I3928
sS'comp.graphics/38310'
p1052
I3149
sS'comp.graphics/39495'
p1053
I3926
sS'comp.graphics/39498'
p1054
I3929
sS'talk.politics.misc/178800'
p1055
I4684
sS'comp.graphics/39490'
p1056
I3925
sS'sci.med/58899'
p1057
I2261
sS'sci.med/58898'
p1058
I2260
sS'comp.graphics/39496'
p1059
I3927
sS'sci.med/58895'
p1060
I2257
sS'sci.med/58894'
p1061
I2256
sS'sci.med/58897'
p1062
I2259
sS'sci.med/58896'
p1063
I2258
sS'sci.med/58891'
p1064
I2253
sS'sci.med/58890'
p1065
I2252
sS'sci.med/58893'
p1066
I2255
sS'sci.med/58892'
p1067
I2254
sS'talk.politics.misc/178838'
p1068
I4722
sS'sci.med/58995'
p1069
I2357
sS'sci.med/59602'
p1070
I2962
sS'sci.space/61542'
p1071
I1891
sS'sci.med/59238'
p1072
I2598
sS'sci.med/59239'
p1073
I2599
sS'talk.politics.misc/178295'
p1074
I4181
sS'talk.politics.misc/176885'
p1075
I4039
sS'sci.med/58996'
p1076
I2358
sS'comp.graphics/38979'
p1077
I3816
sS'talk.politics.misc/178802'
p1078
I4686
sS'sci.med/59604'
p1079
I2964
sS'comp.graphics/38638'
p1080
I3476
sS'sci.med/59232'
p1081
I2592
sS'rec.sport.hockey/53688'
p1082
I288
sS'rec.sport.hockey/53689'
p1083
I289
sS'rec.sport.hockey/53686'
p1084
I286
sS'rec.sport.hockey/53687'
p1085
I287
sS'rec.sport.hockey/53684'
p1086
I284
sS'rec.sport.hockey/53685'
p1087
I285
sS'rec.sport.hockey/53682'
p1088
I282
sS'rec.sport.hockey/53683'
p1089
I283
sS'rec.sport.hockey/53680'
p1090
I280
sS'rec.sport.hockey/53681'
p1091
I281
sS'sci.med/58997'
p1092
I2359
sS'sci.med/59231'
p1093
I2591
sS'sci.space/62474'
p1094
I1987
sS'sci.space/62475'
p1095
I1988
sS'sci.space/62476'
p1096
I1989
sS'sci.space/62477'
p1097
I1990
sS'sci.space/62478'
p1098
I1991
sS'sci.space/62479'
p1099
I1992
sS'comp.graphics/38311'
p1100
I3150
sS'sci.med/59237'
p1101
I2597
sS'sci.med/59234'
p1102
I2594
sS'talk.politics.misc/179028'
p1103
I4911
sS'sci.med/59089'
p1104
I2450
sS'sci.med/59235'
p1105
I2595
sS'talk.politics.misc/176922'
p1106
I4076
sS'talk.politics.misc/178388'
p1107
I4274
sS'sci.med/59088'
p1108
I2449
sS'comp.graphics/39035'
p1109
I3872
sS'comp.graphics/39034'
p1110
I3871
sS'comp.graphics/38933'
p1111
I3771
sS'comp.graphics/39036'
p1112
I3873
sS'comp.graphics/38528'
p1113
I3366
sS'comp.graphics/38529'
p1114
I3367
sS'comp.graphics/39033'
p1115
I3870
sS'comp.graphics/39032'
p1116
I3869
sS'comp.graphics/38524'
p1117
I3362
sS'comp.graphics/38525'
p1118
I3363
sS'comp.graphics/38526'
p1119
I3364
sS'comp.graphics/38527'
p1120
I3365
sS'comp.graphics/38520'
p1121
I3358
sS'comp.graphics/38521'
p1122
I3359
sS'comp.graphics/38522'
p1123
I3360
sS'comp.graphics/38523'
p1124
I3361
sS'talk.politics.misc/179089'
p1125
I4972
sS'comp.graphics/38939'
p1126
I3777
sS'talk.politics.misc/176923'
p1127
I4077
sS'talk.politics.misc/178389'
p1128
I4275
sS'talk.politics.misc/178761'
p1129
I4645
sS'comp.graphics/38317'
p1130
I3156
sS'talk.politics.misc/176937'
p1131
I4091
sS'talk.politics.misc/176936'
p1132
I4090
sS'talk.politics.misc/176935'
p1133
I4089
sS'talk.politics.misc/176934'
p1134
I4088
sS'talk.politics.misc/176933'
p1135
I4087
sS'talk.politics.misc/176932'
p1136
I4086
sS'talk.politics.misc/176931'
p1137
I4085
sS'talk.politics.misc/176930'
p1138
I4084
sS'sci.med/59081'
p1139
I2442
sS'talk.politics.misc/176939'
p1140
I4093
sS'sci.med/59080'
p1141
I2441
sS'talk.politics.misc/179030'
p1142
I4913
sS'talk.politics.misc/179083'
p1143
I4966
sS'talk.politics.misc/176924'
p1144
I4078
sS'comp.graphics/38938'
p1145
I3776
sS'comp.graphics/38450'
p1146
I3288
sS'comp.graphics/38451'
p1147
I3289
sS'comp.graphics/38452'
p1148
I3290
sS'sci.med/59188'
p1149
I2548
sS'comp.graphics/38454'
p1150
I3292
sS'rec.sport.hockey/54708'
p1151
I924
sS'comp.graphics/38456'
p1152
I3294
sS'comp.graphics/38457'
p1153
I3295
sS'comp.graphics/38458'
p1154
I3296
sS'comp.graphics/38459'
p1155
I3297
sS'rec.sport.hockey/54257'
p1156
I817
sS'sci.space/61512'
p1157
I1861
sS'rec.sport.hockey/54706'
p1158
I922
sS'talk.politics.misc/179084'
p1159
I4967
sS'sci.space/62388'
p1160
I1941
sS'rec.sport.hockey/54707'
p1161
I923
sS'sci.space/62386'
p1162
I1939
sS'sci.space/62387'
p1163
I1940
sS'talk.politics.misc/179044'
p1164
I4927
sS'sci.space/62385'
p1165
I1938
sS'talk.politics.misc/179042'
p1166
I4925
sS'talk.politics.misc/179043'
p1167
I4926
sS'talk.politics.misc/179040'
p1168
I4923
sS'talk.politics.misc/179041'
p1169
I4924
sS'sci.med/58095'
p1170
I2053
sS'sci.med/58094'
p1171
I2052
sS'sci.med/58097'
p1172
I2055
sS'sci.med/58096'
p1173
I2054
sS'sci.med/58091'
p1174
I2049
sS'sci.med/58090'
p1175
I2048
sS'sci.med/58093'
p1176
I2051
sS'sci.med/58092'
p1177
I2050
sS'sci.med/59254'
p1178
I2614
sS'sci.med/59255'
p1179
I2615
sS'sci.med/59256'
p1180
I2616
sS'sci.med/59257'
p1181
I2617
sS'sci.med/58099'
p1182
I2057
sS'sci.med/58098'
p1183
I2056
sS'sci.med/59252'
p1184
I2612
sS'sci.med/59253'
p1185
I2613
sS'talk.politics.misc/179012'
p1186
I4895
sS'talk.politics.misc/176926'
p1187
I4080
sS'talk.politics.misc/178782'
p1188
I4666
sS'talk.politics.misc/178770'
p1189
I4654
sS'comp.graphics/37918'
p1190
I3006
sS'comp.graphics/37919'
p1191
I3007
sS'rec.sport.hockey/53862'
p1192
I462
sS'rec.sport.hockey/53863'
p1193
I463
sS'rec.sport.hockey/53860'
p1194
I460
sS'rec.sport.hockey/53861'
p1195
I461
sS'rec.sport.hockey/53866'
p1196
I466
sS'rec.sport.hockey/53867'
p1197
I467
sS'rec.sport.hockey/53864'
p1198
I464
sS'rec.sport.hockey/53865'
p1199
I465
sS'sci.space/61510'
p1200
I1859
sS'rec.sport.hockey/53868'
p1201
I468
sS'rec.sport.hockey/53869'
p1202
I469
sS'talk.politics.misc/179029'
p1203
I4912
sS'sci.med/58789'
p1204
I2151
sS'sci.med/58788'
p1205
I2150
sS'sci.med/59652'
p1206
I2999
sS'talk.politics.misc/178409'
p1207
I4295
sS'talk.politics.misc/178408'
p1208
I4294
sS'talk.politics.misc/179018'
p1209
I4901
sS'sci.med/58781'
p1210
I2143
sS'sci.med/58780'
p1211
I2142
sS'sci.med/58783'
p1212
I2145
sS'sci.med/58782'
p1213
I2144
sS'sci.med/58785'
p1214
I2147
sS'sci.med/58784'
p1215
I2146
sS'sci.med/58787'
p1216
I2149
sS'sci.med/58786'
p1217
I2148
sS'sci.med/59438'
p1218
I2798
sS'sci.med/59439'
p1219
I2799
sS'comp.graphics/37917'
p1220
I3005
sS'talk.politics.misc/178931'
p1221
I4815
sS'sci.med/59430'
p1222
I2790
sS'sci.med/59431'
p1223
I2791
sS'sci.med/59432'
p1224
I2792
sS'sci.med/59433'
p1225
I2793
sS'sci.med/59434'
p1226
I2794
sS'sci.med/59435'
p1227
I2795
sS'sci.med/59436'
p1228
I2796
sS'sci.med/59437'
p1229
I2797
sS'talk.politics.misc/179034'
p1230
I4917
sS'talk.politics.misc/178590'
p1231
I4475
sS'comp.graphics/37913'
p1232
I3001
sS'talk.politics.misc/179092'
p1233
I4975
sS'talk.politics.misc/178311'
p1234
I4197
sS'talk.politics.misc/178310'
p1235
I4196
sS'sci.space/61019'
p1236
I1368
sS'sci.space/61018'
p1237
I1367
sS'talk.politics.misc/178315'
p1238
I4201
sS'talk.politics.misc/178314'
p1239
I4200
sS'talk.politics.misc/178317'
p1240
I4203
sS'talk.politics.misc/178316'
p1241
I4202
sS'sci.space/61013'
p1242
I1362
sS'sci.space/61012'
p1243
I1361
sS'sci.space/61011'
p1244
I1360
sS'sci.space/61010'
p1245
I1359
sS'sci.space/61017'
p1246
I1366
sS'sci.space/61016'
p1247
I1365
sS'sci.space/61015'
p1248
I1364
sS'sci.space/61014'
p1249
I1363
sS'talk.politics.misc/178932'
p1250
I4816
sS'talk.politics.misc/178935'
p1251
I4819
sS'talk.politics.misc/178934'
p1252
I4818
sS'sci.space/61233'
p1253
I1582
sS'sci.space/61232'
p1254
I1581
sS'sci.space/61231'
p1255
I1580
sS'sci.space/61230'
p1256
I1579
sS'sci.space/61237'
p1257
I1586
sS'sci.space/61236'
p1258
I1585
sS'sci.space/61235'
p1259
I1584
sS'sci.space/61234'
p1260
I1583
sS'talk.politics.misc/178999'
p1261
I4883
sS'sci.space/61239'
p1262
I1588
sS'sci.space/61238'
p1263
I1587
sS'sci.med/59324'
p1264
I2684
sS'sci.med/59325'
p1265
I2685
sS'sci.med/59326'
p1266
I2686
sS'sci.med/59327'
p1267
I2687
sS'sci.med/59320'
p1268
I2680
sS'sci.med/59321'
p1269
I2681
sS'sci.med/59322'
p1270
I2682
sS'sci.med/59323'
p1271
I2683
sS'sci.med/59328'
p1272
I2688
sS'sci.med/59329'
p1273
I2689
sS'sci.space/61514'
p1274
I1863
sS'comp.graphics/38609'
p1275
I3447
sS'sci.med/58991'
p1276
I2353
sS'talk.politics.misc/178783'
p1277
I4667
sS'talk.politics.misc/178381'
p1278
I4267
sS'sci.med/58992'
p1279
I2354
sS'talk.politics.misc/178545'
p1280
I4431
sS'sci.space/61127'
p1281
I1476
sS'sci.space/61126'
p1282
I1475
sS'sci.space/61125'
p1283
I1474
sS'sci.space/61124'
p1284
I1473
sS'sci.space/61123'
p1285
I1472
sS'sci.space/61122'
p1286
I1471
sS'sci.space/61121'
p1287
I1470
sS'sci.space/61120'
p1288
I1469
sS'sci.med/58994'
p1289
I2356
sS'comp.graphics/39640'
p1290
I3956
sS'sci.space/61129'
p1291
I1478
sS'sci.space/61128'
p1292
I1477
sS'sci.space/60832'
p1293
I1181
sS'sci.space/60833'
p1294
I1182
sS'sci.space/60830'
p1295
I1179
sS'sci.space/60831'
p1296
I1180
sS'sci.space/60836'
p1297
I1185
sS'sci.space/60837'
p1298
I1186
sS'sci.space/60834'
p1299
I1183
sS'sci.space/60835'
p1300
I1184
sS'sci.space/61347'
p1301
I1696
sS'sci.space/61346'
p1302
I1695
sS'sci.space/60838'
p1303
I1187
sS'sci.space/60839'
p1304
I1188
sS'sci.space/61343'
p1305
I1692
sS'sci.space/61342'
p1306
I1691
sS'sci.space/61341'
p1307
I1690
sS'sci.space/61340'
p1308
I1689
sS'sci.med/58860'
p1309
I2222
sS'sci.med/58861'
p1310
I2223
sS'sci.med/58862'
p1311
I2224
sS'sci.med/58863'
p1312
I2225
sS'sci.med/58864'
p1313
I2226
sS'sci.med/58865'
p1314
I2227
sS'sci.med/58866'
p1315
I2228
sS'sci.med/58867'
p1316
I2229
sS'sci.med/58868'
p1317
I2230
sS'sci.med/58869'
p1318
I2231
sS'comp.graphics/39645'
p1319
I3961
sS'comp.graphics/38805'
p1320
I3643
sS'talk.politics.misc/179033'
p1321
I4916
sS'comp.graphics/38639'
p1322
I3477
sS'talk.politics.misc/178387'
p1323
I4273
sS'talk.politics.misc/178763'
p1324
I4647
sS'comp.graphics/38804'
p1325
I3642
sS'sci.med/59517'
p1326
I2877
sS'sci.med/59516'
p1327
I2876
sS'talk.politics.misc/179002'
p1328
I4886
sS'talk.politics.misc/178937'
p1329
I4821
sS'talk.politics.misc/178612'
p1330
I4497
sS'sci.med/59515'
p1331
I2875
sS'comp.graphics/39674'
p1332
I3990
sS'sci.med/59514'
p1333
I2874
sS'sci.med/59513'
p1334
I2873
sS'sci.med/59546'
p1335
I2906
sS'sci.med/59512'
p1336
I2872
sS'comp.graphics/38630'
p1337
I3468
sS'sci.med/59511'
p1338
I2871
sS'comp.graphics/38631'
p1339
I3469
sS'sci.med/59510'
p1340
I2870
sS'comp.graphics/38632'
p1341
I3470
sS'sci.med/59104'
p1342
I2465
sS'comp.graphics/38633'
p1343
I3471
sS'comp.graphics/38634'
p1344
I3472
sS'comp.graphics/38635'
p1345
I3473
sS'sci.med/59125'
p1346
I2486
sS'comp.graphics/38636'
p1347
I3474
sS'talk.politics.misc/178724'
p1348
I4609
sS'comp.graphics/38637'
p1349
I3475
sS'sci.med/58986'
p1350
I2348
sS'rec.sport.hockey/54548'
p1351
I907
sS'rec.sport.hockey/54549'
p1352
I908
sS'rec.sport.hockey/54098'
p1353
I698
sS'rec.sport.hockey/54099'
p1354
I699
sS'rec.sport.hockey/54540'
p1355
I899
sS'rec.sport.hockey/54093'
p1356
I693
sS'rec.sport.hockey/54090'
p1357
I690
sS'rec.sport.hockey/54091'
p1358
I691
sS'rec.sport.hockey/54096'
p1359
I696
sS'rec.sport.hockey/54097'
p1360
I697
sS'rec.sport.hockey/54094'
p1361
I694
sS'rec.sport.hockey/54095'
p1362
I695
sS'sci.med/58985'
p1363
I2347
sS'talk.politics.misc/178996'
p1364
I4880
sS'comp.graphics/39488'
p1365
I3923
sS'comp.graphics/39489'
p1366
I3924
sS'comp.graphics/39487'
p1367
I3922
sS'talk.politics.misc/178942'
p1368
I4826
sS'talk.politics.misc/178323'
p1369
I4209
sS'sci.med/58888'
p1370
I2250
sS'sci.med/58889'
p1371
I2251
sS'sci.med/58886'
p1372
I2248
sS'sci.med/58887'
p1373
I2249
sS'sci.med/58884'
p1374
I2246
sS'sci.med/58885'
p1375
I2247
sS'sci.med/58882'
p1376
I2244
sS'sci.med/58883'
p1377
I2245
sS'sci.med/58880'
p1378
I2242
sS'sci.med/58881'
p1379
I2243
sS'talk.politics.misc/178337'
p1380
I4223
sS'talk.politics.misc/178336'
p1381
I4222
sS'talk.politics.misc/178335'
p1382
I4221
sS'talk.politics.misc/178727'
p1383
I4611
sS'talk.politics.misc/178334'
p1384
I4220
sS'rec.sport.hockey/54896'
p1385
I996
sS'rec.sport.hockey/54897'
p1386
I997
sS'talk.politics.misc/178333'
p1387
I4219
sS'comp.graphics/38738'
p1388
I3576
sS'comp.graphics/38294'
p1389
I3133
sS'talk.politics.misc/178332'
p1390
I4218
sS'sci.med/59543'
p1391
I2903
sS'talk.politics.misc/177018'
p1392
I4172
sS'talk.politics.misc/178331'
p1393
I4217
sS'talk.politics.misc/178330'
p1394
I4216
sS'comp.graphics/39736'
p1395
I3994
sS'comp.graphics/39737'
p1396
I3995
sS'comp.graphics/38600'
p1397
I3438
sS'rec.sport.hockey/53699'
p1398
I299
sS'rec.sport.hockey/53698'
p1399
I298
sS'rec.sport.hockey/53695'
p1400
I295
sS'rec.sport.hockey/53694'
p1401
I294
sS'rec.sport.hockey/53697'
p1402
I297
sS'rec.sport.hockey/53696'
p1403
I296
sS'rec.sport.hockey/53691'
p1404
I291
sS'rec.sport.hockey/53690'
p1405
I290
sS'rec.sport.hockey/53693'
p1406
I293
sS'rec.sport.hockey/53692'
p1407
I292
sS'talk.politics.misc/178399'
p1408
I4285
sS'comp.graphics/38603'
p1409
I3441
sS'talk.politics.misc/176882'
p1410
I4036
sS'rec.sport.hockey/52658'
p1411
I108
sS'rec.sport.hockey/52659'
p1412
I109
sS'rec.sport.hockey/52656'
p1413
I106
sS'rec.sport.hockey/52657'
p1414
I107
sS'rec.sport.hockey/52654'
p1415
I104
sS'rec.sport.hockey/52655'
p1416
I105
sS'rec.sport.hockey/52652'
p1417
I102
sS'rec.sport.hockey/52653'
p1418
I103
sS'rec.sport.hockey/52650'
p1419
I100
sS'rec.sport.hockey/52651'
p1420
I101
sS'comp.graphics/38281'
p1421
I3120
sS'comp.graphics/38280'
p1422
I3119
sS'comp.graphics/38283'
p1423
I3122
sS'comp.graphics/38282'
p1424
I3121
sS'comp.graphics/38285'
p1425
I3124
sS'comp.graphics/38284'
p1426
I3123
sS'comp.graphics/38287'
p1427
I3126
sS'comp.graphics/38286'
p1428
I3125
sS'comp.graphics/38289'
p1429
I3128
sS'comp.graphics/38288'
p1430
I3127
sS'comp.graphics/39020'
p1431
I3857
sS'comp.graphics/39021'
p1432
I3858
sS'comp.graphics/39026'
p1433
I3863
sS'comp.graphics/39027'
p1434
I3864
sS'comp.graphics/39024'
p1435
I3861
sS'comp.graphics/38602'
p1436
I3440
sS'sci.med/58980'
p1437
I2342
sS'comp.graphics/38510'
p1438
I3348
sS'comp.graphics/38513'
p1439
I3351
sS'comp.graphics/38512'
p1440
I3350
sS'comp.graphics/38515'
p1441
I3353
sS'comp.graphics/38514'
p1442
I3352
sS'comp.graphics/38517'
p1443
I3355
sS'comp.graphics/38516'
p1444
I3354
sS'comp.graphics/38519'
p1445
I3357
sS'comp.graphics/38518'
p1446
I3356
sS'comp.graphics/38685'
p1447
I3523
sS'comp.graphics/38908'
p1448
I3746
sS'comp.graphics/38684'
p1449
I3522
sS'talk.politics.misc/178923'
p1450
I4807
sS'talk.politics.misc/178680'
p1451
I4565
sS'comp.graphics/38687'
p1452
I3525
sS'talk.politics.misc/176928'
p1453
I4082
sS'comp.graphics/38253'
p1454
I3092
sS'talk.politics.misc/179031'
p1455
I4914
sS'comp.graphics/38686'
p1456
I3524
sS'comp.graphics/38999'
p1457
I3836
sS'comp.graphics/38998'
p1458
I3835
sS'talk.politics.misc/178725'
p1459
I4610
sS'comp.graphics/38995'
p1460
I3832
sS'rec.sport.hockey/53611'
p1461
I211
sS'comp.graphics/38997'
p1462
I3834
sS'comp.graphics/38996'
p1463
I3833
sS'sci.med/59330'
p1464
I2690
sS'comp.graphics/38990'
p1465
I3827
sS'comp.graphics/38993'
p1466
I3830
sS'rec.sport.hockey/53610'
p1467
I210
sS'comp.graphics/38465'
p1468
I3303
sS'comp.graphics/38464'
p1469
I3302
sS'comp.graphics/38467'
p1470
I3305
sS'comp.graphics/38466'
p1471
I3304
sS'comp.graphics/38461'
p1472
I3299
sS'comp.graphics/38460'
p1473
I3298
sS'comp.graphics/38463'
p1474
I3301
sS'comp.graphics/38462'
p1475
I3300
sS'talk.politics.misc/178720'
p1476
I4605
sS'comp.graphics/38682'
p1477
I3520
sS'comp.graphics/38469'
p1478
I3307
sS'comp.graphics/38468'
p1479
I3306
sS'talk.politics.misc/178721'
p1480
I4606
sS'talk.politics.misc/179073'
p1481
I4956
sS'talk.politics.misc/179072'
p1482
I4955
sS'talk.politics.misc/179071'
p1483
I4954
sS'talk.politics.misc/179070'
p1484
I4953
sS'sci.space/62449'
p1485
I1980
sS'sci.space/62448'
p1486
I1979
sS'talk.politics.misc/178703'
p1487
I4588
sS'talk.politics.misc/179074'
p1488
I4957
sS'talk.politics.misc/179079'
p1489
I4962
sS'talk.politics.misc/178723'
p1490
I4608
sS'sci.med/58086'
p1491
I2044
sS'sci.med/58087'
p1492
I2045
sS'sci.med/58084'
p1493
I2042
sS'sci.med/58085'
p1494
I2043
sS'sci.med/58082'
p1495
I2040
sS'sci.med/58083'
p1496
I2041
sS'sci.med/58080'
p1497
I2038
sS'sci.med/58081'
p1498
I2039
sS'sci.med/59221'
p1499
I2581
sS'rec.sport.hockey/53619'
p1500
I219
sS'sci.med/59223'
p1501
I2583
sS'sci.med/59222'
p1502
I2582
sS'sci.med/59225'
p1503
I2585
sS'sci.med/59224'
p1504
I2584
sS'sci.med/58088'
p1505
I2046
sS'rec.sport.hockey/52631'
p1506
I81
sS'comp.graphics/38861'
p1507
I3699
sS'comp.graphics/38860'
p1508
I3698
sS'comp.graphics/38863'
p1509
I3701
sS'comp.graphics/38862'
p1510
I3700
sS'comp.graphics/38865'
p1511
I3703
sS'comp.graphics/38864'
p1512
I3702
sS'comp.graphics/38867'
p1513
I3705
sS'comp.graphics/38866'
p1514
I3704
sS'comp.graphics/38869'
p1515
I3707
sS'comp.graphics/38868'
p1516
I3706
sS'talk.politics.misc/179093'
p1517
I4976
sS'comp.graphics/37261'
p1518
I3000
sS'talk.politics.misc/179095'
p1519
I4978
sS'talk.politics.misc/179094'
p1520
I4977
sS'talk.politics.misc/179097'
p1521
I4980
sS'talk.politics.misc/179096'
p1522
I4979
sS'rec.sport.hockey/53871'
p1523
I471
sS'rec.sport.hockey/53870'
p1524
I470
sS'rec.sport.hockey/53873'
p1525
I473
sS'rec.sport.hockey/54055'
p1526
I655
sS'rec.sport.hockey/53875'
p1527
I475
sS'rec.sport.hockey/53874'
p1528
I474
sS'rec.sport.hockey/53877'
p1529
I477
sS'rec.sport.hockey/53876'
p1530
I476
sS'rec.sport.hockey/53879'
p1531
I479
sS'rec.sport.hockey/53878'
p1532
I478
sS'sci.med/58134'
p1533
I2092
sS'comp.graphics/39499'
p1534
I3930
sS'sci.med/59196'
p1535
I2556
sS'comp.graphics/38847'
p1536
I3685
sS'sci.med/58798'
p1537
I2160
sS'sci.med/58799'
p1538
I2161
sS'talk.politics.misc/178418'
p1539
I4304
sS'talk.politics.misc/178419'
p1540
I4305
sS'sci.med/58792'
p1541
I2154
sS'sci.med/58793'
p1542
I2155
sS'sci.med/58790'
p1543
I2152
sS'sci.med/58791'
p1544
I2153
sS'sci.med/58796'
p1545
I2158
sS'sci.med/58797'
p1546
I2159
sS'sci.med/58794'
p1547
I2156
sS'sci.med/58795'
p1548
I2157
sS'sci.med/58135'
p1549
I2093
sS'sci.med/59135'
p1550
I2496
sS'sci.med/59134'
p1551
I2495
sS'sci.med/59137'
p1552
I2498
sS'sci.med/59136'
p1553
I2497
sS'sci.med/59131'
p1554
I2492
sS'sci.med/59130'
p1555
I2491
sS'sci.med/59133'
p1556
I2494
sS'sci.med/59132'
p1557
I2493
sS'comp.graphics/38909'
p1558
I3747
sS'sci.med/59139'
p1559
I2500
sS'sci.med/59138'
p1560
I2499
sS'talk.politics.misc/178325'
p1561
I4211
sS'sci.space/61008'
p1562
I1357
sS'sci.space/61009'
p1563
I1358
sS'talk.politics.misc/178300'
p1564
I4186
sS'talk.politics.misc/178301'
p1565
I4187
sS'talk.politics.misc/178306'
p1566
I4192
sS'talk.politics.misc/178307'
p1567
I4193
sS'talk.politics.misc/178304'
p1568
I4190
sS'talk.politics.misc/178305'
p1569
I4191
sS'sci.space/61000'
p1570
I1349
sS'sci.space/61001'
p1571
I1350
sS'sci.space/61002'
p1572
I1351
sS'sci.space/61003'
p1573
I1352
sS'sci.space/61004'
p1574
I1353
sS'sci.space/61005'
p1575
I1354
sS'sci.space/61006'
p1576
I1355
sS'sci.space/61007'
p1577
I1356
sS'sci.space/61506'
p1578
I1855
sS'sci.space/61220'
p1579
I1569
sS'sci.space/61221'
p1580
I1570
sS'sci.space/61222'
p1581
I1571
sS'sci.space/61223'
p1582
I1572
sS'sci.space/61224'
p1583
I1573
sS'sci.space/61225'
p1584
I1574
sS'sci.space/61226'
p1585
I1575
sS'sci.space/61227'
p1586
I1576
sS'sci.space/61228'
p1587
I1577
sS'sci.space/61229'
p1588
I1578
sS'sci.med/59351'
p1589
I2711
sS'sci.med/59350'
p1590
I2710
sS'sci.med/59353'
p1591
I2713
sS'sci.space/61501'
p1592
I1850
sS'sci.med/59355'
p1593
I2715
sS'sci.med/59354'
p1594
I2714
sS'sci.med/59357'
p1595
I2717
sS'sci.med/59356'
p1596
I2716
sS'sci.med/59359'
p1597
I2719
sS'sci.med/59358'
p1598
I2718
sS'talk.politics.misc/178671'
p1599
I4556
sS'sci.med/58988'
p1600
I2350
sS'sci.space/61134'
p1601
I1483
sS'sci.space/61135'
p1602
I1484
sS'sci.space/61136'
p1603
I1485
sS'sci.space/61137'
p1604
I1486
sS'sci.space/61130'
p1605
I1479
sS'sci.space/61131'
p1606
I1480
sS'sci.space/61132'
p1607
I1481
sS'sci.space/61133'
p1608
I1482
sS'sci.space/61138'
p1609
I1487
sS'sci.space/61139'
p1610
I1488
sS'talk.politics.misc/178293'
p1611
I4179
sS'sci.space/61358'
p1612
I1707
sS'sci.space/61359'
p1613
I1708
sS'comp.graphics/38846'
p1614
I3684
sS'sci.space/61354'
p1615
I1703
sS'sci.space/61355'
p1616
I1704
sS'sci.space/61356'
p1617
I1705
sS'sci.space/61357'
p1618
I1706
sS'sci.space/61350'
p1619
I1699
sS'sci.space/61351'
p1620
I1700
sS'sci.space/61352'
p1621
I1701
sS'sci.space/61353'
p1622
I1702
sS'talk.politics.misc/178613'
p1623
I4498
sS'talk.politics.misc/176938'
p1624
I4092
sS'sci.space/60195'
p1625
I1062
sS'sci.space/60194'
p1626
I1061
sS'sci.space/60197'
p1627
I1064
sS'sci.space/60196'
p1628
I1063
sS'sci.space/60191'
p1629
I1058
sS'sci.space/60190'
p1630
I1057
sS'sci.space/60193'
p1631
I1060
sS'sci.space/60192'
p1632
I1059
sS'sci.space/60199'
p1633
I1066
sS'sci.space/60198'
p1634
I1065
sS'talk.politics.misc/178618'
p1635
I4503
sS'talk.politics.misc/178619'
p1636
I4504
sS'sci.med/59544'
p1637
I2904
sS'talk.politics.misc/178767'
p1638
I4651
sS'comp.graphics/38319'
p1639
I3158
sS'sci.space/60179'
p1640
I1046
sS'sci.space/60178'
p1641
I1045
sS'sci.space/60177'
p1642
I1044
sS'sci.space/60176'
p1643
I1043
sS'sci.space/60175'
p1644
I1042
sS'sci.space/60174'
p1645
I1041
sS'sci.space/60173'
p1646
I1040
sS'sci.space/60172'
p1647
I1039
sS'sci.space/60171'
p1648
I1038
sS'sci.space/60170'
p1649
I1037
sS'sci.space/60999'
p1650
I1348
sS'sci.space/60998'
p1651
I1347
sS'sci.space/60995'
p1652
I1344
sS'sci.space/60994'
p1653
I1343
sS'sci.space/60997'
p1654
I1346
sS'sci.space/60996'
p1655
I1345
sS'sci.space/60991'
p1656
I1340
sS'sci.space/60990'
p1657
I1339
sS'sci.space/60993'
p1658
I1342
sS'sci.space/60992'
p1659
I1341
sS'talk.politics.misc/178528'
p1660
I4414
sS'talk.politics.misc/179085'
p1661
I4968
sS'rec.sport.hockey/53940'
p1662
I540
sS'talk.politics.misc/178704'
p1663
I4589
sS'rec.sport.hockey/54089'
p1664
I689
sS'rec.sport.hockey/54088'
p1665
I688
sS'comp.graphics/38728'
p1666
I3566
sS'comp.graphics/38729'
p1667
I3567
sS'rec.sport.hockey/54081'
p1668
I681
sS'rec.sport.hockey/54080'
p1669
I680
sS'rec.sport.hockey/54083'
p1670
I683
sS'rec.sport.hockey/54082'
p1671
I682
sS'rec.sport.hockey/54085'
p1672
I685
sS'rec.sport.hockey/54084'
p1673
I684
sS'rec.sport.hockey/54087'
p1674
I687
sS'rec.sport.hockey/54086'
p1675
I686
sS'rec.sport.hockey/54557'
p1676
I916
sS'rec.sport.hockey/54556'
p1677
I915
sS'rec.sport.hockey/54555'
p1678
I914
sS'rec.sport.hockey/54554'
p1679
I913
sS'rec.sport.hockey/54553'
p1680
I912
sS'rec.sport.hockey/54552'
p1681
I911
sS'rec.sport.hockey/54551'
p1682
I910
sS'rec.sport.hockey/54550'
p1683
I909
sS'sci.med/59384'
p1684
I2744
sS'talk.politics.misc/178705'
p1685
I4590
sS'comp.graphics/38455'
p1686
I3293
sS'talk.politics.misc/178814'
p1687
I4698
sS'rec.sport.hockey/54751'
p1688
I966
sS'rec.sport.hockey/54159'
p1689
I741
sS'rec.sport.hockey/54158'
p1690
I740
sS'rec.sport.hockey/54750'
p1691
I965
sS'rec.sport.hockey/54753'
p1692
I968
sS'rec.sport.hockey/54752'
p1693
I967
sS'sci.space/60779'
p1694
I1129
sS'sci.space/60778'
p1695
I1128
sS'comp.graphics/38356'
p1696
I3195
sS'sci.space/60775'
p1697
I1126
sS'rec.sport.hockey/54755'
p1698
I970
sS'sci.space/60777'
p1699
I1127
sS'talk.politics.misc/178702'
p1700
I4587
sS'sci.space/60771'
p1701
I1122
sS'sci.space/60770'
p1702
I1121
sS'sci.space/60773'
p1703
I1124
sS'sci.space/60772'
p1704
I1123
sS'comp.graphics/38612'
p1705
I3450
sS'sci.space/61440'
p1706
I1789
sS'comp.graphics/38610'
p1707
I3448
sS'comp.graphics/38611'
p1708
I3449
sS'comp.graphics/38616'
p1709
I3454
sS'rec.sport.hockey/54757'
p1710
I972
sS'comp.graphics/38614'
p1711
I3452
sS'sci.space/61441'
p1712
I1790
sS'comp.graphics/38618'
p1713
I3456
sS'rec.sport.hockey/54204'
p1714
I778
sS'sci.space/61442'
p1715
I1791
sS'comp.graphics/39738'
p1716
I3996
sS'talk.politics.misc/177024'
p1717
I4178
sS'sci.space/61443'
p1718
I1792
sS'talk.politics.misc/177022'
p1719
I4176
sS'talk.politics.misc/177023'
p1720
I4177
sS'sci.med/59166'
p1721
I2527
sS'talk.politics.misc/177021'
p1722
I4175
sS'sci.space/61444'
p1723
I1793
sS'talk.politics.misc/176911'
p1724
I4065
sS'comp.graphics/38350'
p1725
I3189
sS'sci.space/61445'
p1726
I1794
sS'sci.space/61446'
p1727
I1795
sS'sci.space/61447'
p1728
I1796
sS'sci.med/59167'
p1729
I2528
sS'talk.politics.misc/178529'
p1730
I4415
sS'sci.space/62708'
p1731
I1998
sS'sci.space/62709'
p1732
I1999
sS'talk.politics.misc/178730'
p1733
I4614
sS'talk.politics.misc/179048'
p1734
I4931
sS'talk.politics.misc/178897'
p1735
I4781
sS'comp.graphics/40008'
p1736
I3997
sS'sci.space/62389'
p1737
I1942
sS'talk.politics.misc/179046'
p1738
I4929
sS'rec.sport.hockey/52649'
p1739
I99
sS'rec.sport.hockey/52648'
p1740
I98
sS'talk.politics.misc/179047'
p1741
I4930
sS'rec.sport.hockey/52645'
p1742
I95
sS'rec.sport.hockey/52644'
p1743
I94
sS'rec.sport.hockey/52647'
p1744
I97
sS'rec.sport.hockey/52646'
p1745
I96
sS'rec.sport.hockey/52641'
p1746
I91
sS'rec.sport.hockey/52640'
p1747
I90
sS'rec.sport.hockey/52643'
p1748
I93
sS'rec.sport.hockey/52642'
p1749
I92
sS'rec.sport.hockey/53736'
p1750
I336
sS'rec.sport.hockey/53737'
p1751
I337
sS'rec.sport.hockey/53734'
p1752
I334
sS'rec.sport.hockey/53735'
p1753
I335
sS'rec.sport.hockey/53732'
p1754
I332
sS'rec.sport.hockey/53733'
p1755
I333
sS'rec.sport.hockey/53730'
p1756
I330
sS'rec.sport.hockey/53731'
p1757
I331
sS'comp.graphics/39057'
p1758
I3894
sS'comp.graphics/39056'
p1759
I3893
sS'comp.graphics/39055'
p1760
I3892
sS'comp.graphics/39054'
p1761
I3891
sS'comp.graphics/39053'
p1762
I3890
sS'comp.graphics/39052'
p1763
I3889
sS'rec.sport.hockey/53738'
p1764
I338
sS'rec.sport.hockey/53739'
p1765
I339
sS'comp.graphics/38506'
p1766
I3344
sS'comp.graphics/38507'
p1767
I3345
sS'comp.graphics/38504'
p1768
I3342
sS'comp.graphics/38505'
p1769
I3343
sS'comp.graphics/38502'
p1770
I3340
sS'comp.graphics/38503'
p1771
I3341
sS'comp.graphics/38500'
p1772
I3338
sS'comp.graphics/38501'
p1773
I3339
sS'talk.politics.misc/178736'
p1774
I4620
sS'sci.space/61500'
p1775
I1849
sS'comp.graphics/38508'
p1776
I3346
sS'comp.graphics/38509'
p1777
I3347
sS'sci.med/59157'
p1778
I2518
sS'talk.politics.misc/179013'
p1779
I4896
sS'sci.med/59156'
p1780
I2517
sS'comp.graphics/39650'
p1781
I3966
sS'sci.med/59155'
p1782
I2516
sS'talk.politics.misc/178876'
p1783
I4760
sS'sci.med/59154'
p1784
I2515
sS'talk.politics.misc/176959'
p1785
I4113
sS'talk.politics.misc/176958'
p1786
I4112
sS'talk.politics.misc/176955'
p1787
I4109
sS'sci.med/59153'
p1788
I2514
sS'talk.politics.misc/176957'
p1789
I4111
sS'talk.politics.misc/176956'
p1790
I4110
sS'comp.graphics/38914'
p1791
I3752
sS'talk.politics.misc/176950'
p1792
I4104
sS'talk.politics.misc/176953'
p1793
I4107
sS'sci.med/59152'
p1794
I2513
sS'comp.graphics/38478'
p1795
I3316
sS'comp.graphics/38479'
p1796
I3317
sS'sci.med/59151'
p1797
I2512
sS'comp.graphics/38472'
p1798
I3310
sS'comp.graphics/38473'
p1799
I3311
sS'comp.graphics/38470'
p1800
I3308
sS'sci.med/59150'
p1801
I2511
sS'comp.graphics/38476'
p1802
I3314
sS'sci.med/59521'
p1803
I2881
sS'comp.graphics/38474'
p1804
I3312
sS'comp.graphics/38475'
p1805
I3313
sS'talk.politics.misc/179064'
p1806
I4947
sS'comp.graphics/38854'
p1807
I3692
sS'talk.politics.misc/179066'
p1808
I4949
sS'talk.politics.misc/178826'
p1809
I4710
sS'talk.politics.misc/179060'
p1810
I4943
sS'talk.politics.misc/179061'
p1811
I4944
sS'talk.politics.misc/179062'
p1812
I4945
sS'comp.graphics/38855'
p1813
I3693
sS'sci.space/62452'
p1814
I1983
sS'sci.space/62453'
p1815
I1984
sS'sci.space/62450'
p1816
I1981
sS'sci.space/62451'
p1817
I1982
sS'talk.politics.misc/179068'
p1818
I4951
sS'comp.graphics/38856'
p1819
I3694
sS'sci.space/62454'
p1820
I1985
sS'sci.space/62455'
p1821
I1986
sS'rec.sport.hockey/53998'
p1822
I598
sS'rec.sport.hockey/53999'
p1823
I599
sS'rec.sport.hockey/53992'
p1824
I592
sS'rec.sport.hockey/53993'
p1825
I593
sS'rec.sport.hockey/53990'
p1826
I590
sS'rec.sport.hockey/53991'
p1827
I591
sS'rec.sport.hockey/53996'
p1828
I596
sS'rec.sport.hockey/53997'
p1829
I597
sS'rec.sport.hockey/53994'
p1830
I594
sS'rec.sport.hockey/53995'
p1831
I595
sS'comp.graphics/38876'
p1832
I3714
sS'comp.graphics/38877'
p1833
I3715
sS'comp.graphics/38874'
p1834
I3712
sS'comp.graphics/38875'
p1835
I3713
sS'comp.graphics/38872'
p1836
I3710
sS'comp.graphics/38852'
p1837
I3690
sS'comp.graphics/38870'
p1838
I3708
sS'comp.graphics/38871'
p1839
I3709
sS'talk.politics.misc/179082'
p1840
I4965
sS'talk.politics.misc/178664'
p1841
I4549
sS'talk.politics.misc/179080'
p1842
I4963
sS'comp.graphics/38853'
p1843
I3691
sS'talk.politics.misc/176951'
p1844
I4105
sS'talk.politics.misc/179087'
p1845
I4970
sS'comp.graphics/38878'
p1846
I3716
sS'comp.graphics/38879'
p1847
I3717
sS'comp.graphics/38982'
p1848
I3819
sS'comp.graphics/38983'
p1849
I3820
sS'comp.graphics/38980'
p1850
I3817
sS'comp.graphics/38981'
p1851
I3818
sS'rec.sport.hockey/53848'
p1852
I448
sS'rec.sport.hockey/53849'
p1853
I449
sS'comp.graphics/38984'
p1854
I3821
sS'comp.graphics/38985'
p1855
I3822
sS'rec.sport.hockey/53844'
p1856
I444
sS'rec.sport.hockey/53845'
p1857
I445
sS'rec.sport.hockey/53846'
p1858
I446
sS'rec.sport.hockey/53847'
p1859
I447
sS'rec.sport.hockey/53840'
p1860
I440
sS'rec.sport.hockey/53841'
p1861
I441
sS'rec.sport.hockey/53842'
p1862
I442
sS'rec.sport.hockey/53843'
p1863
I443
sS'talk.politics.misc/178423'
p1864
I4309
sS'talk.politics.misc/178422'
p1865
I4308
sS'sci.med/59233'
p1866
I2593
sS'talk.politics.misc/178420'
p1867
I4306
sS'talk.politics.misc/178427'
p1868
I4313
sS'talk.politics.misc/178426'
p1869
I4312
sS'talk.politics.misc/178425'
p1870
I4311
sS'talk.politics.misc/178424'
p1871
I4310
sS'talk.politics.misc/178939'
p1872
I4823
sS'talk.politics.misc/178938'
p1873
I4822
sS'talk.politics.misc/178429'
p1874
I4315
sS'talk.politics.misc/178428'
p1875
I4314
sS'comp.graphics/38925'
p1876
I3763
sS'comp.graphics/39058'
p1877
I3895
sS'talk.politics.misc/178490'
p1878
I4376
sS'comp.graphics/38843'
p1879
I3681
sS'talk.politics.misc/178491'
p1880
I4377
sS'sci.med/59126'
p1881
I2487
sS'sci.med/59127'
p1882
I2488
sS'sci.med/59124'
p1883
I2485
sS'sci.space/61503'
p1884
I1852
sS'sci.med/59122'
p1885
I2483
sS'sci.med/59123'
p1886
I2484
sS'sci.med/59120'
p1887
I2481
sS'sci.med/59121'
p1888
I2482
sS'sci.med/59128'
p1889
I2489
sS'sci.med/59129'
p1890
I2490
sS'sci.space/61035'
p1891
I1384
sS'sci.space/61034'
p1892
I1383
sS'sci.space/61037'
p1893
I1386
sS'sci.space/61036'
p1894
I1385
sS'sci.space/61031'
p1895
I1380
sS'sci.space/61030'
p1896
I1379
sS'sci.space/61033'
p1897
I1382
sS'sci.space/61032'
p1898
I1381
sS'talk.politics.misc/178805'
p1899
I4689
sS'sci.space/61039'
p1900
I1388
sS'sci.space/61038'
p1901
I1387
sS'talk.politics.misc/178339'
p1902
I4225
sS'talk.politics.misc/178338'
p1903
I4224
sS'talk.politics.misc/178687'
p1904
I4572
sS'talk.politics.misc/178686'
p1905
I4571
sS'talk.politics.misc/178685'
p1906
I4570
sS'talk.politics.misc/178661'
p1907
I4546
sS'talk.politics.misc/178683'
p1908
I4568
sS'talk.politics.misc/178682'
p1909
I4567
sS'talk.politics.misc/178681'
p1910
I4566
sS'comp.graphics/39641'
p1911
I3957
sS'comp.graphics/38742'
p1912
I3580
sS'talk.politics.misc/178689'
p1913
I4574
sS'talk.politics.misc/178688'
p1914
I4573
sS'comp.graphics/39045'
p1915
I3882
sS'sci.med/59236'
p1916
I2596
sS'sci.med/59342'
p1917
I2702
sS'sci.med/59343'
p1918
I2703
sS'sci.med/59340'
p1919
I2700
sS'sci.med/59341'
p1920
I2701
sS'sci.med/59346'
p1921
I2706
sS'sci.med/59347'
p1922
I2707
sS'sci.med/59344'
p1923
I2704
sS'sci.med/59345'
p1924
I2705
sS'sci.med/59348'
p1925
I2708
sS'sci.med/59349'
p1926
I2709
sS'comp.graphics/39046'
p1927
I3883
sS'talk.politics.misc/178759'
p1928
I4643
sS'talk.politics.misc/178758'
p1929
I4642
sS'talk.politics.misc/178751'
p1930
I4635
sS'talk.politics.misc/178750'
p1931
I4634
sS'talk.politics.misc/178753'
p1932
I4637
sS'talk.politics.misc/178565'
p1933
I4451
sS'talk.politics.misc/178755'
p1934
I4639
sS'talk.politics.misc/178754'
p1935
I4638
sS'talk.politics.misc/178757'
p1936
I4641
sS'talk.politics.misc/178663'
p1937
I4548
sS'sci.space/61101'
p1938
I1450
sS'sci.space/61100'
p1939
I1449
sS'sci.space/61103'
p1940
I1452
sS'sci.space/61102'
p1941
I1451
sS'sci.space/61105'
p1942
I1454
sS'sci.space/61104'
p1943
I1453
sS'sci.space/61107'
p1944
I1456
sS'sci.space/61106'
p1945
I1455
sS'sci.space/61109'
p1946
I1458
sS'sci.space/61108'
p1947
I1457
sS'comp.graphics/38787'
p1948
I3625
sS'sci.space/61369'
p1949
I1718
sS'sci.space/61368'
p1950
I1717
sS'sci.space/61361'
p1951
I1710
sS'sci.space/61360'
p1952
I1709
sS'sci.space/61363'
p1953
I1712
sS'sci.space/61362'
p1954
I1711
sS'sci.space/61365'
p1955
I1714
sS'sci.space/61364'
p1956
I1713
sS'sci.space/61367'
p1957
I1716
sS'sci.space/61366'
p1958
I1715
sS'comp.graphics/38745'
p1959
I3583
sS'talk.politics.misc/178891'
p1960
I4775
sS'comp.graphics/39040'
p1961
I3877
sS'sci.med/59383'
p1962
I2743
sS'sci.space/60182'
p1963
I1049
sS'sci.space/60183'
p1964
I1050
sS'sci.space/60180'
p1965
I1047
sS'sci.space/60181'
p1966
I1048
sS'sci.space/60186'
p1967
I1053
sS'sci.space/60187'
p1968
I1054
sS'sci.space/60184'
p1969
I1051
sS'sci.space/60185'
p1970
I1052
sS'sci.space/61502'
p1971
I1851
sS'sci.space/60188'
p1972
I1055
sS'sci.space/60189'
p1973
I1056
sS'talk.politics.misc/178810'
p1974
I4694
sS'talk.politics.misc/178797'
p1975
I4681
sS'talk.politics.misc/178811'
p1976
I4695
sS'sci.space/61219'
p1977
I1568
sS'sci.space/61218'
p1978
I1567
sS'sci.space/61215'
p1979
I1564
sS'sci.space/61214'
p1980
I1563
sS'sci.space/61217'
p1981
I1566
sS'sci.space/61216'
p1982
I1565
sS'sci.space/61211'
p1983
I1560
sS'sci.space/61210'
p1984
I1559
sS'sci.space/61213'
p1985
I1562
sS'sci.space/61212'
p1986
I1561
sS'sci.space/60168'
p1987
I1035
sS'sci.space/60169'
p1988
I1036
sS'sci.space/60164'
p1989
I1031
sS'sci.space/60165'
p1990
I1032
sS'sci.space/60166'
p1991
I1033
sS'sci.space/60167'
p1992
I1034
sS'sci.space/60160'
p1993
I1027
sS'sci.space/60161'
p1994
I1028
sS'sci.space/60162'
p1995
I1029
sS'sci.space/60163'
p1996
I1030
sS'talk.politics.misc/178405'
p1997
I4291
sS'sci.space/60988'
p1998
I1337
sS'sci.space/60989'
p1999
I1338
sS'talk.politics.misc/179113'
p2000
I4996
sS'talk.politics.misc/178404'
p2001
I4290
sS'sci.space/60982'
p2002
I1331
sS'sci.space/60983'
p2003
I1332
sS'sci.space/60980'
p2004
I1329
sS'sci.space/60981'
p2005
I1330
sS'sci.space/60986'
p2006
I1335
sS'sci.space/60987'
p2007
I1336
sS'sci.space/60984'
p2008
I1333
sS'sci.space/60985'
p2009
I1334
sS'talk.politics.misc/178406'
p2010
I4292
sS'comp.graphics/38799'
p2011
I3637
sS'talk.politics.misc/178401'
p2012
I4287
sS'comp.graphics/38798'
p2013
I3636
sS'talk.politics.misc/178400'
p2014
I4286
sS'comp.graphics/38245'
p2015
I3084
sS'comp.graphics/38733'
p2016
I3571
sS'comp.graphics/38731'
p2017
I3569
sS'comp.graphics/38244'
p2018
I3083
sS'talk.politics.misc/178402'
p2019
I4288
sS'comp.graphics/38247'
p2020
I3086
sS'sci.med/58118'
p2021
I2076
sS'comp.graphics/38246'
p2022
I3085
sS'comp.graphics/38241'
p2023
I3080
sS'sci.med/59171'
p2024
I2532
sS'comp.graphics/38240'
p2025
I3079
sS'rec.sport.hockey/54522'
p2026
I881
sS'rec.sport.hockey/54523'
p2027
I882
sS'rec.sport.hockey/54520'
p2028
I879
sS'rec.sport.hockey/54521'
p2029
I880
sS'rec.sport.hockey/54526'
p2030
I885
sS'rec.sport.hockey/54527'
p2031
I886
sS'rec.sport.hockey/54524'
p2032
I883
sS'rec.sport.hockey/54525'
p2033
I884
sS'rec.sport.hockey/54528'
p2034
I887
sS'rec.sport.hockey/54529'
p2035
I888
sS'comp.graphics/38431'
p2036
I3269
sS'talk.politics.misc/179069'
p2037
I4952
sS'comp.graphics/39066'
p2038
I3903
sS'talk.politics.misc/178669'
p2039
I4554
sS'sci.med/59170'
p2040
I2531
sS'comp.graphics/39062'
p2041
I3899
sS'rec.sport.hockey/54180'
p2042
I760
sS'rec.sport.hockey/54181'
p2043
I761
sS'rec.sport.hockey/54182'
p2044
I762
sS'rec.sport.hockey/54183'
p2045
I763
sS'rec.sport.hockey/54184'
p2046
I764
sS'rec.sport.hockey/54185'
p2047
I765
sS'comp.graphics/38661'
p2048
I3499
sS'comp.graphics/38660'
p2049
I3498
sS'talk.politics.misc/179023'
p2050
I4906
sS'talk.politics.misc/178716'
p2051
I4601
sS'comp.graphics/38669'
p2052
I3507
sS'comp.graphics/38668'
p2053
I3506
sS'talk.politics.misc/178795'
p2054
I4679
sS'talk.politics.misc/178662'
p2055
I4547
sS'comp.graphics/38903'
p2056
I3741
sS'sci.med/59531'
p2057
I2891
sS'comp.graphics/39647'
p2058
I3963
sS'sci.med/59172'
p2059
I2533
sS'sci.med/59530'
p2060
I2890
sS'talk.politics.misc/178711'
p2061
I4596
sS'sci.med/59533'
p2062
I2893
sS'sci.med/59532'
p2063
I2892
sS'comp.graphics/38621'
p2064
I3459
sS'sci.med/59535'
p2065
I2895
sS'sci.med/58839'
p2066
I2201
sS'sci.med/59534'
p2067
I2894
sS'sci.space/62117'
p2068
I1924
sS'sci.space/62116'
p2069
I1923
sS'sci.space/62115'
p2070
I1922
sS'sci.space/62114'
p2071
I1921
sS'sci.space/62113'
p2072
I1920
sS'sci.med/59537'
p2073
I2897
sS'sci.med/58106'
p2074
I2064
sS'comp.graphics/39615'
p2075
I3932
sS'sci.med/59536'
p2076
I2896
sS'sci.med/58105'
p2077
I2063
sS'sci.space/62118'
p2078
I1925
sS'talk.politics.misc/178382'
p2079
I4268
sS'sci.space/62415'
p2080
I1968
sS'comp.graphics/38440'
p2081
I3278
sS'talk.politics.misc/178383'
p2082
I4269
sS'sci.med/58103'
p2083
I2061
sS'talk.politics.misc/178380'
p2084
I4266
sS'sci.med/58102'
p2085
I2060
sS'rec.sport.hockey/53725'
p2086
I325
sS'rec.sport.hockey/53724'
p2087
I324
sS'rec.sport.hockey/53727'
p2088
I327
sS'rec.sport.hockey/53726'
p2089
I326
sS'rec.sport.hockey/53721'
p2090
I321
sS'rec.sport.hockey/53720'
p2091
I320
sS'rec.sport.hockey/53723'
p2092
I323
sS'rec.sport.hockey/53722'
p2093
I322
sS'comp.graphics/38263'
p2094
I3102
sS'comp.graphics/38262'
p2095
I3101
sS'comp.graphics/38261'
p2096
I3100
sS'sci.med/58100'
p2097
I2058
sS'rec.sport.hockey/53729'
p2098
I329
sS'rec.sport.hockey/53728'
p2099
I328
sS'comp.graphics/38265'
p2100
I3104
sS'comp.graphics/38264'
p2101
I3103
sS'talk.politics.misc/179004'
p2102
I4888
sS'talk.politics.misc/178706'
p2103
I4591
sS'comp.graphics/39617'
p2104
I3933
sS'talk.politics.misc/178707'
p2105
I4592
sS'sci.med/59381'
p2106
I2741
sS'talk.politics.misc/176888'
p2107
I4042
sS'comp.graphics/38840'
p2108
I3678
sS'talk.politics.misc/178313'
p2109
I4199
sS'rec.sport.hockey/54720'
p2110
I935
sS'talk.politics.misc/178312'
p2111
I4198
sS'sci.med/58109'
p2112
I2067
sS'talk.politics.misc/176948'
p2113
I4102
sS'talk.politics.misc/176949'
p2114
I4103
sS'talk.politics.misc/176946'
p2115
I4100
sS'comp.graphics/38758'
p2116
I3596
sS'talk.politics.misc/176944'
p2117
I4098
sS'sci.med/58108'
p2118
I2066
sS'talk.politics.misc/176942'
p2119
I4096
sS'comp.graphics/38260'
p2120
I3099
sS'sci.med/59176'
p2121
I2537
sS'talk.politics.misc/176941'
p2122
I4095
sS'talk.politics.misc/179024'
p2123
I4907
sS'talk.politics.misc/178700'
p2124
I4585
sS'comp.graphics/38409'
p2125
I3248
sS'comp.graphics/38408'
p2126
I3247
sS'comp.graphics/38407'
p2127
I3246
sS'comp.graphics/38406'
p2128
I3245
sS'comp.graphics/38405'
p2129
I3244
sS'comp.graphics/38404'
p2130
I3243
sS'rec.sport.hockey/54721'
p2131
I936
sS'comp.graphics/38402'
p2132
I3241
sS'comp.graphics/38401'
p2133
I3240
sS'comp.graphics/38400'
p2134
I3239
sS'talk.politics.misc/178319'
p2135
I4205
sS'talk.politics.misc/178933'
p2136
I4817
sS'talk.politics.misc/178328'
p2137
I4214
sS'talk.politics.misc/178318'
p2138
I4204
sS'rec.sport.hockey/53989'
p2139
I589
sS'rec.sport.hockey/53988'
p2140
I588
sS'sci.med/59205'
p2141
I2565
sS'sci.med/59204'
p2142
I2564
sS'sci.med/59203'
p2143
I2563
sS'sci.med/59202'
p2144
I2562
sS'sci.med/59201'
p2145
I2561
sS'sci.med/59200'
p2146
I2560
sS'rec.sport.hockey/53981'
p2147
I581
sS'rec.sport.hockey/53980'
p2148
I580
sS'rec.sport.hockey/53983'
p2149
I583
sS'rec.sport.hockey/53982'
p2150
I582
sS'rec.sport.hockey/53985'
p2151
I585
sS'rec.sport.hockey/53984'
p2152
I584
sS'rec.sport.hockey/53987'
p2153
I587
sS'rec.sport.hockey/53986'
p2154
I586
sS'comp.graphics/38889'
p2155
I3727
sS'comp.graphics/38888'
p2156
I3726
sS'comp.graphics/38883'
p2157
I3721
sS'comp.graphics/38882'
p2158
I3720
sS'comp.graphics/38881'
p2159
I3719
sS'comp.graphics/38880'
p2160
I3718
sS'comp.graphics/38887'
p2161
I3725
sS'comp.graphics/38886'
p2162
I3724
sS'comp.graphics/38885'
p2163
I3723
sS'comp.graphics/38884'
p2164
I3722
sS'rec.sport.hockey/52582'
p2165
I32
sS'rec.sport.hockey/52583'
p2166
I33
sS'rec.sport.hockey/53859'
p2167
I459
sS'rec.sport.hockey/53858'
p2168
I458
sS'rec.sport.hockey/52586'
p2169
I36
sS'rec.sport.hockey/52587'
p2170
I37
sS'rec.sport.hockey/52584'
p2171
I34
sS'rec.sport.hockey/52585'
p2172
I35
sS'rec.sport.hockey/53853'
p2173
I453
sS'rec.sport.hockey/53852'
p2174
I452
sS'rec.sport.hockey/53851'
p2175
I451
sS'rec.sport.hockey/53850'
p2176
I450
sS'rec.sport.hockey/53857'
p2177
I457
sS'rec.sport.hockey/53856'
p2178
I456
sS'rec.sport.hockey/53855'
p2179
I455
sS'rec.sport.hockey/53854'
p2180
I454
sS'talk.politics.misc/178434'
p2181
I4320
sS'talk.politics.misc/178435'
p2182
I4321
sS'talk.politics.misc/178436'
p2183
I4322
sS'talk.politics.misc/178437'
p2184
I4323
sS'talk.politics.misc/178430'
p2185
I4316
sS'comp.graphics/39629'
p2186
I3945
sS'sci.med/59565'
p2187
I2925
sS'talk.politics.misc/178433'
p2188
I4319
sS'talk.politics.misc/178928'
p2189
I4812
sS'talk.politics.misc/178929'
p2190
I4813
sS'talk.politics.misc/178438'
p2191
I4324
sS'talk.politics.misc/178439'
p2192
I4325
sS'talk.politics.misc/178698'
p2193
I4583
sS'talk.politics.misc/178699'
p2194
I4584
sS'talk.politics.misc/178690'
p2195
I4575
sS'talk.politics.misc/178691'
p2196
I4576
sS'talk.politics.misc/178692'
p2197
I4577
sS'talk.politics.misc/178693'
p2198
I4578
sS'talk.politics.misc/178694'
p2199
I4579
sS'comp.graphics/39011'
p2200
I3848
sS'talk.politics.misc/178696'
p2201
I4581
sS'comp.graphics/38835'
p2202
I3673
sS'sci.med/59113'
p2203
I2474
sS'sci.med/59112'
p2204
I2473
sS'sci.med/59111'
p2205
I2472
sS'sci.med/59110'
p2206
I2471
sS'sci.med/59117'
p2207
I2478
sS'sci.med/59116'
p2208
I2477
sS'sci.med/58758'
p2209
I2120
sS'sci.med/58759'
p2210
I2121
sS'sci.med/59119'
p2211
I2480
sS'sci.med/59118'
p2212
I2479
sS'comp.graphics/39016'
p2213
I3853
sS'sci.space/61022'
p2214
I1371
sS'sci.space/61023'
p2215
I1372
sS'sci.space/61020'
p2216
I1369
sS'sci.space/61021'
p2217
I1370
sS'sci.space/61026'
p2218
I1375
sS'sci.space/61027'
p2219
I1376
sS'sci.space/61024'
p2220
I1373
sS'sci.space/61025'
p2221
I1374
sS'sci.med/58104'
p2222
I2062
sS'sci.space/61028'
p2223
I1377
sS'sci.space/61029'
p2224
I1378
sS'sci.med/59597'
p2225
I2957
sS'sci.med/59596'
p2226
I2956
sS'sci.med/59595'
p2227
I2955
sS'sci.med/59594'
p2228
I2954
sS'sci.med/59593'
p2229
I2953
sS'sci.med/59592'
p2230
I2952
sS'sci.med/59591'
p2231
I2951
sS'sci.med/59590'
p2232
I2950
sS'talk.politics.misc/178320'
p2233
I4206
sS'talk.politics.misc/178321'
p2234
I4207
sS'talk.politics.misc/178322'
p2235
I4208
sS'comp.graphics/38795'
p2236
I3633
sS'talk.politics.misc/178324'
p2237
I4210
sS'comp.graphics/39019'
p2238
I3856
sS'sci.med/59599'
p2239
I2959
sS'sci.med/59598'
p2240
I2958
sS'comp.graphics/38541'
p2241
I3379
sS'sci.med/59379'
p2242
I2739
sS'sci.med/59378'
p2243
I2738
sS'sci.med/59377'
p2244
I2737
sS'sci.med/59376'
p2245
I2736
sS'sci.med/59375'
p2246
I2735
sS'sci.med/59374'
p2247
I2734
sS'sci.med/59373'
p2248
I2733
sS'sci.med/59372'
p2249
I2732
sS'sci.med/59371'
p2250
I2731
sS'sci.med/59370'
p2251
I2730
sS'sci.med/59579'
p2252
I2939
sS'sci.med/59578'
p2253
I2938
sS'sci.med/59575'
p2254
I2935
sS'sci.med/59574'
p2255
I2934
sS'sci.med/59577'
p2256
I2937
sS'sci.med/59576'
p2257
I2936
sS'sci.med/59571'
p2258
I2931
sS'sci.med/59570'
p2259
I2930
sS'sci.med/59573'
p2260
I2933
sS'sci.med/59572'
p2261
I2932
sS'comp.graphics/38421'
p2262
I3259
sS'talk.politics.misc/178748'
p2263
I4632
sS'talk.politics.misc/178749'
p2264
I4633
sS'sci.space/61118'
p2265
I1467
sS'sci.space/61119'
p2266
I1468
sS'sci.space/61116'
p2267
I1465
sS'sci.space/61117'
p2268
I1466
sS'sci.space/61114'
p2269
I1463
sS'sci.space/61115'
p2270
I1464
sS'sci.space/61112'
p2271
I1461
sS'sci.space/61113'
p2272
I1462
sS'sci.space/61110'
p2273
I1459
sS'sci.space/61111'
p2274
I1460
sS'comp.graphics/38422'
p2275
I3260
sS'comp.graphics/38732'
p2276
I3570
sS'talk.politics.misc/179003'
p2277
I4887
sS'sci.space/61376'
p2278
I1725
sS'sci.space/61377'
p2279
I1726
sS'sci.space/61374'
p2280
I1723
sS'sci.space/61375'
p2281
I1724
sS'sci.space/61372'
p2282
I1721
sS'sci.space/61373'
p2283
I1722
sS'sci.space/61370'
p2284
I1719
sS'sci.space/61371'
p2285
I1720
sS'comp.graphics/38750'
p2286
I3588
sS'sci.space/61378'
p2287
I1727
sS'sci.space/61379'
p2288
I1728
sS'comp.graphics/38420'
p2289
I3258
sS'talk.politics.misc/178787'
p2290
I4671
sS'sci.med/58909'
p2291
I2271
sS'talk.politics.misc/178296'
p2292
I4182
sS'talk.politics.misc/178906'
p2293
I4790
sS'sci.med/58908'
p2294
I2270
sS'sci.med/58907'
p2295
I2269
sS'sci.space/61208'
p2296
I1557
sS'sci.space/61209'
p2297
I1558
sS'sci.med/59227'
p2298
I2587
sS'sci.med/58906'
p2299
I2268
sS'sci.space/61202'
p2300
I1551
sS'sci.space/61203'
p2301
I1552
sS'sci.space/61200'
p2302
I1549
sS'sci.space/61201'
p2303
I1550
sS'sci.space/61206'
p2304
I1555
sS'sci.space/61207'
p2305
I1556
sS'sci.space/61204'
p2306
I1553
sS'sci.space/61205'
p2307
I1554
sS'sci.space/60159'
p2308
I1026
sS'sci.space/60158'
p2309
I1025
sS'talk.politics.misc/178862'
p2310
I4746
sS'sci.space/60151'
p2311
I1018
sS'sci.space/60153'
p2312
I1020
sS'sci.space/60152'
p2313
I1019
sS'sci.space/60155'
p2314
I1022
sS'sci.space/60154'
p2315
I1021
sS'sci.space/60157'
p2316
I1024
sS'sci.space/60156'
p2317
I1023
sS'sci.space/60977'
p2318
I1326
sS'sci.space/60976'
p2319
I1325
sS'sci.space/60975'
p2320
I1324
sS'sci.space/60974'
p2321
I1323
sS'sci.space/60973'
p2322
I1322
sS'sci.space/60972'
p2323
I1321
sS'sci.space/60971'
p2324
I1320
sS'sci.space/60970'
p2325
I1319
sS'talk.politics.misc/178867'
p2326
I4751
sS'sci.space/60979'
p2327
I1328
sS'sci.space/60978'
p2328
I1327
sS'talk.politics.misc/178921'
p2329
I4805
sS'talk.politics.misc/178865'
p2330
I4749
sS'sci.space/61279'
p2331
I1628
sS'talk.politics.misc/178864'
p2332
I4748
sS'sci.med/59444'
p2333
I2804
sS'sci.med/59442'
p2334
I2802
sS'comp.graphics/39051'
p2335
I3888
sS'comp.graphics/39657'
p2336
I3973
sS'talk.politics.misc/179000'
p2337
I4884
sS'rec.sport.hockey/54531'
p2338
I890
sS'rec.sport.hockey/54530'
p2339
I889
sS'rec.sport.hockey/54533'
p2340
I892
sS'rec.sport.hockey/54532'
p2341
I891
sS'rec.sport.hockey/54535'
p2342
I894
sS'rec.sport.hockey/54534'
p2343
I893
sS'rec.sport.hockey/54537'
p2344
I896
sS'rec.sport.hockey/54536'
p2345
I895
sS'rec.sport.hockey/54539'
p2346
I898
sS'rec.sport.hockey/54538'
p2347
I897
sS'talk.politics.misc/178842'
p2348
I4726
sS'talk.politics.misc/178760'
p2349
I4644
sS'sci.space/60883'
p2350
I1232
sS'sci.space/60882'
p2351
I1231
sS'sci.space/60881'
p2352
I1230
sS'sci.space/60880'
p2353
I1229
sS'sci.space/60887'
p2354
I1236
sS'sci.space/60886'
p2355
I1235
sS'sci.space/60885'
p2356
I1234
sS'sci.space/60884'
p2357
I1233
sS'sci.space/60889'
p2358
I1238
sS'sci.space/60888'
p2359
I1237
sS'sci.space/60797'
p2360
I1147
sS'sci.space/60796'
p2361
I1146
sS'sci.space/60795'
p2362
I1145
sS'sci.space/60794'
p2363
I1144
sS'sci.space/60793'
p2364
I1143
sS'sci.space/60792'
p2365
I1142
sS'sci.space/60791'
p2366
I1141
sS'sci.space/60790'
p2367
I1140
sS'rec.sport.hockey/53530'
p2368
I130
sS'rec.sport.hockey/53531'
p2369
I131
sS'rec.sport.hockey/53532'
p2370
I132
sS'rec.sport.hockey/53533'
p2371
I133
sS'rec.sport.hockey/53534'
p2372
I134
sS'rec.sport.hockey/53535'
p2373
I135
sS'sci.space/60799'
p2374
I1149
sS'sci.space/60798'
p2375
I1148
sS'comp.graphics/38674'
p2376
I3512
sS'comp.graphics/38667'
p2377
I3505
sS'comp.graphics/38676'
p2378
I3514
sS'comp.graphics/38677'
p2379
I3515
sS'comp.graphics/38670'
p2380
I3508
sS'comp.graphics/38671'
p2381
I3509
sS'rec.sport.hockey/54199'
p2382
I773
sS'rec.sport.hockey/54198'
p2383
I772
sS'rec.sport.hockey/54197'
p2384
I771
sS'rec.sport.hockey/54196'
p2385
I770
sS'rec.sport.hockey/54195'
p2386
I769
sS'rec.sport.hockey/54194'
p2387
I768
sS'rec.sport.hockey/54193'
p2388
I767
sS'rec.sport.hockey/54192'
p2389
I766
sS'talk.politics.misc/178637'
p2390
I4522
sS'comp.graphics/38664'
p2391
I3502
sS'sci.med/59105'
p2392
I2466
sS'comp.graphics/38663'
p2393
I3501
sS'comp.graphics/38662'
p2394
I3500
sS'talk.politics.misc/178791'
p2395
I4675
sS'talk.politics.misc/178874'
p2396
I4758
sS'comp.graphics/39018'
p2397
I3855
sS'comp.graphics/38586'
p2398
I3424
sS'sci.med/58969'
p2399
I2331
sS'sci.med/58968'
p2400
I2330
sS'comp.graphics/38587'
p2401
I3425
sS'sci.med/58965'
p2402
I2327
sS'sci.med/58964'
p2403
I2326
sS'sci.med/58967'
p2404
I2329
sS'sci.med/58966'
p2405
I2328
sS'sci.med/58961'
p2406
I2323
sS'sci.med/58960'
p2407
I2322
sS'sci.med/58963'
p2408
I2325
sS'sci.med/58962'
p2409
I2324
sS'sci.space/62104'
p2410
I1919
sS'comp.graphics/38585'
p2411
I3423
sS'comp.graphics/38582'
p2412
I3420
sS'talk.politics.misc/178875'
p2413
I4759
sS'talk.politics.misc/179017'
p2414
I4900
sS'comp.graphics/38583'
p2415
I3421
sS'comp.graphics/38580'
p2416
I3418
sS'talk.politics.misc/179075'
p2417
I4958
sS'comp.graphics/38581'
p2418
I3419
sS'rec.sport.hockey/53710'
p2419
I310
sS'rec.sport.hockey/53711'
p2420
I311
sS'rec.sport.hockey/53712'
p2421
I312
sS'rec.sport.hockey/53713'
p2422
I313
sS'rec.sport.hockey/53714'
p2423
I314
sS'rec.sport.hockey/53715'
p2424
I315
sS'rec.sport.hockey/53716'
p2425
I316
sS'rec.sport.hockey/53717'
p2426
I317
sS'rec.sport.hockey/53718'
p2427
I318
sS'rec.sport.hockey/53719'
p2428
I319
sS'comp.graphics/38272'
p2429
I3111
sS'comp.graphics/38273'
p2430
I3112
sS'comp.graphics/38274'
p2431
I3113
sS'comp.graphics/38275'
p2432
I3114
sS'comp.graphics/38276'
p2433
I3115
sS'comp.graphics/38277'
p2434
I3116
sS'comp.graphics/39071'
p2435
I3908
sS'comp.graphics/39070'
p2436
I3907
sS'comp.graphics/39073'
p2437
I3910
sS'comp.graphics/39072'
p2438
I3909
sS'comp.graphics/39075'
p2439
I3912
sS'comp.graphics/39074'
p2440
I3911
sS'comp.graphics/39077'
p2441
I3914
sS'comp.graphics/39076'
p2442
I3913
sS'comp.graphics/39079'
p2443
I3916
sS'comp.graphics/39078'
p2444
I3915
sS'sci.space/62614'
p2445
I1995
sS'sci.space/62615'
p2446
I1996
sS'sci.space/62616'
p2447
I1997
sS'comp.graphics/40062'
p2448
I3999
sS'talk.politics.misc/178734'
p2449
I4618
sS'talk.politics.misc/178877'
p2450
I4761
sS'sci.space/61424'
p2451
I1773
sS'talk.politics.misc/176973'
p2452
I4127
sS'talk.politics.misc/176972'
p2453
I4126
sS'talk.politics.misc/176971'
p2454
I4125
sS'sci.space/61425'
p2455
I1774
sS'talk.politics.misc/176977'
p2456
I4131
sS'talk.politics.misc/176976'
p2457
I4130
sS'talk.politics.misc/176975'
p2458
I4129
sS'talk.politics.misc/176974'
p2459
I4128
sS'comp.graphics/38694'
p2460
I3532
sS'comp.graphics/38099'
p2461
I3052
sS'talk.politics.misc/176979'
p2462
I4133
sS'talk.politics.misc/176978'
p2463
I4132
sS'rec.sport.hockey/52667'
p2464
I117
sS'rec.sport.hockey/52666'
p2465
I116
sS'rec.sport.hockey/52665'
p2466
I115
sS'rec.sport.hockey/52664'
p2467
I114
sS'rec.sport.hockey/52663'
p2468
I113
sS'rec.sport.hockey/52662'
p2469
I112
sS'rec.sport.hockey/52661'
p2470
I111
sS'rec.sport.hockey/52660'
p2471
I110
sS'comp.graphics/38414'
p2472
I3253
sS'comp.graphics/38415'
p2473
I3254
sS'comp.graphics/38416'
p2474
I3255
sS'sci.space/61348'
p2475
I1697
sS'comp.graphics/38410'
p2476
I3249
sS'comp.graphics/38411'
p2477
I3250
sS'rec.sport.hockey/52669'
p2478
I119
sS'rec.sport.hockey/52668'
p2479
I118
sS'talk.politics.misc/179077'
p2480
I4960
sS'talk.politics.misc/178299'
p2481
I4185
sS'sci.med/59258'
p2482
I2618
sS'sci.space/61345'
p2483
I1694
sS'sci.med/59210'
p2484
I2570
sS'sci.med/59211'
p2485
I2571
sS'sci.med/59212'
p2486
I2572
sS'sci.space/61344'
p2487
I1693
sS'sci.med/59214'
p2488
I2574
sS'sci.med/59215'
p2489
I2575
sS'sci.med/59216'
p2490
I2576
sS'sci.med/59217'
p2491
I2577
sS'sci.med/59218'
p2492
I2578
sS'sci.med/59219'
p2493
I2579
sS'comp.graphics/39028'
p2494
I3865
sS'comp.graphics/38898'
p2495
I3736
sS'comp.graphics/38899'
p2496
I3737
sS'sci.space/61428'
p2497
I1777
sS'sci.med/59259'
p2498
I2619
sS'comp.graphics/38890'
p2499
I3728
sS'comp.graphics/38891'
p2500
I3729
sS'comp.graphics/38892'
p2501
I3730
sS'sci.space/61429'
p2502
I1778
sS'comp.graphics/38894'
p2503
I3732
sS'comp.graphics/38895'
p2504
I3733
sS'comp.graphics/38896'
p2505
I3734
sS'comp.graphics/38897'
p2506
I3735
sS'rec.sport.hockey/52591'
p2507
I41
sS'rec.sport.hockey/52590'
p2508
I40
sS'rec.sport.hockey/52593'
p2509
I43
sS'rec.sport.hockey/52592'
p2510
I42
sS'rec.sport.hockey/52595'
p2511
I45
sS'rec.sport.hockey/52594'
p2512
I44
sS'rec.sport.hockey/52597'
p2513
I47
sS'rec.sport.hockey/52596'
p2514
I46
sS'rec.sport.hockey/52599'
p2515
I49
sS'rec.sport.hockey/52598'
p2516
I48
sS'talk.politics.misc/178769'
p2517
I4653
sS'talk.politics.misc/179025'
p2518
I4908
sS'talk.politics.misc/178917'
p2519
I4801
sS'talk.politics.misc/178916'
p2520
I4800
sS'talk.politics.misc/178915'
p2521
I4799
sS'comp.graphics/39651'
p2522
I3967
sS'talk.politics.misc/178913'
p2523
I4797
sS'talk.politics.misc/178912'
p2524
I4796
sS'talk.politics.misc/178911'
p2525
I4795
sS'talk.politics.misc/178910'
p2526
I4794
sS'talk.politics.misc/179006'
p2527
I4890
sS'talk.politics.misc/178919'
p2528
I4803
sS'talk.politics.misc/178918'
p2529
I4802
sS'rec.sport.hockey/53880'
p2530
I480
sS'rec.sport.hockey/53881'
p2531
I481
sS'rec.sport.hockey/53882'
p2532
I482
sS'rec.sport.hockey/53883'
p2533
I483
sS'rec.sport.hockey/53884'
p2534
I484
sS'rec.sport.hockey/53885'
p2535
I485
sS'rec.sport.hockey/53886'
p2536
I486
sS'rec.sport.hockey/53887'
p2537
I487
sS'rec.sport.hockey/53888'
p2538
I488
sS'rec.sport.hockey/53889'
p2539
I489
sS'sci.med/59106'
p2540
I2467
sS'sci.med/59107'
p2541
I2468
sS'sci.med/59100'
p2542
I2461
sS'sci.med/59101'
p2543
I2462
sS'sci.med/59102'
p2544
I2463
sS'sci.med/59103'
p2545
I2464
sS'sci.med/58769'
p2546
I2131
sS'sci.med/58768'
p2547
I2130
sS'talk.politics.misc/178362'
p2548
I4248
sS'sci.med/58763'
p2549
I2125
sS'sci.med/58762'
p2550
I2124
sS'sci.med/58761'
p2551
I2123
sS'sci.med/58760'
p2552
I2122
sS'sci.med/58767'
p2553
I2129
sS'sci.med/58766'
p2554
I2128
sS'sci.med/58765'
p2555
I2127
sS'sci.med/58764'
p2556
I2126
sS'comp.graphics/37943'
p2557
I3031
sS'comp.graphics/37942'
p2558
I3030
sS'comp.graphics/37941'
p2559
I3029
sS'comp.graphics/37940'
p2560
I3028
sS'comp.graphics/37947'
p2561
I3035
sS'sci.med/58079'
p2562
I2037
sS'comp.graphics/37945'
p2563
I3033
sS'comp.graphics/37944'
p2564
I3032
sS'talk.politics.misc/178593'
p2565
I4478
sS'talk.politics.misc/178592'
p2566
I4477
sS'comp.graphics/37949'
p2567
I3037
sS'sci.med/59077'
p2568
I2438
sS'talk.politics.misc/178597'
p2569
I4482
sS'talk.politics.misc/178596'
p2570
I4481
sS'talk.politics.misc/178595'
p2571
I4480
sS'talk.politics.misc/178594'
p2572
I4479
sS'sci.med/59580'
p2573
I2940
sS'sci.med/59078'
p2574
I2439
sS'sci.med/59582'
p2575
I2942
sS'sci.med/59583'
p2576
I2943
sS'sci.med/59584'
p2577
I2944
sS'sci.med/59585'
p2578
I2945
sS'sci.med/59586'
p2579
I2946
sS'sci.med/58076'
p2580
I2034
sS'sci.med/59588'
p2581
I2948
sS'sci.med/59589'
p2582
I2949
sS'talk.politics.misc/176993'
p2583
I4147
sS'talk.politics.misc/176992'
p2584
I4146
sS'talk.politics.misc/176995'
p2585
I4149
sS'sci.med/59173'
p2586
I2534
sS'talk.politics.misc/176997'
p2587
I4151
sS'talk.politics.misc/176996'
p2588
I4150
sS'sci.space/61567'
p2589
I1916
sS'sci.space/61566'
p2590
I1915
sS'sci.space/61565'
p2591
I1914
sS'sci.space/61564'
p2592
I1913
sS'sci.space/61563'
p2593
I1912
sS'sci.space/61562'
p2594
I1911
sS'sci.space/61561'
p2595
I1910
sS'sci.space/61560'
p2596
I1909
sS'sci.med/59360'
p2597
I2720
sS'sci.med/59175'
p2598
I2536
sS'sci.med/59362'
p2599
I2722
sS'sci.med/59363'
p2600
I2723
sS'sci.med/59364'
p2601
I2724
sS'sci.med/59365'
p2602
I2725
sS'sci.space/61569'
p2603
I1918
sS'sci.space/61568'
p2604
I1917
sS'comp.graphics/38740'
p2605
I3578
sS'comp.graphics/38834'
p2606
I3672
sS'sci.med/59568'
p2607
I2928
sS'sci.med/59569'
p2608
I2929
sS'sci.med/59566'
p2609
I2926
sS'sci.med/59567'
p2610
I2927
sS'sci.med/59564'
p2611
I2924
sS'sci.med/58070'
p2612
I2028
sS'sci.med/59562'
p2613
I2922
sS'sci.med/59563'
p2614
I2923
sS'sci.med/59560'
p2615
I2920
sS'sci.med/59561'
p2616
I2921
sS'sci.space/61169'
p2617
I1518
sS'sci.space/61168'
p2618
I1517
sS'talk.politics.misc/178779'
p2619
I4663
sS'talk.politics.misc/178778'
p2620
I4662
sS'sci.space/61163'
p2621
I1512
sS'sci.space/61162'
p2622
I1511
sS'sci.space/61161'
p2623
I1510
sS'sci.space/61160'
p2624
I1509
sS'sci.space/61167'
p2625
I1516
sS'sci.space/61166'
p2626
I1515
sS'sci.space/61165'
p2627
I1514
sS'sci.space/61164'
p2628
I1513
sS'sci.med/59273'
p2629
I2633
sS'sci.space/61303'
p2630
I1652
sS'sci.space/61302'
p2631
I1651
sS'sci.space/61301'
p2632
I1650
sS'sci.space/61300'
p2633
I1649
sS'sci.space/61307'
p2634
I1656
sS'sci.space/61306'
p2635
I1655
sS'sci.space/61305'
p2636
I1654
sS'sci.space/61304'
p2637
I1653
sS'comp.graphics/38413'
p2638
I3252
sS'sci.space/61309'
p2639
I1658
sS'sci.space/61308'
p2640
I1657
sS'comp.graphics/38736'
p2641
I3574
sS'talk.politics.misc/179007'
p2642
I4891
sS'comp.graphics/39023'
p2643
I3860
sS'talk.politics.misc/178521'
p2644
I4407
sS'sci.med/59250'
p2645
I2610
sS'sci.space/61338'
p2646
I1687
sS'sci.space/61339'
p2647
I1688
sS'talk.politics.misc/178947'
p2648
I4831
sS'sci.space/61419'
p2649
I1768
sS'sci.space/61418'
p2650
I1767
sS'sci.space/61417'
p2651
I1766
sS'sci.space/61416'
p2652
I1765
sS'sci.space/61415'
p2653
I1764
sS'sci.space/61414'
p2654
I1763
sS'sci.space/61413'
p2655
I1762
sS'sci.space/61412'
p2656
I1761
sS'sci.space/61411'
p2657
I1760
sS'sci.space/61410'
p2658
I1759
sS'sci.space/60964'
p2659
I1313
sS'sci.space/60965'
p2660
I1314
sS'sci.space/60966'
p2661
I1315
sS'sci.space/60967'
p2662
I1316
sS'sci.space/60960'
p2663
I1309
sS'sci.space/60961'
p2664
I1310
sS'sci.space/60962'
p2665
I1311
sS'sci.space/60963'
p2666
I1312
sS'sci.med/58998'
p2667
I2360
sS'sci.med/58999'
p2668
I2361
sS'talk.politics.misc/178684'
p2669
I4569
sS'sci.space/60968'
p2670
I1317
sS'sci.space/60969'
p2671
I1318
sS'talk.politics.misc/178589'
p2672
I4474
sS'talk.politics.misc/178461'
p2673
I4347
sS'talk.politics.misc/178792'
p2674
I4676
sS'talk.politics.misc/178584'
p2675
I4469
sS'talk.politics.misc/178585'
p2676
I4470
sS'talk.politics.misc/178945'
p2677
I4829
sS'rec.sport.hockey/53527'
p2678
I127
sS'rec.sport.hockey/53526'
p2679
I126
sS'rec.sport.hockey/53525'
p2680
I125
sS'rec.sport.hockey/53524'
p2681
I124
sS'rec.sport.hockey/53523'
p2682
I123
sS'rec.sport.hockey/53522'
p2683
I122
sS'rec.sport.hockey/53521'
p2684
I121
sS'rec.sport.hockey/53529'
p2685
I129
sS'rec.sport.hockey/53528'
p2686
I128
sS'rec.sport.hockey/54508'
p2687
I867
sS'rec.sport.hockey/54509'
p2688
I868
sS'rec.sport.hockey/54058'
p2689
I658
sS'rec.sport.hockey/54059'
p2690
I659
sS'rec.sport.hockey/54056'
p2691
I656
sS'rec.sport.hockey/54057'
p2692
I657
sS'rec.sport.hockey/54054'
p2693
I654
sS'rec.sport.hockey/54507'
p2694
I866
sS'rec.sport.hockey/54052'
p2695
I652
sS'rec.sport.hockey/54053'
p2696
I653
sS'rec.sport.hockey/54050'
p2697
I650
sS'rec.sport.hockey/54051'
p2698
I651
sS'sci.space/60890'
p2699
I1239
sS'sci.space/60891'
p2700
I1240
sS'sci.space/60892'
p2701
I1241
sS'sci.space/60893'
p2702
I1242
sS'sci.space/60894'
p2703
I1243
sS'sci.space/60895'
p2704
I1244
sS'sci.space/60896'
p2705
I1245
sS'sci.space/60897'
p2706
I1246
sS'sci.space/60898'
p2707
I1247
sS'sci.space/60899'
p2708
I1248
sS'comp.graphics/38954'
p2709
I3792
sS'sci.space/60784'
p2710
I1134
sS'sci.space/60785'
p2711
I1135
sS'sci.space/60786'
p2712
I1136
sS'sci.space/60787'
p2713
I1137
sS'sci.space/60780'
p2714
I1130
sS'sci.space/60781'
p2715
I1131
sS'sci.space/60782'
p2716
I1132
sS'sci.space/60783'
p2717
I1133
sS'sci.space/60788'
p2718
I1138
sS'sci.space/60789'
p2719
I1139
sS'comp.graphics/38649'
p2720
I3487
sS'comp.graphics/38648'
p2721
I3486
sS'talk.politics.misc/178997'
p2722
I4881
sS'talk.politics.misc/178348'
p2723
I4234
sS'comp.graphics/38641'
p2724
I3479
sS'comp.graphics/38640'
p2725
I3478
sS'comp.graphics/38643'
p2726
I3481
sS'comp.graphics/38642'
p2727
I3480
sS'comp.graphics/38645'
p2728
I3483
sS'comp.graphics/38269'
p2729
I3108
sS'comp.graphics/38647'
p2730
I3485
sS'comp.graphics/38646'
p2731
I3484
sS'comp.graphics/39025'
p2732
I3862
sS'comp.graphics/38268'
p2733
I3107
sS'talk.politics.misc/176983'
p2734
I4137
sS'comp.graphics/39048'
p2735
I3885
sS'talk.politics.misc/178344'
p2736
I4230
sS'talk.politics.misc/178832'
p2737
I4716
sS'comp.graphics/39049'
p2738
I3886
sS'talk.politics.misc/178345'
p2739
I4231
sS'rec.sport.hockey/54298'
p2740
I844
sS'rec.sport.hockey/54299'
p2741
I845
sS'rec.sport.hockey/54294'
p2742
I840
sS'rec.sport.hockey/54295'
p2743
I841
sS'rec.sport.hockey/54296'
p2744
I842
sS'rec.sport.hockey/54297'
p2745
I843
sS'rec.sport.hockey/54290'
p2746
I836
sS'rec.sport.hockey/54291'
p2747
I837
sS'rec.sport.hockey/54292'
p2748
I838
sS'rec.sport.hockey/54293'
p2749
I839
sS'comp.graphics/39044'
p2750
I3881
sS'talk.politics.misc/178340'
p2751
I4226
sS'sci.med/58978'
p2752
I2340
sS'sci.med/58979'
p2753
I2341
sS'sci.med/58976'
p2754
I2338
sS'sci.med/58977'
p2755
I2339
sS'sci.med/58974'
p2756
I2336
sS'sci.med/58975'
p2757
I2337
sS'sci.med/58972'
p2758
I2334
sS'sci.med/58973'
p2759
I2335
sS'sci.med/58970'
p2760
I2332
sS'sci.med/58971'
p2761
I2333
sS'sci.space/62131'
p2762
I1930
sS'sci.space/62130'
p2763
I1929
sS'rec.sport.hockey/54274'
p2764
I827
sS'rec.sport.hockey/54275'
p2765
I828
sS'rec.sport.hockey/54272'
p2766
I825
sS'rec.sport.hockey/54273'
p2767
I826
sS'talk.politics.misc/178982'
p2768
I4866
sS'comp.graphics/38267'
p2769
I3106
sS'comp.graphics/38266'
p2770
I3105
sS'talk.politics.misc/178926'
p2771
I4810
sS'comp.graphics/39042'
p2772
I3879
sS'talk.politics.misc/179108'
p2773
I4991
sS'talk.politics.misc/178863'
p2774
I4747
sS'comp.graphics/39043'
p2775
I3880
sS'rec.sport.hockey/54478'
p2776
I864
sS'rec.sport.hockey/54479'
p2777
I865
sS'comp.graphics/39660'
p2778
I3976
sS'comp.graphics/39661'
p2779
I3977
sS'comp.graphics/39662'
p2780
I3978
sS'comp.graphics/39663'
p2781
I3979
sS'comp.graphics/38249'
p2782
I3088
sS'comp.graphics/38248'
p2783
I3087
sS'rec.sport.hockey/53709'
p2784
I309
sS'rec.sport.hockey/53708'
p2785
I308
sS'rec.sport.hockey/53707'
p2786
I307
sS'rec.sport.hockey/53706'
p2787
I306
sS'rec.sport.hockey/53705'
p2788
I305
sS'rec.sport.hockey/53704'
p2789
I304
sS'rec.sport.hockey/53703'
p2790
I303
sS'rec.sport.hockey/53702'
p2791
I302
sS'rec.sport.hockey/53701'
p2792
I301
sS'rec.sport.hockey/53700'
p2793
I300
sS'comp.graphics/38916'
p2794
I3754
sS'comp.graphics/39067'
p2795
I3904
sS'comp.graphics/39064'
p2796
I3901
sS'comp.graphics/39065'
p2797
I3902
sS'comp.graphics/38832'
p2798
I3670
sS'comp.graphics/39063'
p2799
I3900
sS'comp.graphics/39060'
p2800
I3897
sS'comp.graphics/39061'
p2801
I3898
sS'talk.politics.misc/179101'
p2802
I4984
sS'talk.politics.misc/179005'
p2803
I4889
sS'comp.graphics/39068'
p2804
I3905
sS'comp.graphics/39069'
p2805
I3906
sS'sci.med/58990'
p2806
I2352
sS'comp.graphics/38717'
p2807
I3555
sS'talk.politics.misc/178948'
p2808
I4832
sS'talk.politics.misc/176964'
p2809
I4118
sS'talk.politics.misc/176965'
p2810
I4119
sS'talk.politics.misc/176966'
p2811
I4120
sS'talk.politics.misc/176967'
p2812
I4121
sS'talk.politics.misc/176960'
p2813
I4114
sS'talk.politics.misc/176961'
p2814
I4115
sS'talk.politics.misc/176962'
p2815
I4116
sS'talk.politics.misc/176963'
p2816
I4117
sS'talk.politics.misc/176968'
p2817
I4122
sS'talk.politics.misc/176969'
p2818
I4123
sS'rec.sport.hockey/52612'
p2819
I62
sS'rec.sport.hockey/52613'
p2820
I63
sS'rec.sport.hockey/52610'
p2821
I60
sS'rec.sport.hockey/52611'
p2822
I61
sS'rec.sport.hockey/52616'
p2823
I66
sS'rec.sport.hockey/52617'
p2824
I67
sS'rec.sport.hockey/52614'
p2825
I64
sS'rec.sport.hockey/52615'
p2826
I65
sS'talk.politics.misc/178949'
p2827
I4833
sS'rec.sport.hockey/52618'
p2828
I68
sS'rec.sport.hockey/52619'
p2829
I69
sS'sci.med/59559'
p2830
I2919
sS'comp.graphics/39022'
p2831
I3859
sS'sci.space/62481'
p2832
I1994
sS'sci.space/62480'
p2833
I1993
sS'comp.graphics/38423'
p2834
I3261
sS'sci.med/59558'
p2835
I2918
sS'comp.graphics/38425'
p2836
I3263
sS'comp.graphics/38424'
p2837
I3262
sS'comp.graphics/38427'
p2838
I3265
sS'comp.graphics/38426'
p2839
I3264
sS'comp.graphics/38429'
p2840
I3267
sS'comp.graphics/38428'
p2841
I3266
sS'talk.politics.misc/178908'
p2842
I4792
sS'talk.politics.misc/178909'
p2843
I4793
sS'talk.politics.misc/178900'
p2844
I4784
sS'talk.politics.misc/178901'
p2845
I4785
sS'talk.politics.misc/178902'
p2846
I4786
sS'talk.politics.misc/178903'
p2847
I4787
sS'talk.politics.misc/178904'
p2848
I4788
sS'talk.politics.misc/178905'
p2849
I4789
sS'talk.politics.misc/177003'
p2850
I4157
sS'talk.politics.misc/178907'
p2851
I4791
sS'sci.space/62319'
p2852
I1934
sS'sci.space/62318'
p2853
I1933
sS'talk.politics.misc/178790'
p2854
I4674
sS'sci.space/62317'
p2855
I1932
sS'comp.graphics/38335'
p2856
I3174
sS'comp.graphics/38334'
p2857
I3173
sS'comp.graphics/38337'
p2858
I3176
sS'comp.graphics/38336'
p2859
I3175
sS'comp.graphics/38331'
p2860
I3170
sS'comp.graphics/38330'
p2861
I3169
sS'comp.graphics/38333'
p2862
I3172
sS'comp.graphics/38332'
p2863
I3171
sS'sci.med/59557'
p2864
I2917
sS'comp.graphics/38339'
p2865
I3178
sS'comp.graphics/38338'
p2866
I3177
sS'sci.med/59556'
p2867
I2916
sS'talk.politics.misc/178866'
p2868
I4750
sS'talk.politics.misc/179049'
p2869
I4932
sS'comp.graphics/39037'
p2870
I3874
sS'sci.med/59179'
p2871
I2539
sS'sci.med/59178'
p2872
I2538
sS'comp.graphics/38931'
p2873
I3769
sS'comp.graphics/38930'
p2874
I3768
sS'comp.graphics/38937'
p2875
I3775
sS'comp.graphics/38936'
p2876
I3774
sS'rec.sport.hockey/53899'
p2877
I499
sS'rec.sport.hockey/53898'
p2878
I498
sS'rec.sport.hockey/53897'
p2879
I497
sS'rec.sport.hockey/53896'
p2880
I496
sS'rec.sport.hockey/53895'
p2881
I495
sS'rec.sport.hockey/53894'
p2882
I494
sS'rec.sport.hockey/53893'
p2883
I493
sS'rec.sport.hockey/53892'
p2884
I492
sS'rec.sport.hockey/53891'
p2885
I491
sS'rec.sport.hockey/53890'
p2886
I490
sS'sci.med/58774'
p2887
I2136
sS'sci.med/58775'
p2888
I2137
sS'sci.med/58776'
p2889
I2138
sS'sci.med/58777'
p2890
I2139
sS'sci.med/58770'
p2891
I2132
sS'sci.med/58771'
p2892
I2133
sS'sci.med/58772'
p2893
I2134
sS'sci.med/58773'
p2894
I2135
sS'talk.politics.misc/178776'
p2895
I4660
sS'sci.med/58778'
p2896
I2140
sS'sci.med/58779'
p2897
I2141
sS'comp.graphics/37950'
p2898
I3038
sS'comp.graphics/37951'
p2899
I3039
sS'comp.graphics/37952'
p2900
I3040
sS'comp.graphics/37953'
p2901
I3041
sS'comp.graphics/37954'
p2902
I3042
sS'comp.graphics/37955'
p2903
I3043
sS'comp.graphics/37956'
p2904
I3044
sS'comp.graphics/37957'
p2905
I3045
sS'comp.graphics/37958'
p2906
I3046
sS'comp.graphics/37959'
p2907
I3047
sS'talk.politics.misc/178586'
p2908
I4471
sS'talk.politics.misc/178587'
p2909
I4472
sS'talk.politics.misc/178631'
p2910
I4516
sS'talk.politics.misc/178581'
p2911
I4466
sS'talk.politics.misc/178582'
p2912
I4467
sS'talk.politics.misc/178583'
p2913
I4468
sS'talk.politics.misc/178768'
p2914
I4652
sS'talk.politics.misc/176988'
p2915
I4142
sS'talk.politics.misc/176989'
p2916
I4143
sS'comp.graphics/39031'
p2917
I3868
sS'comp.graphics/38751'
p2918
I3589
sS'talk.politics.misc/178349'
p2919
I4235
sS'talk.politics.misc/176982'
p2920
I4136
sS'comp.graphics/38820'
p2921
I3658
sS'talk.politics.misc/176980'
p2922
I4134
sS'talk.politics.misc/176981'
p2923
I4135
sS'talk.politics.misc/176986'
p2924
I4140
sS'talk.politics.misc/176987'
p2925
I4141
sS'talk.politics.misc/176984'
p2926
I4138
sS'talk.politics.misc/176985'
p2927
I4139
sS'sci.med/59395'
p2928
I2755
sS'sci.med/59394'
p2929
I2754
sS'sci.med/59397'
p2930
I2757
sS'sci.med/59396'
p2931
I2756
sS'sci.med/59391'
p2932
I2751
sS'sci.med/59390'
p2933
I2750
sS'sci.med/59393'
p2934
I2753
sS'sci.med/59392'
p2935
I2752
sS'sci.med/59399'
p2936
I2759
sS'sci.med/59398'
p2937
I2758
sS'talk.politics.misc/178884'
p2938
I4768
sS'sci.med/59004'
p2939
I2366
sS'sci.med/59007'
p2940
I2368
sS'sci.med/59006'
p2941
I2367
sS'sci.med/59001'
p2942
I2363
sS'sci.med/59000'
p2943
I2362
sS'sci.med/59003'
p2944
I2365
sS'sci.med/59002'
p2945
I2364
sS'sci.med/59553'
p2946
I2913
sS'sci.med/59552'
p2947
I2912
sS'sci.med/59551'
p2948
I2911
sS'sci.med/59550'
p2949
I2910
sS'sci.med/59009'
p2950
I2370
sS'sci.med/59008'
p2951
I2369
sS'sci.med/59555'
p2952
I2915
sS'sci.med/59554'
p2953
I2914
sS'sci.space/61178'
p2954
I1527
sS'sci.space/61179'
p2955
I1528
sS'talk.politics.misc/178762'
p2956
I4646
sS'talk.politics.misc/176945'
p2957
I4099
sS'talk.politics.misc/178764'
p2958
I4648
sS'talk.politics.misc/178765'
p2959
I4649
sS'talk.politics.misc/178766'
p2960
I4650
sS'sci.med/59488'
p2961
I2848
sS'sci.space/61170'
p2962
I1519
sS'sci.space/61171'
p2963
I1520
sS'sci.space/61172'
p2964
I1521
sS'sci.space/61173'
p2965
I1522
sS'sci.space/61174'
p2966
I1523
sS'sci.space/61175'
p2967
I1524
sS'sci.space/61176'
p2968
I1525
sS'sci.space/61177'
p2969
I1526
sS'sci.med/59489'
p2970
I2849
sS'rec.sport.hockey/54092'
p2971
I692
sS'talk.politics.misc/178648'
p2972
I4533
sS'talk.politics.misc/176940'
p2973
I4094
sS'comp.graphics/38972'
p2974
I3810
sS'rec.sport.hockey/54541'
p2975
I900
sS'sci.med/59481'
p2976
I2841
sS'sci.med/59480'
p2977
I2840
sS'sci.med/59483'
p2978
I2843
sS'sci.med/59482'
p2979
I2842
sS'sci.med/59485'
p2980
I2845
sS'rec.sport.hockey/54542'
p2981
I901
sS'sci.med/59487'
p2982
I2847
sS'sci.med/59486'
p2983
I2846
sS'sci.space/61310'
p2984
I1659
sS'sci.space/61311'
p2985
I1660
sS'sci.space/61312'
p2986
I1661
sS'rec.sport.hockey/54543'
p2987
I902
sS'sci.space/61314'
p2988
I1663
sS'sci.space/61315'
p2989
I1664
sS'sci.space/61316'
p2990
I1665
sS'sci.space/61317'
p2991
I1666
sS'sci.space/61318'
p2992
I1667
sS'rec.sport.hockey/54544'
p2993
I903
sS'rec.sport.hockey/54545'
p2994
I904
sS'talk.politics.misc/178643'
p2995
I4528
sS'talk.politics.misc/178772'
p2996
I4656
sS'rec.sport.hockey/54546'
p2997
I905
sS'talk.politics.misc/178642'
p2998
I4527
sS'talk.politics.misc/178835'
p2999
I4719
sS'rec.sport.hockey/54547'
p3000
I906
sS'talk.politics.misc/178412'
p3001
I4298
sS'comp.graphics/39642'
p3002
I3958
sS'sci.med/59484'
p3003
I2844
sS'sci.space/61408'
p3004
I1757
sS'sci.space/61409'
p3005
I1758
sS'sci.space/61404'
p3006
I1753
sS'sci.space/61405'
p3007
I1754
sS'sci.space/61406'
p3008
I1755
sS'sci.space/61407'
p3009
I1756
sS'sci.space/61400'
p3010
I1749
sS'sci.space/61401'
p3011
I1750
sS'sci.space/61402'
p3012
I1751
sS'sci.space/61403'
p3013
I1752
sS'sci.space/60951'
p3014
I1300
sS'sci.space/60950'
p3015
I1299
sS'sci.space/60953'
p3016
I1302
sS'sci.space/60952'
p3017
I1301
sS'sci.space/60955'
p3018
I1304
sS'sci.space/60954'
p3019
I1303
sS'sci.space/60957'
p3020
I1306
sS'sci.space/60956'
p3021
I1305
sS'sci.space/60959'
p3022
I1308
sS'sci.space/60958'
p3023
I1307
sS'sci.med/59230'
p3024
I2590
sS'talk.politics.misc/178950'
p3025
I4834
sS'sci.space/60227'
p3026
I1094
sS'sci.space/60226'
p3027
I1093
sS'sci.space/60225'
p3028
I1092
sS'sci.space/60224'
p3029
I1091
sS'sci.space/60223'
p3030
I1090
sS'sci.space/60222'
p3031
I1089
sS'sci.space/60221'
p3032
I1088
sS'sci.space/60220'
p3033
I1087
sS'rec.sport.hockey/54754'
p3034
I969
sS'sci.space/60229'
p3035
I1096
sS'sci.space/60228'
p3036
I1095
sS'rec.sport.hockey/53552'
p3037
I152
sS'rec.sport.hockey/53553'
p3038
I153
sS'rec.sport.hockey/53550'
p3039
I150
sS'rec.sport.hockey/53551'
p3040
I151
sS'rec.sport.hockey/53556'
p3041
I156
sS'rec.sport.hockey/53557'
p3042
I157
sS'rec.sport.hockey/53554'
p3043
I154
sS'rec.sport.hockey/53555'
p3044
I155
sS'rec.sport.hockey/53558'
p3045
I158
sS'rec.sport.hockey/53559'
p3046
I159
sS'rec.sport.hockey/54519'
p3047
I878
sS'rec.sport.hockey/54518'
p3048
I877
sS'rec.sport.hockey/54049'
p3049
I649
sS'rec.sport.hockey/54048'
p3050
I648
sS'rec.sport.hockey/54045'
p3051
I645
sS'rec.sport.hockey/54512'
p3052
I871
sS'rec.sport.hockey/54047'
p3053
I647
sS'rec.sport.hockey/54046'
p3054
I646
sS'rec.sport.hockey/54041'
p3055
I641
sS'rec.sport.hockey/54040'
p3056
I640
sS'rec.sport.hockey/54043'
p3057
I643
sS'rec.sport.hockey/54514'
p3058
I873
sS'comp.graphics/39646'
p3059
I3962
sS'comp.graphics/39039'
p3060
I3876
sS'talk.politics.misc/178861'
p3061
I4745
sS'talk.politics.misc/178836'
p3062
I4720
sS'comp.graphics/38368'
p3063
I3207
sS'talk.politics.misc/179008'
p3064
I4892
sS'sci.med/59207'
p3065
I2567
sS'comp.graphics/39038'
p3066
I3875
sS'comp.graphics/38658'
p3067
I3496
sS'sci.med/59206'
p3068
I2566
sS'comp.graphics/38656'
p3069
I3494
sS'comp.graphics/38657'
p3070
I3495
sS'comp.graphics/38654'
p3071
I3492
sS'comp.graphics/38655'
p3072
I3493
sS'comp.graphics/38652'
p3073
I3490
sS'comp.graphics/38653'
p3074
I3491
sS'comp.graphics/38650'
p3075
I3488
sS'comp.graphics/38651'
p3076
I3489
sS'sci.med/58089'
p3077
I2047
sS'talk.politics.misc/178849'
p3078
I4733
sS'comp.graphics/39644'
p3079
I3960
sS'rec.sport.hockey/54289'
p3080
I835
sS'rec.sport.hockey/54288'
p3081
I834
sS'talk.politics.misc/178789'
p3082
I4673
sS'rec.sport.hockey/54283'
p3083
I829
sS'rec.sport.hockey/54287'
p3084
I833
sS'rec.sport.hockey/54286'
p3085
I832
sS'rec.sport.hockey/54285'
p3086
I831
sS'rec.sport.hockey/54284'
p3087
I830
sS'talk.politics.misc/178845'
p3088
I4729
sS'sci.med/58949'
p3089
I2311
sS'sci.med/58948'
p3090
I2310
sS'talk.politics.misc/178844'
p3091
I4728
sS'sci.med/58943'
p3092
I2305
sS'sci.med/58942'
p3093
I2304
sS'sci.med/58941'
p3094
I2303
sS'sci.med/58940'
p3095
I2302
sS'sci.med/58947'
p3096
I2309
sS'sci.med/58946'
p3097
I2308
sS'sci.med/58945'
p3098
I2307
sS'sci.med/58944'
p3099
I2306
sS'rec.sport.hockey/54264'
p3100
I824
sS'talk.politics.misc/178786'
p3101
I4670
sS'talk.politics.misc/178846'
p3102
I4730
sS'rec.sport.hockey/54261'
p3103
I821
sS'rec.sport.hockey/54260'
p3104
I820
sS'rec.sport.hockey/54263'
p3105
I823
sS'rec.sport.hockey/54262'
p3106
I822
sS'talk.politics.misc/178677'
p3107
I4562
sS'talk.politics.misc/178841'
p3108
I4725
sS'talk.politics.misc/179078'
p3109
I4961
sS'sci.space/61389'
p3110
I1738
sS'comp.graphics/38961'
p3111
I3799
sS'comp.graphics/38780'
p3112
I3618
sS'sci.space/61388'
p3113
I1737
sS'sci.med/59209'
p3114
I2569
sS'comp.graphics/38873'
p3115
I3711
sS'sci.med/59208'
p3116
I2568
sS'comp.graphics/39655'
p3117
I3971
sS'comp.graphics/39654'
p3118
I3970
sS'rec.sport.hockey/53778'
p3119
I378
sS'rec.sport.hockey/53779'
p3120
I379
sS'comp.graphics/38788'
p3121
I3626
sS'sci.med/59098'
p3122
I2459
sS'comp.graphics/39653'
p3123
I3969
sS'comp.graphics/39652'
p3124
I3968
sS'rec.sport.hockey/53772'
p3125
I372
sS'rec.sport.hockey/53773'
p3126
I373
sS'rec.sport.hockey/53770'
p3127
I370
sS'rec.sport.hockey/53771'
p3128
I371
sS'rec.sport.hockey/53776'
p3129
I376
sS'rec.sport.hockey/53777'
p3130
I377
sS'rec.sport.hockey/53774'
p3131
I374
sS'rec.sport.hockey/53775'
p3132
I375
sS'comp.graphics/38252'
p3133
I3091
sS'sci.med/59096'
p3134
I2457
sS'comp.graphics/38250'
p3135
I3089
sS'comp.graphics/38251'
p3136
I3090
sS'comp.graphics/38256'
p3137
I3095
sS'comp.graphics/38257'
p3138
I3096
sS'comp.graphics/38254'
p3139
I3093
sS'sci.med/59097'
p3140
I2458
sS'sci.space/61313'
p3141
I1662
sS'comp.graphics/38259'
p3142
I3098
sS'sci.med/59094'
p3143
I2455
sS'talk.politics.misc/178784'
p3144
I4668
sS'sci.med/59095'
p3145
I2456
sS'talk.politics.misc/178837'
p3146
I4721
sS'comp.graphics/38743'
p3147
I3581
sS'sci.med/59092'
p3148
I2453
sS'comp.graphics/38782'
p3149
I3620
sS'sci.med/59093'
p3150
I2454
sS'comp.graphics/38928'
p3151
I3766
sS'sci.med/59090'
p3152
I2451
sS'rec.sport.hockey/55022'
p3153
I999
sS'talk.politics.misc/178775'
p3154
I4659
sS'sci.med/59091'
p3155
I2452
sS'talk.politics.misc/178785'
p3156
I4669
sS'comp.graphics/38741'
p3157
I3579
sS'rec.sport.hockey/52601'
p3158
I51
sS'rec.sport.hockey/53607'
p3159
I207
sS'rec.sport.hockey/53604'
p3160
I204
sS'rec.sport.hockey/53605'
p3161
I205
sS'rec.sport.hockey/53602'
p3162
I202
sS'rec.sport.hockey/53603'
p3163
I203
sS'rec.sport.hockey/53600'
p3164
I200
sS'rec.sport.hockey/53601'
p3165
I201
sS'rec.sport.hockey/52609'
p3166
I59
sS'rec.sport.hockey/52608'
p3167
I58
sS'comp.graphics/38988'
p3168
I3825
sS'rec.sport.hockey/53608'
p3169
I208
sS'rec.sport.hockey/53609'
p3170
I209
sS'comp.graphics/38436'
p3171
I3274
sS'rec.sport.hockey/54715'
p3172
I930
sS'comp.graphics/38434'
p3173
I3272
sS'comp.graphics/38435'
p3174
I3273
sS'comp.graphics/38432'
p3175
I3270
sS'comp.graphics/38433'
p3176
I3271
sS'comp.graphics/38430'
p3177
I3268
sS'rec.sport.hockey/54246'
p3178
I806
sS'sci.space/62126'
p3179
I1926
sS'sci.space/62127'
p3180
I1927
sS'sci.med/59637'
p3181
I2988
sS'rec.sport.hockey/54717'
p3182
I932
sS'comp.graphics/38438'
p3183
I3276
sS'comp.graphics/38439'
p3184
I3277
sS'comp.graphics/38313'
p3185
I3152
sS'rec.sport.hockey/54244'
p3186
I804
sS'talk.politics.misc/178979'
p3187
I4863
sS'talk.politics.misc/178978'
p3188
I4862
sS'comp.graphics/38312'
p3189
I3151
sS'talk.politics.misc/178975'
p3190
I4859
sS'rec.sport.hockey/54711'
p3191
I927
sS'talk.politics.misc/178977'
p3192
I4861
sS'talk.politics.misc/178396'
p3193
I4282
sS'talk.politics.misc/178971'
p3194
I4855
sS'rec.sport.hockey/52580'
p3195
I30
sS'talk.politics.misc/178973'
p3196
I4857
sS'rec.sport.hockey/54710'
p3197
I926
sS'talk.politics.misc/178964'
p3198
I4848
sS'comp.graphics/38794'
p3199
I3632
sS'rec.sport.hockey/52581'
p3200
I31
sS'rec.sport.hockey/53958'
p3201
I558
sS'rec.sport.hockey/53959'
p3202
I559
sS'rec.sport.hockey/53956'
p3203
I556
sS'rec.sport.hockey/53957'
p3204
I557
sS'rec.sport.hockey/53954'
p3205
I554
sS'rec.sport.hockey/53955'
p3206
I555
sS'rec.sport.hockey/53952'
p3207
I552
sS'rec.sport.hockey/53953'
p3208
I553
sS'rec.sport.hockey/53950'
p3209
I550
sS'rec.sport.hockey/53951'
p3210
I551
sS'comp.graphics/38328'
p3211
I3167
sS'comp.graphics/38329'
p3212
I3168
sS'comp.graphics/38315'
p3213
I3154
sS'comp.graphics/38322'
p3214
I3161
sS'comp.graphics/38323'
p3215
I3162
sS'comp.graphics/38320'
p3216
I3159
sS'comp.graphics/38314'
p3217
I3153
sS'comp.graphics/38326'
p3218
I3165
sS'comp.graphics/38327'
p3219
I3166
sS'comp.graphics/38324'
p3220
I3163
sS'comp.graphics/38325'
p3221
I3164
sS'sci.med/58569'
p3222
I2115
sS'sci.med/58568'
p3223
I2114
sS'comp.graphics/38837'
p3224
I3675
sS'talk.politics.misc/178780'
p3225
I4664
sS'comp.graphics/38946'
p3226
I3784
sS'rec.sport.hockey/52588'
p3227
I38
sS'rec.sport.hockey/52555'
p3228
I5
sS'rec.sport.hockey/52554'
p3229
I4
sS'rec.sport.hockey/52557'
p3230
I7
sS'rec.sport.hockey/52556'
p3231
I6
sS'rec.sport.hockey/52551'
p3232
I1
sS'rec.sport.hockey/52550'
p3233
I0
sS'rec.sport.hockey/52553'
p3234
I3
sS'rec.sport.hockey/52552'
p3235
I2
sS'sci.med/59162'
p3236
I2523
sS'sci.med/59163'
p3237
I2524
sS'sci.med/59160'
p3238
I2521
sS'sci.med/59161'
p3239
I2522
sS'rec.sport.hockey/52559'
p3240
I9
sS'rec.sport.hockey/52558'
p3241
I8
sS'sci.med/59164'
p3242
I2525
sS'sci.med/59165'
p3243
I2526
sS'talk.politics.misc/178485'
p3244
I4371
sS'talk.politics.misc/178484'
p3245
I4370
sS'talk.politics.misc/178487'
p3246
I4373
sS'talk.politics.misc/178486'
p3247
I4372
sS'talk.politics.misc/178481'
p3248
I4367
sS'talk.politics.misc/178480'
p3249
I4366
sS'talk.politics.misc/178483'
p3250
I4369
sS'talk.politics.misc/178482'
p3251
I4368
sS'comp.graphics/38947'
p3252
I3785
sS'talk.politics.misc/178489'
p3253
I4375
sS'comp.graphics/38744'
p3254
I3582
sS'talk.politics.misc/178571'
p3255
I4457
sS'talk.politics.misc/178570'
p3256
I4456
sS'talk.politics.misc/178573'
p3257
I4459
sS'talk.politics.misc/178572'
p3258
I4458
sS'comp.graphics/37961'
p3259
I3049
sS'comp.graphics/37960'
p3260
I3048
sS'comp.graphics/37963'
p3261
I3051
sS'comp.graphics/37962'
p3262
I3050
sS'talk.politics.misc/178579'
p3263
I4465
sS'talk.politics.misc/178578'
p3264
I4464
sS'talk.politics.misc/178920'
p3265
I4804
sS'sci.space/61319'
p3266
I1668
sS'sci.med/59386'
p3267
I2746
sS'talk.politics.misc/178372'
p3268
I4258
sS'talk.politics.misc/178371'
p3269
I4257
sS'talk.politics.misc/178370'
p3270
I4256
sS'talk.politics.misc/178377'
p3271
I4263
sS'talk.politics.misc/178376'
p3272
I4262
sS'talk.politics.misc/178375'
p3273
I4261
sS'talk.politics.misc/178374'
p3274
I4260
sS'talk.politics.misc/178809'
p3275
I4693
sS'talk.politics.misc/178539'
p3276
I4425
sS'talk.politics.misc/178379'
p3277
I4265
sS'comp.graphics/38987'
p3278
I3824
sS'talk.politics.misc/178431'
p3279
I4317
sS'sci.space/61093'
p3280
I1442
sS'sci.space/61092'
p3281
I1441
sS'sci.space/61091'
p3282
I1440
sS'sci.space/61090'
p3283
I1439
sS'sci.space/61097'
p3284
I1446
sS'sci.space/61096'
p3285
I1445
sS'sci.space/61095'
p3286
I1444
sS'sci.space/61094'
p3287
I1443
sS'sci.space/61549'
p3288
I1898
sS'sci.space/61548'
p3289
I1897
sS'sci.space/61099'
p3290
I1448
sS'sci.space/61098'
p3291
I1447
sS'sci.med/59387'
p3292
I2747
sS'sci.med/59389'
p3293
I2749
sS'sci.med/59016'
p3294
I2377
sS'sci.med/59017'
p3295
I2378
sS'sci.med/59014'
p3296
I2375
sS'sci.med/59015'
p3297
I2376
sS'sci.med/59012'
p3298
I2373
sS'sci.med/59013'
p3299
I2374
sS'sci.med/59010'
p3300
I2371
sS'sci.med/59011'
p3301
I2372
sS'talk.politics.misc/178391'
p3302
I4277
sS'talk.politics.misc/178390'
p3303
I4276
sS'talk.politics.misc/178393'
p3304
I4279
sS'talk.politics.misc/178392'
p3305
I4278
sS'sci.med/59548'
p3306
I2908
sS'sci.med/59549'
p3307
I2909
sS'sci.med/59018'
p3308
I2379
sS'sci.med/59019'
p3309
I2380
sS'sci.space/61145'
p3310
I1494
sS'sci.space/61144'
p3311
I1493
sS'sci.space/61147'
p3312
I1496
sS'sci.space/61146'
p3313
I1495
sS'sci.space/61141'
p3314
I1490
sS'sci.space/61140'
p3315
I1489
sS'sci.space/61143'
p3316
I1492
sS'sci.space/61142'
p3317
I1491
sS'comp.graphics/38793'
p3318
I3631
sS'comp.graphics/39638'
p3319
I3954
sS'sci.space/61149'
p3320
I1498
sS'sci.space/61148'
p3321
I1497
sS'talk.politics.misc/178515'
p3322
I4401
sS'comp.graphics/39637'
p3323
I3953
sS'sci.med/59498'
p3324
I2858
sS'sci.med/59499'
p3325
I2859
sS'talk.politics.misc/178533'
p3326
I4419
sS'sci.med/59492'
p3327
I2852
sS'sci.med/59493'
p3328
I2853
sS'sci.med/59490'
p3329
I2850
sS'sci.med/59491'
p3330
I2851
sS'sci.med/59496'
p3331
I2856
sS'sci.med/59497'
p3332
I2857
sS'sci.med/59494'
p3333
I2854
sS'sci.med/59495'
p3334
I2855
sS'talk.politics.misc/179036'
p3335
I4919
sS'comp.graphics/38810'
p3336
I3648
sS'talk.politics.misc/178741'
p3337
I4625
sS'comp.graphics/38811'
p3338
I3649
sS'sci.med/59385'
p3339
I2745
sS'comp.graphics/38917'
p3340
I3755
sS'comp.graphics/38812'
p3341
I3650
sS'talk.politics.misc/178628'
p3342
I4513
sS'sci.med/59059'
p3343
I2420
sS'comp.graphics/39631'
p3344
I3947
sS'talk.politics.misc/179056'
p3345
I4939
sS'comp.graphics/38814'
p3346
I3652
sS'comp.graphics/39630'
p3347
I3946
sS'comp.graphics/38584'
p3348
I3422
sS'comp.graphics/39006'
p3349
I3843
sS'talk.politics.misc/178629'
p3350
I4514
sS'comp.graphics/38234'
p3351
I3073
sS'talk.politics.misc/178746'
p3352
I4630
sS'comp.graphics/38235'
p3353
I3074
sS'sci.med/59382'
p3354
I2742
sS'talk.politics.misc/178620'
p3355
I4505
sS'talk.politics.misc/176857'
p3356
I4012
sS'talk.politics.misc/178622'
p3357
I4507
sS'talk.politics.misc/178625'
p3358
I4510
sS'comp.graphics/38236'
p3359
I3075
sS'talk.politics.misc/178627'
p3360
I4512
sS'talk.politics.misc/178626'
p3361
I4511
sS'sci.med/59500'
p3362
I2860
sS'comp.graphics/38237'
p3363
I3076
sS'talk.politics.misc/179051'
p3364
I4934
sS'sci.med/59501'
p3365
I2861
sS'comp.graphics/38230'
p3366
I3069
sS'sci.med/59502'
p3367
I2862
sS'comp.graphics/38231'
p3368
I3070
sS'sci.space/61439'
p3369
I1788
sS'sci.space/61438'
p3370
I1787
sS'sci.med/59503'
p3371
I2863
sS'comp.graphics/38232'
p3372
I3071
sS'sci.space/60948'
p3373
I1297
sS'sci.space/60949'
p3374
I1298
sS'sci.space/60946'
p3375
I1295
sS'sci.space/60947'
p3376
I1296
sS'sci.space/60944'
p3377
I1293
sS'sci.space/60945'
p3378
I1294
sS'sci.space/60942'
p3379
I1291
sS'sci.space/60943'
p3380
I1292
sS'sci.space/60940'
p3381
I1289
sS'sci.space/60941'
p3382
I1290
sS'talk.politics.misc/178839'
p3383
I4723
sS'comp.graphics/38605'
p3384
I3443
sS'sci.med/59506'
p3385
I2866
sS'comp.graphics/38604'
p3386
I3442
sS'sci.med/59507'
p3387
I2867
sS'comp.graphics/38607'
p3388
I3445
sS'sci.med/59298'
p3389
I2658
sS'comp.graphics/38606'
p3390
I3444
sS'sci.med/59380'
p3391
I2740
sS'sci.med/59299'
p3392
I2659
sS'comp.graphics/38238'
p3393
I3077
sS'comp.graphics/38239'
p3394
I3078
sS'sci.space/60234'
p3395
I1101
sS'sci.space/60235'
p3396
I1102
sS'sci.space/60236'
p3397
I1103
sS'sci.space/60237'
p3398
I1104
sS'sci.space/60230'
p3399
I1097
sS'sci.space/60231'
p3400
I1098
sS'sci.space/60232'
p3401
I1099
sS'sci.space/60233'
p3402
I1100
sS'sci.space/61325'
p3403
I1674
sS'sci.space/61324'
p3404
I1673
sS'sci.space/61327'
p3405
I1676
sS'sci.space/61326'
p3406
I1675
sS'sci.space/60238'
p3407
I1105
sS'sci.space/60239'
p3408
I1106
sS'sci.space/61323'
p3409
I1672
sS'sci.space/61322'
p3410
I1671
sS'rec.sport.hockey/53541'
p3411
I141
sS'rec.sport.hockey/53540'
p3412
I140
sS'rec.sport.hockey/53543'
p3413
I143
sS'rec.sport.hockey/53542'
p3414
I142
sS'rec.sport.hockey/53545'
p3415
I145
sS'rec.sport.hockey/53544'
p3416
I144
sS'rec.sport.hockey/53547'
p3417
I147
sS'rec.sport.hockey/53546'
p3418
I146
sS'rec.sport.hockey/53549'
p3419
I149
sS'rec.sport.hockey/53548'
p3420
I148
sS'sci.med/59114'
p3421
I2475
sS'rec.sport.hockey/54078'
p3422
I678
sS'rec.sport.hockey/54079'
p3423
I679
sS'sci.med/59291'
p3424
I2651
sS'rec.sport.hockey/54070'
p3425
I670
sS'rec.sport.hockey/54071'
p3426
I671
sS'rec.sport.hockey/54072'
p3427
I672
sS'rec.sport.hockey/54073'
p3428
I673
sS'rec.sport.hockey/54074'
p3429
I674
sS'rec.sport.hockey/54075'
p3430
I675
sS'rec.sport.hockey/54076'
p3431
I676
sS'rec.sport.hockey/54077'
p3432
I677
sS'talk.politics.misc/178342'
p3433
I4228
sS'comp.graphics/38905'
p3434
I3743
sS'comp.graphics/39030'
p3435
I3867
sS'talk.politics.misc/178799'
p3436
I4683
sS'comp.graphics/39029'
p3437
I3866
sS'talk.politics.misc/178927'
p3438
I4811
sS'comp.graphics/38601'
p3439
I3439
sS'talk.politics.misc/178346'
p3440
I4232
sS'comp.graphics/38797'
p3441
I3635
sS'sci.med/59581'
p3442
I2941
sS'talk.politics.misc/178851'
p3443
I4735
sS'talk.politics.misc/178443'
p3444
I4329
sS'comp.graphics/39659'
p3445
I3975
sS'comp.graphics/39643'
p3446
I3959
sS'talk.politics.misc/178798'
p3447
I4682
sS'talk.politics.misc/178445'
p3448
I4331
sS'talk.politics.misc/178892'
p3449
I4776
sS'talk.politics.misc/178621'
p3450
I4506
sS'comp.graphics/38796'
p3451
I3634
sS'talk.politics.misc/178998'
p3452
I4882
sS'comp.graphics/39658'
p3453
I3974
sS'sci.med/58954'
p3454
I2316
sS'sci.med/58955'
p3455
I2317
sS'sci.med/58956'
p3456
I2318
sS'sci.med/58957'
p3457
I2319
sS'sci.med/58950'
p3458
I2312
sS'sci.med/58951'
p3459
I2313
sS'sci.med/58952'
p3460
I2314
sS'sci.med/58953'
p3461
I2315
sS'sci.space/61498'
p3462
I1847
sS'sci.med/58958'
p3463
I2320
sS'sci.med/58959'
p3464
I2321
sS'talk.politics.misc/178341'
p3465
I4227
sS'rec.sport.hockey/54250'
p3466
I810
sS'rec.sport.hockey/54251'
p3467
I811
sS'rec.sport.hockey/54252'
p3468
I812
sS'rec.sport.hockey/54253'
p3469
I813
sS'rec.sport.hockey/54254'
p3470
I814
sS'rec.sport.hockey/54255'
p3471
I815
sS'rec.sport.hockey/54256'
p3472
I816
sS'rec.sport.hockey/54709'
p3473
I925
sS'rec.sport.hockey/54258'
p3474
I818
sS'rec.sport.hockey/54259'
p3475
I819
sS'rec.sport.hockey/54704'
p3476
I920
sS'rec.sport.hockey/54705'
p3477
I921
sS'talk.politics.misc/178722'
p3478
I4607
sS'comp.graphics/38791'
p3479
I3629
sS'talk.politics.misc/178991'
p3480
I4875
sS'talk.politics.misc/178990'
p3481
I4874
sS'talk.politics.misc/178890'
p3482
I4774
sS'comp.graphics/38948'
p3483
I3786
sS'talk.politics.misc/178623'
p3484
I4508
sS'rec.sport.hockey/53769'
p3485
I369
sS'rec.sport.hockey/53768'
p3486
I368
sS'comp.graphics/39648'
p3487
I3964
sS'comp.graphics/39649'
p3488
I3965
sS'talk.politics.misc/176947'
p3489
I4101
sS'talk.politics.misc/178329'
p3490
I4215
sS'rec.sport.hockey/53761'
p3491
I361
sS'rec.sport.hockey/53760'
p3492
I360
sS'rec.sport.hockey/53763'
p3493
I363
sS'rec.sport.hockey/53762'
p3494
I362
sS'rec.sport.hockey/53765'
p3495
I365
sS'rec.sport.hockey/53764'
p3496
I364
sS'rec.sport.hockey/53767'
p3497
I367
sS'rec.sport.hockey/53766'
p3498
I366
sS'comp.graphics/38227'
p3499
I3066
sS'comp.graphics/38226'
p3500
I3065
sS'comp.graphics/38225'
p3501
I3064
sS'comp.graphics/38224'
p3502
I3063
sS'comp.graphics/38223'
p3503
I3062
sS'comp.graphics/38222'
p3504
I3061
sS'comp.graphics/38221'
p3505
I3060
sS'comp.graphics/38220'
p3506
I3059
sS'comp.graphics/39080'
p3507
I3917
sS'comp.graphics/39081'
p3508
I3918
sS'comp.graphics/39082'
p3509
I3919
sS'comp.graphics/39083'
p3510
I3920
sS'comp.graphics/38949'
p3511
I3787
sS'comp.graphics/38229'
p3512
I3068
sS'comp.graphics/38228'
p3513
I3067
sS'talk.politics.misc/176849'
p3514
I4004
sS'comp.graphics/38698'
p3515
I3536
sS'talk.politics.misc/178967'
p3516
I4851
sS'rec.sport.hockey/52629'
p3517
I79
sS'talk.politics.misc/178794'
p3518
I4678
sS'rec.sport.hockey/53623'
p3519
I223
sS'talk.politics.misc/176846'
p3520
I4002
sS'talk.politics.misc/178896'
p3521
I4780
sS'talk.politics.misc/178347'
p3522
I4233
sS'comp.graphics/38792'
p3523
I3630
sS'comp.graphics/38599'
p3524
I3437
sS'rec.sport.hockey/53615'
p3525
I215
sS'rec.sport.hockey/53614'
p3526
I214
sS'rec.sport.hockey/53617'
p3527
I217
sS'rec.sport.hockey/53616'
p3528
I216
sS'rec.sport.hockey/52638'
p3529
I88
sS'rec.sport.hockey/52639'
p3530
I89
sS'rec.sport.hockey/53613'
p3531
I213
sS'rec.sport.hockey/53612'
p3532
I212
sS'rec.sport.hockey/52634'
p3533
I84
sS'rec.sport.hockey/52635'
p3534
I85
sS'rec.sport.hockey/52636'
p3535
I86
sS'rec.sport.hockey/52637'
p3536
I87
sS'rec.sport.hockey/52630'
p3537
I80
sS'rec.sport.hockey/53618'
p3538
I218
sS'rec.sport.hockey/52632'
p3539
I82
sS'rec.sport.hockey/52633'
p3540
I83
sS'rec.sport.hockey/52623'
p3541
I73
sS'talk.politics.misc/178326'
p3542
I4212
sS'rec.sport.hockey/52622'
p3543
I72
sS'sci.space/62150'
p3544
I1931
sS'comp.graphics/38598'
p3545
I3436
sS'sci.med/59587'
p3546
I2947
sS'comp.graphics/38691'
p3547
I3529
sS'talk.politics.misc/178968'
p3548
I4852
sS'talk.politics.misc/178969'
p3549
I4853
sS'talk.politics.misc/178966'
p3550
I4850
sS'comp.graphics/38696'
p3551
I3534
sS'talk.politics.misc/178796'
p3552
I4680
sS'talk.politics.misc/178965'
p3553
I4849
sS'talk.politics.misc/178962'
p3554
I4846
sS'talk.politics.misc/178963'
p3555
I4847
sS'talk.politics.misc/178960'
p3556
I4844
sS'comp.graphics/38697'
p3557
I3535
sS'sci.space/62373'
p3558
I1935
sS'rec.sport.hockey/54513'
p3559
I872
sS'rec.sport.hockey/53949'
p3560
I549
sS'rec.sport.hockey/53948'
p3561
I548
sS'sci.space/62375'
p3562
I1937
sS'rec.sport.hockey/54044'
p3563
I644
sS'rec.sport.hockey/53945'
p3564
I545
sS'rec.sport.hockey/53944'
p3565
I544
sS'rec.sport.hockey/53947'
p3566
I547
sS'rec.sport.hockey/53946'
p3567
I546
sS'rec.sport.hockey/53941'
p3568
I541
sS'rec.sport.hockey/54511'
p3569
I870
sS'rec.sport.hockey/53943'
p3570
I543
sS'rec.sport.hockey/53942'
p3571
I542
sS'comp.graphics/38511'
p3572
I3349
sS'rec.sport.hockey/54510'
p3573
I869
sS'comp.graphics/38359'
p3574
I3198
sS'comp.graphics/38358'
p3575
I3197
sS'comp.graphics/38357'
p3576
I3196
sS'rec.sport.hockey/54517'
p3577
I876
sS'comp.graphics/38355'
p3578
I3194
sS'comp.graphics/38354'
p3579
I3193
sS'comp.graphics/38353'
p3580
I3192
sS'comp.graphics/38352'
p3581
I3191
sS'comp.graphics/38351'
p3582
I3190
sS'rec.sport.hockey/54516'
p3583
I875
sS'sci.med/58578'
p3584
I2118
sS'talk.politics.misc/178895'
p3585
I4779
sS'rec.sport.hockey/54515'
p3586
I874
sS'comp.graphics/38858'
p3587
I3696
sS'sci.med/58570'
p3588
I2116
sS'rec.sport.hockey/54042'
p3589
I642
sS'sci.med/58577'
p3590
I2117
sS'rec.sport.hockey/52560'
p3591
I10
sS'rec.sport.hockey/52561'
p3592
I11
sS'rec.sport.hockey/52562'
p3593
I12
sS'rec.sport.hockey/52563'
p3594
I13
sS'rec.sport.hockey/52564'
p3595
I14
sS'rec.sport.hockey/52565'
p3596
I15
sS'rec.sport.hockey/52566'
p3597
I16
sS'rec.sport.hockey/52567'
p3598
I17
sS'rec.sport.hockey/52568'
p3599
I18
sS'rec.sport.hockey/52569'
p3600
I19
sS'sci.med/59629'
p3601
I2980
sS'sci.med/59628'
p3602
I2979
sS'sci.med/59159'
p3603
I2520
sS'sci.med/59158'
p3604
I2519
sS'talk.politics.misc/178496'
p3605
I4382
sS'talk.politics.misc/178497'
p3606
I4383
sS'talk.politics.misc/178494'
p3607
I4380
sS'talk.politics.misc/178495'
p3608
I4381
sS'talk.politics.misc/178492'
p3609
I4378
sS'talk.politics.misc/178493'
p3610
I4379
sS'comp.graphics/38859'
p3611
I3697
sS'comp.graphics/39004'
p3612
I3841
sS'sci.med/58719'
p3613
I2119
sS'talk.politics.misc/178498'
p3614
I4384
sS'talk.politics.misc/178499'
p3615
I4385
sS'talk.politics.misc/178562'
p3616
I4448
sS'talk.politics.misc/178563'
p3617
I4449
sS'talk.politics.misc/178560'
p3618
I4446
sS'talk.politics.misc/178561'
p3619
I4447
sS'talk.politics.misc/178566'
p3620
I4452
sS'talk.politics.misc/178567'
p3621
I4453
sS'talk.politics.misc/178564'
p3622
I4450
sS'sci.med/59475'
p3623
I2835
sS'talk.politics.misc/178807'
p3624
I4691
sS'talk.politics.misc/178568'
p3625
I4454
sS'talk.politics.misc/178569'
p3626
I4455
sS'talk.politics.misc/178364'
p3627
I4250
sS'talk.politics.misc/178365'
p3628
I4251
sS'talk.politics.misc/178366'
p3629
I4252
sS'talk.politics.misc/178367'
p3630
I4253
sS'talk.politics.misc/178360'
p3631
I4246
sS'talk.politics.misc/178361'
p3632
I4247
sS'comp.graphics/38919'
p3633
I3757
sS'talk.politics.misc/178363'
p3634
I4249
sS'talk.politics.misc/178413'
p3635
I4299
sS'talk.politics.misc/178818'
p3636
I4702
sS'talk.politics.misc/178819'
p3637
I4703
sS'talk.politics.misc/178368'
p3638
I4254
sS'talk.politics.misc/178369'
p3639
I4255
sS'comp.graphics/38692'
p3640
I3530
sS'sci.space/61080'
p3641
I1429
sS'sci.space/61081'
p3642
I1430
sS'sci.space/61082'
p3643
I1431
sS'sci.space/61083'
p3644
I1432
sS'sci.space/61084'
p3645
I1433
sS'sci.space/61085'
p3646
I1434
sS'sci.space/61086'
p3647
I1435
sS'sci.space/61087'
p3648
I1436
sS'sci.space/61088'
p3649
I1437
sS'sci.space/61089'
p3650
I1438
sS'talk.politics.misc/177013'
p3651
I4167
sS'talk.politics.misc/178848'
p3652
I4732
sS'sci.med/59023'
p3653
I2384
sS'sci.med/59022'
p3654
I2383
sS'sci.med/59021'
p3655
I2382
sS'sci.med/59020'
p3656
I2381
sS'sci.med/59027'
p3657
I2388
sS'sci.med/59026'
p3658
I2387
sS'sci.med/59025'
p3659
I2386
sS'sci.med/59024'
p3660
I2385
sS'sci.med/59539'
p3661
I2899
sS'sci.med/59538'
p3662
I2898
sS'sci.med/59029'
p3663
I2390
sS'sci.med/59028'
p3664
I2389
sS'talk.politics.misc/178386'
p3665
I4272
sS'comp.graphics/38693'
p3666
I3531
sS'talk.politics.misc/178384'
p3667
I4270
sS'talk.politics.misc/178385'
p3668
I4271
sS'sci.space/61152'
p3669
I1501
sS'sci.space/61153'
p3670
I1502
sS'sci.space/61150'
p3671
I1499
sS'sci.space/61151'
p3672
I1500
sS'sci.space/61156'
p3673
I1505
sS'sci.space/61157'
p3674
I1506
sS'sci.space/61154'
p3675
I1503
sS'sci.space/61155'
p3676
I1504
sS'sci.space/61158'
p3677
I1507
sS'sci.space/61159'
p3678
I1508
sS'talk.politics.misc/178708'
p3679
I4593
sS'talk.politics.misc/178709'
p3680
I4594
sS'comp.graphics/39010'
p3681
I3847
sS'comp.graphics/38690'
p3682
I3528
sS'talk.politics.misc/178959'
p3683
I4843
sS'sci.med/59184'
p3684
I2544
sS'sci.med/59185'
p3685
I2545
sS'comp.graphics/38300'
p3686
I3139
sS'sci.med/59186'
p3687
I2546
sS'comp.graphics/38591'
p3688
I3429
sS'comp.graphics/39664'
p3689
I3980
sS'sci.med/59187'
p3690
I2547
sS'sci.med/59449'
p3691
I2809
sS'sci.med/59448'
p3692
I2808
sS'sci.med/59445'
p3693
I2805
sS'sci.med/59180'
p3694
I2540
sS'sci.med/59447'
p3695
I2807
sS'sci.med/59446'
p3696
I2806
sS'sci.med/59441'
p3697
I2801
sS'sci.med/59440'
p3698
I2800
sS'sci.med/59443'
p3699
I2803
sS'sci.med/59181'
p3700
I2541
sS'comp.graphics/38955'
p3701
I3793
sS'sci.med/58143'
p3702
I2101
sS'talk.politics.misc/178638'
p3703
I4523
sS'talk.politics.misc/178639'
p3704
I4524
sS'sci.med/59182'
p3705
I2542
sS'sci.med/58142'
p3706
I2100
sS'talk.politics.misc/178632'
p3707
I4517
sS'talk.politics.misc/178633'
p3708
I4518
sS'talk.politics.misc/178630'
p3709
I4515
sS'sci.med/59183'
p3710
I2543
sS'comp.graphics/38590'
p3711
I3428
sS'comp.graphics/39665'
p3712
I3981
sS'talk.politics.misc/178634'
p3713
I4519
sS'talk.politics.misc/178635'
p3714
I4520
sS'talk.politics.misc/178742'
p3715
I4626
sS'talk.politics.misc/176880'
p3716
I4034
sS'sci.space/61558'
p3717
I1907
sS'sci.space/61559'
p3718
I1908
sS'sci.space/61556'
p3719
I1905
sS'sci.space/61557'
p3720
I1906
sS'sci.space/61554'
p3721
I1903
sS'sci.space/61555'
p3722
I1904
sS'sci.space/61552'
p3723
I1901
sS'sci.space/61553'
p3724
I1902
sS'sci.space/61550'
p3725
I1899
sS'sci.space/61551'
p3726
I1900
sS'sci.space/61426'
p3727
I1775
sS'sci.space/61427'
p3728
I1776
sS'sci.space/60939'
p3729
I1288
sS'sci.space/60938'
p3730
I1287
sS'sci.space/61422'
p3731
I1771
sS'sci.space/61423'
p3732
I1772
sS'sci.space/61420'
p3733
I1769
sS'sci.space/61421'
p3734
I1770
sS'sci.space/60933'
p3735
I1282
sS'sci.space/60932'
p3736
I1281
sS'sci.space/60931'
p3737
I1280
sS'sci.space/60930'
p3738
I1279
sS'sci.space/60937'
p3739
I1286
sS'sci.space/60936'
p3740
I1285
sS'sci.space/60935'
p3741
I1284
sS'sci.space/60934'
p3742
I1283
sS'talk.politics.misc/176920'
p3743
I4074
sS'comp.graphics/38714'
p3744
I3552
sS'talk.politics.misc/178744'
p3745
I4628
sS'comp.graphics/38994'
p3746
I3831
sS'comp.graphics/38418'
p3747
I3257
sS'comp.graphics/38713'
p3748
I3551
sS'talk.politics.misc/178355'
p3749
I4241
sS'sci.med/58149'
p3750
I2107
sS'comp.graphics/38712'
p3751
I3550
sS'sci.space/61505'
p3752
I1854
sS'talk.politics.misc/178847'
p3753
I4731
sS'sci.med/58148'
p3754
I2106
sS'comp.graphics/38711'
p3755
I3549
sS'sci.space/61504'
p3756
I1853
sS'comp.graphics/38592'
p3757
I3430
sS'comp.graphics/38991'
p3758
I3828
sS'comp.graphics/38659'
p3759
I3497
sS'sci.space/61507'
p3760
I1856
sS'talk.politics.misc/176925'
p3761
I4079
sS'sci.space/60201'
p3762
I1068
sS'sci.space/60200'
p3763
I1067
sS'sci.space/60203'
p3764
I1070
sS'sci.space/60202'
p3765
I1069
sS'sci.space/60205'
p3766
I1072
sS'sci.space/60204'
p3767
I1071
sS'sci.space/60207'
p3768
I1074
sS'sci.space/60206'
p3769
I1073
sS'sci.space/60209'
p3770
I1076
sS'sci.space/60208'
p3771
I1075
sS'sci.space/61330'
p3772
I1679
sS'sci.space/61331'
p3773
I1680
sS'sci.space/61336'
p3774
I1685
sS'sci.space/61337'
p3775
I1686
sS'sci.space/61334'
p3776
I1683
sS'sci.space/61335'
p3777
I1684
sS'rec.sport.hockey/53578'
p3778
I178
sS'rec.sport.hockey/53579'
p3779
I179
sS'comp.graphics/38851'
p3780
I3689
sS'comp.graphics/39668'
p3781
I3984
sS'rec.sport.hockey/53574'
p3782
I174
sS'rec.sport.hockey/53575'
p3783
I175
sS'rec.sport.hockey/53576'
p3784
I176
sS'rec.sport.hockey/53577'
p3785
I177
sS'rec.sport.hockey/53570'
p3786
I170
sS'rec.sport.hockey/53571'
p3787
I171
sS'rec.sport.hockey/53572'
p3788
I172
sS'rec.sport.hockey/53573'
p3789
I173
sS'sci.space/60847'
p3790
I1196
sS'sci.space/60846'
p3791
I1195
sS'sci.space/60845'
p3792
I1194
sS'sci.space/60844'
p3793
I1193
sS'sci.space/60843'
p3794
I1192
sS'sci.space/60842'
p3795
I1191
sS'sci.space/60841'
p3796
I1190
sS'sci.space/60840'
p3797
I1189
sS'comp.graphics/38718'
p3798
I3556
sS'sci.space/60849'
p3799
I1198
sS'sci.space/60848'
p3800
I1197
sS'sci.med/58815'
p3801
I2177
sS'sci.med/58814'
p3802
I2176
sS'sci.med/58817'
p3803
I2179
sS'sci.med/58816'
p3804
I2178
sS'sci.med/58811'
p3805
I2173
sS'sci.med/58810'
p3806
I2172
sS'sci.med/58813'
p3807
I2175
sS'sci.med/58812'
p3808
I2174
sS'talk.politics.misc/178756'
p3809
I4640
sS'sci.med/58819'
p3810
I2181
sS'sci.med/58818'
p3811
I2180
sS'talk.politics.misc/179035'
p3812
I4918
sS'sci.space/62374'
p3813
I1936
sS'talk.politics.misc/178840'
p3814
I4724
sS'talk.politics.misc/178695'
p3815
I4580
sS'comp.graphics/38720'
p3816
I3558
sS'talk.politics.misc/179037'
p3817
I4920
sS'comp.graphics/39667'
p3818
I3983
sS'comp.graphics/38593'
p3819
I3431
sS'talk.politics.misc/178843'
p3820
I4727
sS'talk.politics.misc/178636'
p3821
I4521
sS'rec.sport.hockey/54067'
p3822
I667
sS'rec.sport.hockey/54066'
p3823
I666
sS'rec.sport.hockey/54065'
p3824
I665
sS'rec.sport.hockey/54064'
p3825
I664
sS'rec.sport.hockey/54063'
p3826
I663
sS'rec.sport.hockey/54062'
p3827
I662
sS'rec.sport.hockey/54061'
p3828
I661
sS'rec.sport.hockey/54060'
p3829
I660
sS'sci.space/61278'
p3830
I1627
sS'rec.sport.hockey/54069'
p3831
I669
sS'rec.sport.hockey/54068'
p3832
I668
sS'sci.med/58921'
p3833
I2283
sS'sci.med/58920'
p3834
I2282
sS'sci.med/58923'
p3835
I2285
sS'sci.med/58922'
p3836
I2284
sS'sci.med/58925'
p3837
I2287
sS'sci.med/58924'
p3838
I2286
sS'sci.med/58927'
p3839
I2289
sS'sci.med/58926'
p3840
I2288
sS'sci.med/58929'
p3841
I2291
sS'sci.med/58928'
p3842
I2290
sS'talk.politics.misc/178697'
p3843
I4582
sS'sci.space/61275'
p3844
I1624
sS'talk.politics.misc/179076'
p3845
I4959
sS'talk.politics.misc/178781'
p3846
I4665
sS'sci.space/61274'
p3847
I1623
sS'rec.sport.hockey/54719'
p3848
I934
sS'rec.sport.hockey/54718'
p3849
I933
sS'rec.sport.hockey/54249'
p3850
I809
sS'rec.sport.hockey/54248'
p3851
I808
sS'rec.sport.hockey/54247'
p3852
I807
sS'rec.sport.hockey/54714'
p3853
I929
sS'rec.sport.hockey/54245'
p3854
I805
sS'rec.sport.hockey/54716'
p3855
I931
sS'rec.sport.hockey/54243'
p3856
I803
sS'rec.sport.hockey/54242'
p3857
I802
sS'rec.sport.hockey/54241'
p3858
I801
sS'rec.sport.hockey/54712'
p3859
I928
sS'talk.politics.misc/178665'
p3860
I4550
sS'sci.med/58066'
p3861
I2024
sS'talk.politics.misc/178924'
p3862
I4808
sS'comp.graphics/38453'
p3863
I3291
sS'rec.sport.hockey/53596'
p3864
I196
sS'rec.sport.hockey/53597'
p3865
I197
sS'rec.sport.hockey/53594'
p3866
I194
sS'rec.sport.hockey/53595'
p3867
I195
sS'rec.sport.hockey/53592'
p3868
I192
sS'rec.sport.hockey/53593'
p3869
I193
sS'rec.sport.hockey/53590'
p3870
I190
sS'rec.sport.hockey/53591'
p3871
I191
sS'sci.med/59115'
p3872
I2476
sS'comp.graphics/39636'
p3873
I3952
sS'comp.graphics/39635'
p3874
I3951
sS'comp.graphics/39634'
p3875
I3950
sS'comp.graphics/39633'
p3876
I3949
sS'comp.graphics/39632'
p3877
I3948
sS'rec.sport.hockey/53598'
p3878
I198
sS'rec.sport.hockey/53599'
p3879
I199
sS'rec.sport.hockey/53754'
p3880
I354
sS'rec.sport.hockey/53755'
p3881
I355
sS'rec.sport.hockey/53756'
p3882
I356
sS'rec.sport.hockey/53757'
p3883
I357
sS'rec.sport.hockey/53750'
p3884
I350
sS'rec.sport.hockey/53751'
p3885
I351
sS'rec.sport.hockey/53752'
p3886
I352
sS'rec.sport.hockey/53753'
p3887
I353
sS'rec.sport.hockey/53758'
p3888
I358
sS'rec.sport.hockey/53759'
p3889
I359
sS'sci.med/59229'
p3890
I2589
sS'sci.med/59228'
p3891
I2588
sS'sci.med/59264'
p3892
I2624
sS'talk.politics.misc/178883'
p3893
I4767
sS'sci.med/59634'
p3894
I2985
sS'sci.med/59635'
p3895
I2986
sS'sci.med/59632'
p3896
I2983
sS'sci.med/59633'
p3897
I2984
sS'rec.sport.hockey/53620'
p3898
I220
sS'rec.sport.hockey/53621'
p3899
I221
sS'rec.sport.hockey/53622'
p3900
I222
sS'rec.sport.hockey/52628'
p3901
I78
sS'rec.sport.hockey/53624'
p3902
I224
sS'rec.sport.hockey/53625'
p3903
I225
sS'rec.sport.hockey/53626'
p3904
I226
sS'rec.sport.hockey/53627'
p3905
I227
sS'rec.sport.hockey/53628'
p3906
I228
sS'rec.sport.hockey/53629'
p3907
I229
sS'rec.sport.hockey/52621'
p3908
I71
sS'rec.sport.hockey/52620'
p3909
I70
sS'rec.sport.hockey/52627'
p3910
I77
sS'rec.sport.hockey/52626'
p3911
I76
sS'rec.sport.hockey/52625'
p3912
I75
sS'rec.sport.hockey/52624'
p3913
I74
sS'sci.med/59148'
p3914
I2509
sS'talk.politics.misc/178343'
p3915
I4229
sS'sci.med/59149'
p3916
I2510
sS'talk.politics.misc/178974'
p3917
I4858
sS'comp.graphics/38900'
p3918
I3738
sS'talk.politics.misc/178953'
p3919
I4837
sS'talk.politics.misc/178952'
p3920
I4836
sS'talk.politics.misc/178951'
p3921
I4835
sS'comp.graphics/38901'
p3922
I3739
sS'talk.politics.misc/178957'
p3923
I4841
sS'talk.politics.misc/178956'
p3924
I4840
sS'talk.politics.misc/178955'
p3925
I4839
sS'talk.politics.misc/178954'
p3926
I4838
sS'comp.graphics/38906'
p3927
I3744
sS'comp.graphics/38739'
p3928
I3577
sS'talk.politics.misc/178958'
p3929
I4842
sS'comp.graphics/38907'
p3930
I3745
sS'rec.sport.hockey/53978'
p3931
I578
sS'rec.sport.hockey/53979'
p3932
I579
sS'sci.med/58141'
p3933
I2099
sS'sci.med/58140'
p3934
I2098
sS'sci.med/58147'
p3935
I2105
sS'sci.med/58146'
p3936
I2104
sS'sci.med/58145'
p3937
I2103
sS'sci.med/58144'
p3938
I2102
sS'rec.sport.hockey/53970'
p3939
I570
sS'rec.sport.hockey/53971'
p3940
I571
sS'rec.sport.hockey/53972'
p3941
I572
sS'rec.sport.hockey/53973'
p3942
I573
sS'rec.sport.hockey/53974'
p3943
I574
sS'rec.sport.hockey/53975'
p3944
I575
sS'rec.sport.hockey/53976'
p3945
I576
sS'rec.sport.hockey/53977'
p3946
I577
sS'talk.politics.misc/179099'
p3947
I4982
sS'comp.graphics/38348'
p3948
I3187
sS'comp.graphics/38349'
p3949
I3188
sS'talk.politics.misc/179098'
p3950
I4981
sS'comp.graphics/38344'
p3951
I3183
sS'comp.graphics/38345'
p3952
I3184
sS'comp.graphics/38346'
p3953
I3185
sS'comp.graphics/38347'
p3954
I3186
sS'comp.graphics/38340'
p3955
I3179
sS'comp.graphics/38341'
p3956
I3180
sS'comp.graphics/38342'
p3957
I3181
sS'comp.graphics/38343'
p3958
I3182
sS'talk.politics.misc/179081'
p3959
I4964
sS'comp.graphics/38681'
p3960
I3519
sS'sci.med/59140'
p3961
I2501
sS'sci.med/59141'
p3962
I2502
sS'sci.med/59142'
p3963
I2503
sS'sci.med/59143'
p3964
I2504
sS'sci.med/59144'
p3965
I2505
sS'sci.med/59145'
p3966
I2506
sS'rec.sport.hockey/52579'
p3967
I29
sS'rec.sport.hockey/52578'
p3968
I28
sS'rec.sport.hockey/52577'
p3969
I27
sS'rec.sport.hockey/52576'
p3970
I26
sS'rec.sport.hockey/52575'
p3971
I25
sS'rec.sport.hockey/52574'
p3972
I24
sS'rec.sport.hockey/52573'
p3973
I23
sS'rec.sport.hockey/52572'
p3974
I22
sS'rec.sport.hockey/52571'
p3975
I21
sS'rec.sport.hockey/52570'
p3976
I20
sS'talk.politics.misc/179091'
p3977
I4974
sS'comp.graphics/38680'
p3978
I3518
sS'talk.politics.misc/179090'
p3979
I4973
sS'comp.graphics/39050'
p3980
I3887
sS'comp.graphics/38644'
p3981
I3482
sS'talk.politics.misc/178557'
p3982
I4443
sS'talk.politics.misc/178556'
p3983
I4442
sS'talk.politics.misc/178555'
p3984
I4441
sS'talk.politics.misc/178554'
p3985
I4440
sS'sci.med/59631'
p3986
I2982
sS'talk.politics.misc/178552'
p3987
I4438
sS'talk.politics.misc/178551'
p3988
I4437
sS'talk.politics.misc/178550'
p3989
I4436
sS'talk.politics.misc/178559'
p3990
I4445
sS'talk.politics.misc/178558'
p3991
I4444
sS'talk.politics.misc/178827'
p3992
I4711
sS'comp.graphics/38683'
p3993
I3521
sS'talk.politics.misc/178825'
p3994
I4709
sS'talk.politics.misc/178824'
p3995
I4708
sS'talk.politics.misc/178823'
p3996
I4707
sS'talk.politics.misc/178822'
p3997
I4706
sS'talk.politics.misc/178821'
p3998
I4705
sS'talk.politics.misc/178820'
p3999
I4704
sS'comp.graphics/38963'
p4000
I3801
sS'sci.med/59262'
p4001
I2622
sS'talk.politics.misc/178829'
p4002
I4713
sS'talk.politics.misc/178828'
p4003
I4712
sS'sci.med/59038'
p4004
I2399
sS'sci.med/59039'
p4005
I2400
sS'sci.med/59034'
p4006
I2395
sS'sci.med/59035'
p4007
I2396
sS'sci.med/59036'
p4008
I2397
sS'sci.med/59037'
p4009
I2398
sS'sci.med/59030'
p4010
I2391
sS'sci.med/59031'
p4011
I2392
sS'sci.med/59032'
p4012
I2393
sS'sci.med/59033'
p4013
I2394
sS'sci.med/59522'
p4014
I2882
sS'sci.med/59523'
p4015
I2883
sS'sci.med/59520'
p4016
I2880
sS'rec.sport.hockey/53872'
p4017
I472
sS'sci.med/59526'
p4018
I2886
sS'sci.med/59527'
p4019
I2887
sS'sci.med/59524'
p4020
I2884
sS'sci.med/59525'
p4021
I2885
sS'talk.politics.misc/178553'
p4022
I4439
sS'sci.med/59528'
p4023
I2888
sS'sci.med/59529'
p4024
I2889
sS'comp.graphics/38790'
p4025
I3628
sS'comp.graphics/38849'
p4026
I3687
sS'comp.graphics/39672'
p4027
I3988
sS'talk.politics.misc/178534'
p4028
I4420
sS'talk.politics.misc/177009'
p4029
I4163
sS'talk.politics.misc/178922'
p4030
I4806
sS'talk.politics.misc/176869'
p4031
I4024
sS'talk.politics.misc/176868'
p4032
I4023
sS'talk.politics.misc/178739'
p4033
I4623
sS'talk.politics.misc/178738'
p4034
I4622
sS'comp.graphics/39666'
p4035
I3982
sS'talk.politics.misc/176861'
p4036
I4016
sS'sci.med/59636'
p4037
I2987
sS'talk.politics.misc/176863'
p4038
I4018
sS'talk.politics.misc/176862'
p4039
I4017
sS'talk.politics.misc/176865'
p4040
I4020
sS'talk.politics.misc/176864'
p4041
I4019
sS'talk.politics.misc/176867'
p4042
I4022
sS'talk.politics.misc/176866'
p4043
I4021
sS'sci.space/61189'
p4044
I1538
sS'sci.space/61188'
p4045
I1537
sS'talk.politics.misc/178403'
p4046
I4289
sS'sci.space/61181'
p4047
I1530
sS'sci.space/61180'
p4048
I1529
sS'sci.space/61183'
p4049
I1532
sS'sci.space/61182'
p4050
I1531
sS'sci.space/61185'
p4051
I1534
sS'sci.space/61184'
p4052
I1533
sS'sci.space/61187'
p4053
I1536
sS'sci.space/61186'
p4054
I1535
sS'talk.politics.misc/179001'
p4055
I4885
sS'sci.med/59458'
p4056
I2818
sS'sci.med/59459'
p4057
I2819
sS'sci.med/59456'
p4058
I2816
sS'sci.med/59457'
p4059
I2817
sS'sci.med/59454'
p4060
I2814
sS'sci.med/59455'
p4061
I2815
sS'sci.med/59452'
p4062
I2812
sS'sci.med/59453'
p4063
I2813
sS'sci.med/59450'
p4064
I2810
sS'sci.med/59451'
p4065
I2811
sS'talk.politics.misc/178609'
p4066
I4494
sS'talk.politics.misc/178608'
p4067
I4493
sS'talk.politics.misc/178607'
p4068
I4492
sS'talk.politics.misc/178606'
p4069
I4491
sS'sci.med/59369'
p4070
I2729
sS'talk.politics.misc/178604'
p4071
I4489
sS'talk.politics.misc/178603'
p4072
I4488
sS'talk.politics.misc/178538'
p4073
I4424
sS'talk.politics.misc/178601'
p4074
I4486
sS'talk.politics.misc/178600'
p4075
I4485
sS'sci.space/61529'
p4076
I1878
sS'sci.space/61528'
p4077
I1877
sS'comp.graphics/38560'
p4078
I3398
sS'sci.space/61523'
p4079
I1872
sS'sci.space/61522'
p4080
I1871
sS'sci.space/61521'
p4081
I1870
sS'sci.space/61520'
p4082
I1869
sS'sci.space/61527'
p4083
I1876
sS'sci.space/61526'
p4084
I1875
sS'sci.space/61525'
p4085
I1874
sS'sci.space/61524'
p4086
I1873
sS'sci.space/60928'
p4087
I1277
sS'sci.space/60929'
p4088
I1278
sS'sci.space/61451'
p4089
I1800
sS'sci.space/61450'
p4090
I1799
sS'sci.space/61457'
p4091
I1806
sS'sci.space/61456'
p4092
I1805
sS'sci.space/61455'
p4093
I1804
sS'sci.space/61454'
p4094
I1803
sS'sci.space/60920'
p4095
I1269
sS'sci.space/60921'
p4096
I1270
sS'sci.space/60922'
p4097
I1271
sS'sci.space/60923'
p4098
I1272
sS'sci.space/60924'
p4099
I1273
sS'sci.space/60925'
p4100
I1274
sS'sci.space/60926'
p4101
I1275
sS'sci.space/60927'
p4102
I1276
sS'talk.politics.misc/178416'
p4103
I4302
sS'comp.graphics/39656'
p4104
I3972
sS'talk.politics.misc/178830'
p4105
I4714
sS'talk.politics.misc/178417'
p4106
I4303
sS'comp.graphics/38730'
p4107
I3568
sS'sci.med/59368'
p4108
I2728
sS'comp.graphics/38845'
p4109
I3683
sS'comp.graphics/38594'
p4110
I3432
sS'talk.politics.misc/178414'
p4111
I4300
sS'comp.graphics/38789'
p4112
I3627
sS'sci.med/58987'
p4113
I2349
sS'talk.politics.misc/178415'
p4114
I4301
sS'talk.politics.misc/178930'
p4115
I4814
sS'comp.graphics/38689'
p4116
I3527
sS'sci.space/60218'
p4117
I1085
sS'sci.space/60219'
p4118
I1086
sS'sci.space/60216'
p4119
I1083
sS'sci.space/60217'
p4120
I1084
sS'sci.space/60214'
p4121
I1081
sS'sci.space/60215'
p4122
I1082
sS'sci.space/60212'
p4123
I1079
sS'sci.space/60213'
p4124
I1080
sS'sci.space/60210'
p4125
I1077
sS'sci.space/60211'
p4126
I1078
sS'comp.graphics/38784'
p4127
I3622
sS'talk.politics.misc/178831'
p4128
I4715
sS'sci.med/58984'
p4129
I2346
sS'talk.politics.misc/178410'
p4130
I4296
sS'sci.med/59638'
p4131
I2989
sS'comp.graphics/38785'
p4132
I3623
sS'comp.graphics/38844'
p4133
I3682
sS'sci.med/58983'
p4134
I2345
sS'talk.politics.misc/178411'
p4135
I4297
sS'comp.graphics/38786'
p4136
I3624
sS'sci.med/58982'
p4137
I2344
sS'rec.sport.hockey/53569'
p4138
I169
sS'rec.sport.hockey/53568'
p4139
I168
sS'comp.graphics/38487'
p4140
I3325
sS'sci.med/58981'
p4141
I2343
sS'talk.politics.misc/178535'
p4142
I4421
sS'rec.sport.hockey/53563'
p4143
I163
sS'rec.sport.hockey/53562'
p4144
I162
sS'rec.sport.hockey/53561'
p4145
I161
sS'rec.sport.hockey/53560'
p4146
I160
sS'rec.sport.hockey/53567'
p4147
I167
sS'rec.sport.hockey/53566'
p4148
I166
sS'rec.sport.hockey/53565'
p4149
I165
sS'rec.sport.hockey/53564'
p4150
I164
sS'sci.space/60854'
p4151
I1203
sS'sci.space/60855'
p4152
I1204
sS'sci.space/60856'
p4153
I1205
sS'sci.space/60857'
p4154
I1206
sS'sci.space/60850'
p4155
I1199
sS'sci.space/60851'
p4156
I1200
sS'sci.space/60852'
p4157
I1201
sS'sci.space/60853'
p4158
I1202
sS'comp.graphics/38783'
p4159
I3621
sS'sci.space/60858'
p4160
I1207
sS'sci.space/60859'
p4161
I1208
sS'sci.med/58806'
p4162
I2168
sS'sci.med/58807'
p4163
I2169
sS'sci.med/58804'
p4164
I2166
sS'sci.med/58805'
p4165
I2167
sS'sci.med/58802'
p4166
I2164
sS'sci.med/58803'
p4167
I2165
sS'sci.med/58800'
p4168
I2162
sS'sci.med/58801'
p4169
I2163
sS'talk.politics.misc/177005'
p4170
I4159
sS'comp.graphics/38629'
p4171
I3467
sS'sci.med/58808'
p4172
I2170
sS'sci.med/58809'
p4173
I2171
sS'comp.graphics/38735'
p4174
I3573
sS'comp.graphics/38628'
p4175
I3466
sS'comp.graphics/38842'
p4176
I3680
sS'sci.med/58989'
p4177
I2351
sS'sci.space/60103'
p4178
I1017
sS'sci.med/58823'
p4179
I2185
sS'comp.graphics/38255'
p4180
I3094
sS'talk.politics.misc/178834'
p4181
I4718
sS'comp.graphics/38316'
p4182
I3155
sS'talk.politics.misc/178478'
p4183
I4364
sS'comp.graphics/38734'
p4184
I3572
sS'comp.graphics/38841'
p4185
I3679
sS'comp.graphics/39619'
p4186
I3935
sS'rec.sport.hockey/54128'
p4187
I728
sS'rec.sport.hockey/54129'
p4188
I729
sS'rec.sport.hockey/54126'
p4189
I726
sS'rec.sport.hockey/54127'
p4190
I727
sS'rec.sport.hockey/54124'
p4191
I724
sS'rec.sport.hockey/54125'
p4192
I725
sS'rec.sport.hockey/54122'
p4193
I722
sS'rec.sport.hockey/54123'
p4194
I723
sS'rec.sport.hockey/54120'
p4195
I720
sS'rec.sport.hockey/54121'
p4196
I721
sS'rec.sport.hockey/54012'
p4197
I612
sS'rec.sport.hockey/54013'
p4198
I613
sS'rec.sport.hockey/54010'
p4199
I610
sS'rec.sport.hockey/54011'
p4200
I611
sS'rec.sport.hockey/54016'
p4201
I616
sS'rec.sport.hockey/54017'
p4202
I617
sS'rec.sport.hockey/54014'
p4203
I614
sS'rec.sport.hockey/54015'
p4204
I615
sS'rec.sport.hockey/54018'
p4205
I618
sS'rec.sport.hockey/54019'
p4206
I619
sS'talk.politics.misc/178479'
p4207
I4365
sS'comp.graphics/38737'
p4208
I3575
sS'sci.med/58932'
p4209
I2294
sS'sci.med/58933'
p4210
I2295
sS'sci.med/58930'
p4211
I2292
sS'sci.med/58931'
p4212
I2293
sS'sci.med/58936'
p4213
I2298
sS'sci.med/58937'
p4214
I2299
sS'sci.med/58934'
p4215
I2296
sS'sci.med/58935'
p4216
I2297
sS'sci.med/58938'
p4217
I2300
sS'sci.med/58939'
p4218
I2301
sS'comp.graphics/38831'
p4219
I3669
sS'rec.sport.hockey/54728'
p4220
I943
sS'rec.sport.hockey/54729'
p4221
I944
sS'rec.sport.hockey/54239'
p4222
I799
sS'sci.med/58111'
p4223
I2069
sS'rec.sport.hockey/54232'
p4224
I797
sS'rec.sport.hockey/54233'
p4225
I798
sS'rec.sport.hockey/54230'
p4226
I795
sS'rec.sport.hockey/54723'
p4227
I938
sS'rec.sport.hockey/54724'
p4228
I939
sS'rec.sport.hockey/54725'
p4229
I940
sS'rec.sport.hockey/54726'
p4230
I941
sS'rec.sport.hockey/54727'
p4231
I942
sS'sci.med/58113'
p4232
I2071
sS'sci.med/58114'
p4233
I2072
sS'comp.graphics/38482'
p4234
I3320
sS'talk.politics.misc/178530'
p4235
I4416
sS'sci.med/58115'
p4236
I2073
sS'rec.sport.hockey/53585'
p4237
I185
sS'rec.sport.hockey/53584'
p4238
I184
sS'rec.sport.hockey/53587'
p4239
I187
sS'rec.sport.hockey/53586'
p4240
I186
sS'rec.sport.hockey/53581'
p4241
I181
sS'rec.sport.hockey/53580'
p4242
I180
sS'rec.sport.hockey/53583'
p4243
I183
sS'rec.sport.hockey/53582'
p4244
I182
sS'comp.graphics/39624'
p4245
I3940
sS'comp.graphics/39625'
p4246
I3941
sS'comp.graphics/39626'
p4247
I3942
sS'sci.med/58117'
p4248
I2075
sS'rec.sport.hockey/53589'
p4249
I189
sS'rec.sport.hockey/53588'
p4250
I188
sS'comp.graphics/39622'
p4251
I3938
sS'comp.graphics/39623'
p4252
I3939
sS'rec.sport.hockey/53743'
p4253
I343
sS'rec.sport.hockey/53742'
p4254
I342
sS'rec.sport.hockey/53741'
p4255
I341
sS'rec.sport.hockey/53740'
p4256
I340
sS'rec.sport.hockey/53747'
p4257
I347
sS'rec.sport.hockey/53746'
p4258
I346
sS'rec.sport.hockey/53745'
p4259
I345
sS'rec.sport.hockey/53744'
p4260
I344
sS'comp.graphics/38481'
p4261
I3319
sS'comp.graphics/38752'
p4262
I3590
sS'rec.sport.hockey/53749'
p4263
I349
sS'rec.sport.hockey/53748'
p4264
I348
sS'comp.graphics/38757'
p4265
I3595
sS'comp.graphics/38756'
p4266
I3594
sS'comp.graphics/38755'
p4267
I3593
sS'comp.graphics/38754'
p4268
I3592
sS'sci.med/59625'
p4269
I2976
sS'talk.politics.misc/178302'
p4270
I4188
sS'talk.politics.misc/178303'
p4271
I4189
sS'comp.graphics/38672'
p4272
I3510
sS'comp.graphics/38673'
p4273
I3511
sS'talk.politics.misc/124146'
p4274
I4000
sS'talk.politics.misc/178327'
p4275
I4213
sS'sci.med/59624'
p4276
I2975
sS'sci.med/59220'
p4277
I2580
sS'comp.graphics/38934'
p4278
I3772
sS'rec.sport.hockey/53639'
p4279
I239
sS'rec.sport.hockey/53638'
p4280
I238
sS'rec.sport.hockey/53637'
p4281
I237
sS'rec.sport.hockey/53636'
p4282
I236
sS'rec.sport.hockey/53635'
p4283
I235
sS'rec.sport.hockey/53634'
p4284
I234
sS'rec.sport.hockey/53633'
p4285
I233
sS'rec.sport.hockey/53632'
p4286
I232
sS'rec.sport.hockey/53631'
p4287
I231
sS'rec.sport.hockey/53630'
p4288
I230
sS'talk.politics.misc/178817'
p4289
I4701
sS'sci.med/59627'
p4290
I2978
sS'talk.politics.misc/178308'
p4291
I4194
sS'talk.politics.misc/178944'
p4292
I4828
sS'comp.graphics/38318'
p4293
I3157
sS'talk.politics.misc/178946'
p4294
I4830
sS'talk.politics.misc/178309'
p4295
I4195
sS'talk.politics.misc/178940'
p4296
I4824
sS'talk.politics.misc/178941'
p4297
I4825
sS'sci.space/62429'
p4298
I1978
sS'sci.space/62428'
p4299
I1977
sS'sci.space/62427'
p4300
I1976
sS'sci.space/62426'
p4301
I1975
sS'sci.space/62425'
p4302
I1974
sS'sci.med/58150'
p4303
I2108
sS'sci.med/58151'
p4304
I2109
sS'sci.med/58152'
p4305
I2110
sS'sci.space/62420'
p4306
I1973
sS'talk.politics.misc/176894'
p4307
I4048
sS'talk.politics.misc/176895'
p4308
I4049
sS'talk.politics.misc/176896'
p4309
I4050
sS'talk.politics.misc/176897'
p4310
I4051
sS'talk.politics.misc/176890'
p4311
I4044
sS'talk.politics.misc/176891'
p4312
I4045
sS'talk.politics.misc/176892'
p4313
I4046
sS'talk.politics.misc/176893'
p4314
I4047
sS'sci.med/59626'
p4315
I2977
sS'talk.politics.misc/176898'
p4316
I4052
sS'talk.politics.misc/176899'
p4317
I4053
sS'talk.politics.misc/178774'
p4318
I4658
sS'comp.graphics/38573'
p4319
I3411
sS'comp.graphics/38572'
p4320
I3410
sS'comp.graphics/38571'
p4321
I3409
sS'comp.graphics/38570'
p4322
I3408
sS'comp.graphics/38577'
p4323
I3415
sS'sci.med/57110'
p4324
I2000
sS'comp.graphics/38575'
p4325
I3413
sS'comp.graphics/38574'
p4326
I3412
sS'comp.graphics/38441'
p4327
I3279
sS'comp.graphics/38579'
p4328
I3417
sS'comp.graphics/38578'
p4329
I3416
sS'talk.politics.misc/177004'
p4330
I4158
sS'rec.sport.hockey/54900'
p4331
I998
sS'comp.graphics/38370'
p4332
I3209
sS'comp.graphics/38373'
p4333
I3212
sS'comp.graphics/38372'
p4334
I3211
sS'comp.graphics/38375'
p4335
I3214
sS'comp.graphics/38374'
p4336
I3213
sS'comp.graphics/38377'
p4337
I3216
sS'comp.graphics/38376'
p4338
I3215
sS'sci.med/59621'
p4339
I2972
sS'comp.graphics/38378'
p4340
I3217
sS'sci.med/59603'
p4341
I2963
sS'rec.sport.hockey/53606'
p4342
I206
sS'sci.med/59601'
p4343
I2961
sS'sci.med/59600'
p4344
I2960
sS'sci.med/59606'
p4345
I2966
sS'sci.med/59605'
p4346
I2965
sS'rec.sport.hockey/52600'
p4347
I50
sS'comp.graphics/38977'
p4348
I3814
sS'comp.graphics/38976'
p4349
I3813
sS'comp.graphics/38975'
p4350
I3812
sS'talk.politics.misc/178833'
p4351
I4717
sS'comp.graphics/38973'
p4352
I3811
sS'rec.sport.hockey/52603'
p4353
I53
sS'comp.graphics/38971'
p4354
I3809
sS'comp.graphics/38970'
p4355
I3808
sS'talk.politics.misc/178733'
p4356
I4617
sS'rec.sport.hockey/52602'
p4357
I52
sS'sci.med/59620'
p4358
I2971
sS'talk.politics.misc/176860'
p4359
I4015
sS'comp.graphics/38838'
p4360
I3676
sS'rec.sport.hockey/52605'
p4361
I55
sS'talk.politics.misc/178731'
p4362
I4615
sS'rec.sport.hockey/52604'
p4363
I54
sS'rec.sport.hockey/53967'
p4364
I567
sS'rec.sport.hockey/53966'
p4365
I566
sS'rec.sport.hockey/53965'
p4366
I565
sS'rec.sport.hockey/53964'
p4367
I564
sS'rec.sport.hockey/53963'
p4368
I563
sS'rec.sport.hockey/53962'
p4369
I562
sS'rec.sport.hockey/53961'
p4370
I561
sS'rec.sport.hockey/53960'
p4371
I560
sS'comp.graphics/37914'
p4372
I3002
sS'comp.graphics/37915'
p4373
I3003
sS'comp.graphics/37916'
p4374
I3004
sS'rec.sport.hockey/52606'
p4375
I56
sS'rec.sport.hockey/53969'
p4376
I569
sS'rec.sport.hockey/53968'
p4377
I568
sS'talk.politics.misc/178548'
p4378
I4434
sS'comp.graphics/39008'
p4379
I3845
sS'sci.med/59623'
p4380
I2974
sS'talk.politics.misc/178735'
p4381
I4619
sS'comp.graphics/38839'
p4382
I3677
sS'comp.graphics/39009'
p4383
I3846
sS'talk.politics.misc/178540'
p4384
I4426
sS'talk.politics.misc/178541'
p4385
I4427
sS'talk.politics.misc/178542'
p4386
I4428
sS'talk.politics.misc/178543'
p4387
I4429
sS'talk.politics.misc/178544'
p4388
I4430
sS'comp.graphics/38535'
p4389
I3373
sS'talk.politics.misc/178546'
p4390
I4432
sS'talk.politics.misc/178547'
p4391
I4433
sS'sci.med/59049'
p4392
I2410
sS'sci.med/59048'
p4393
I2409
sS'comp.graphics/38801'
p4394
I3639
sS'comp.graphics/38800'
p4395
I3638
sS'comp.graphics/38807'
p4396
I3645
sS'comp.graphics/38806'
p4397
I3644
sS'sci.med/59519'
p4398
I2879
sS'sci.med/59518'
p4399
I2878
sS'sci.med/59041'
p4400
I2402
sS'sci.med/59040'
p4401
I2401
sS'sci.med/59043'
p4402
I2404
sS'sci.med/59042'
p4403
I2403
sS'sci.med/59045'
p4404
I2406
sS'sci.med/59044'
p4405
I2405
sS'sci.med/59047'
p4406
I2408
sS'sci.med/59046'
p4407
I2407
sS'sci.med/59622'
p4408
I2973
sS'sci.med/59289'
p4409
I2649
sS'sci.med/59288'
p4410
I2648
sS'sci.med/59287'
p4411
I2647
sS'sci.med/59286'
p4412
I2646
sS'sci.med/59285'
p4413
I2645
sS'sci.med/59284'
p4414
I2644
sS'sci.med/59283'
p4415
I2643
sS'sci.med/59282'
p4416
I2642
sS'sci.med/59281'
p4417
I2641
sS'sci.med/59280'
p4418
I2640
sS'talk.politics.misc/178549'
p4419
I4435
sS'talk.politics.misc/179011'
p4420
I4894
sS'talk.politics.misc/178674'
p4421
I4559
sS'comp.graphics/38437'
p4422
I3275
sS'talk.politics.misc/176921'
p4423
I4075
sS'comp.graphics/39041'
p4424
I3878
sS'sci.med/58910'
p4425
I2272
sS'talk.politics.misc/176878'
p4426
I4033
sS'talk.politics.misc/178728'
p4427
I4612
sS'talk.politics.misc/178729'
p4428
I4613
sS'talk.politics.misc/176872'
p4429
I4027
sS'talk.politics.misc/176873'
p4430
I4028
sS'talk.politics.misc/176870'
p4431
I4025
sS'talk.politics.misc/176871'
p4432
I4026
sS'talk.politics.misc/176876'
p4433
I4031
sS'talk.politics.misc/176877'
p4434
I4032
sS'talk.politics.misc/176874'
p4435
I4029
sS'talk.politics.misc/176875'
p4436
I4030
sS'sci.space/61196'
p4437
I1545
sS'sci.space/61197'
p4438
I1546
sS'sci.space/61194'
p4439
I1543
sS'sci.space/61195'
p4440
I1544
sS'sci.space/61192'
p4441
I1541
sS'sci.space/61193'
p4442
I1542
sS'sci.space/61190'
p4443
I1539
sS'sci.space/61191'
p4444
I1540
sS'sci.med/59290'
p4445
I2650
sS'sci.space/62129'
p4446
I1928
sS'comp.graphics/39677'
p4447
I3993
sS'sci.space/61198'
p4448
I1547
sS'sci.space/61199'
p4449
I1548
sS'talk.politics.misc/178961'
p4450
I4845
sS'sci.med/59469'
p4451
I2829
sS'sci.med/59468'
p4452
I2828
sS'talk.politics.misc/179009'
p4453
I4893
sS'sci.med/59463'
p4454
I2823
sS'sci.med/59462'
p4455
I2822
sS'sci.med/59461'
p4456
I2821
sS'sci.med/59460'
p4457
I2820
sS'sci.med/59467'
p4458
I2827
sS'sci.med/59466'
p4459
I2826
sS'sci.med/59465'
p4460
I2825
sS'sci.med/59464'
p4461
I2824
sS'talk.politics.misc/178610'
p4462
I4495
sS'talk.politics.misc/178611'
p4463
I4496
sS'sci.med/59199'
p4464
I2559
sS'sci.med/59198'
p4465
I2558
sS'talk.politics.misc/178614'
p4466
I4499
sS'talk.politics.misc/178615'
p4467
I4500
sS'talk.politics.misc/178616'
p4468
I4501
sS'talk.politics.misc/178617'
p4469
I4502
sS'sci.med/59193'
p4470
I2553
sS'sci.med/59192'
p4471
I2552
sS'sci.med/59191'
p4472
I2551
sS'sci.med/59190'
p4473
I2550
sS'sci.med/59197'
p4474
I2557
sS'sci.med/58912'
p4475
I2274
sS'sci.med/59195'
p4476
I2555
sS'sci.med/59194'
p4477
I2554
sS'sci.space/61538'
p4478
I1887
sS'sci.space/61539'
p4479
I1888
sS'sci.med/59352'
p4480
I2712
sS'sci.med/58911'
p4481
I2273
sS'sci.space/61530'
p4482
I1879
sS'sci.space/61531'
p4483
I1880
sS'sci.space/61532'
p4484
I1881
sS'sci.space/61533'
p4485
I1882
sS'sci.space/61534'
p4486
I1883
sS'sci.space/61535'
p4487
I1884
sS'sci.space/61536'
p4488
I1885
sS'sci.space/61537'
p4489
I1886
sS'sci.space/60915'
p4490
I1264
sS'sci.space/60914'
p4491
I1263
sS'sci.space/60917'
p4492
I1266
sS'sci.space/60916'
p4493
I1265
sS'sci.space/60911'
p4494
I1260
sS'sci.space/60910'
p4495
I1259
sS'sci.space/60913'
p4496
I1262
sS'sci.space/60912'
p4497
I1261
sS'sci.space/61448'
p4498
I1797
sS'sci.space/61449'
p4499
I1798
sS'sci.med/58913'
p4500
I2275
sS'sci.space/60919'
p4501
I1268
sS'sci.space/60918'
p4502
I1267
sS'talk.politics.misc/178407'
p4503
I4293
sS'sci.med/58915'
p4504
I2277
sS'talk.politics.misc/176901'
p4505
I4055
sS'sci.med/58916'
p4506
I2278
sS'talk.politics.misc/178870'
p4507
I4754
sS'comp.graphics/38449'
p4508
I3287
sS'sci.med/58917'
p4509
I2279
sS'talk.politics.misc/179015'
p4510
I4898
sS'talk.politics.misc/178871'
p4511
I4755
sS'rec.sport.hockey/53538'
p4512
I138
sS'talk.politics.misc/178872'
p4513
I4756
sS'rec.sport.hockey/53539'
p4514
I139
sS'sci.med/58914'
p4515
I2276
sS'comp.graphics/38833'
p4516
I3671
sS'talk.politics.misc/178873'
p4517
I4757
sS'comp.graphics/38448'
p4518
I3286
sS'talk.politics.misc/179014'
p4519
I4897
sS'comp.graphics/38233'
p4520
I3072
sS'talk.politics.misc/178514'
p4521
I4400
sS'talk.politics.misc/178976'
p4522
I4860
sS'comp.graphics/38830'
p4523
I3668
sS'talk.politics.misc/178970'
p4524
I4854
sS'sci.space/60861'
p4525
I1210
sS'sci.space/60860'
p4526
I1209
sS'sci.space/60863'
p4527
I1212
sS'sci.space/60862'
p4528
I1211
sS'sci.space/60865'
p4529
I1214
sS'sci.space/60864'
p4530
I1213
sS'sci.space/60867'
p4531
I1216
sS'sci.space/60866'
p4532
I1215
sS'sci.space/60869'
p4533
I1218
sS'sci.space/60868'
p4534
I1217
sS'talk.politics.misc/178972'
p4535
I4856
sS'comp.graphics/38678'
p4536
I3516
sS'sci.med/58833'
p4537
I2195
sS'sci.med/58832'
p4538
I2194
sS'sci.med/58831'
p4539
I2193
sS'sci.med/58830'
p4540
I2192
sS'sci.med/58837'
p4541
I2199
sS'sci.med/58836'
p4542
I2198
sS'sci.med/58835'
p4543
I2197
sS'sci.med/58834'
p4544
I2196
sS'comp.graphics/38301'
p4545
I3140
sS'sci.space/61332'
p4546
I1681
sS'sci.med/58838'
p4547
I2200
sS'talk.politics.misc/178740'
p4548
I4624
sS'talk.politics.misc/177020'
p4549
I4174
sS'rec.sport.hockey/53536'
p4550
I136
sS'talk.politics.misc/179016'
p4551
I4899
sS'rec.sport.hockey/53537'
p4552
I137
sS'talk.politics.misc/178605'
p4553
I4490
sS'comp.graphics/38836'
p4554
I3674
sS'comp.graphics/38675'
p4555
I3513
sS'comp.graphics/38666'
p4556
I3504
sS'talk.politics.misc/178602'
p4557
I4487
sS'rec.sport.hockey/54139'
p4558
I739
sS'rec.sport.hockey/54138'
p4559
I738
sS'talk.politics.misc/179019'
p4560
I4902
sS'rec.sport.hockey/54135'
p4561
I735
sS'rec.sport.hockey/54134'
p4562
I734
sS'rec.sport.hockey/54137'
p4563
I737
sS'rec.sport.hockey/54136'
p4564
I736
sS'rec.sport.hockey/54131'
p4565
I731
sS'rec.sport.hockey/54130'
p4566
I730
sS'rec.sport.hockey/54133'
p4567
I733
sS'rec.sport.hockey/54132'
p4568
I732
sS'rec.sport.hockey/54001'
p4569
I601
sS'rec.sport.hockey/54000'
p4570
I600
sS'rec.sport.hockey/54003'
p4571
I603
sS'rec.sport.hockey/54002'
p4572
I602
sS'rec.sport.hockey/54005'
p4573
I605
sS'rec.sport.hockey/54004'
p4574
I604
sS'rec.sport.hockey/54007'
p4575
I607
sS'rec.sport.hockey/54006'
p4576
I606
sS'rec.sport.hockey/54009'
p4577
I609
sS'rec.sport.hockey/54008'
p4578
I608
sS'sci.med/58905'
p4579
I2267
sS'sci.med/58904'
p4580
I2266
sS'sci.med/58903'
p4581
I2265
sS'sci.med/58902'
p4582
I2264
sS'sci.med/58901'
p4583
I2263
sS'sci.med/58900'
p4584
I2262
sS'talk.politics.misc/176883'
p4585
I4037
sS'talk.politics.misc/178914'
p4586
I4798
sS'comp.graphics/38576'
p4587
I3414
sS'comp.graphics/39500'
p4588
I3931
sS'rec.sport.hockey/54229'
p4589
I794
sS'rec.sport.hockey/54228'
p4590
I793
sS'comp.graphics/38588'
p4591
I3426
sS'comp.graphics/38589'
p4592
I3427
sS'rec.sport.hockey/54221'
p4593
I786
sS'rec.sport.hockey/54220'
p4594
I785
sS'rec.sport.hockey/54223'
p4595
I788
sS'rec.sport.hockey/54222'
p4596
I787
sS'rec.sport.hockey/54225'
p4597
I790
sS'rec.sport.hockey/54224'
p4598
I789
sS'rec.sport.hockey/54227'
p4599
I792
sS'rec.sport.hockey/54226'
p4600
I791
sS'rec.sport.hockey/54737'
p4601
I952
sS'rec.sport.hockey/54736'
p4602
I951
sS'rec.sport.hockey/54735'
p4603
I950
sS'rec.sport.hockey/54734'
p4604
I949
sS'rec.sport.hockey/54733'
p4605
I948
sS'rec.sport.hockey/54732'
p4606
I947
sS'rec.sport.hockey/54731'
p4607
I946
sS'rec.sport.hockey/54730'
p4608
I945
sS'rec.sport.hockey/54739'
p4609
I954
sS'rec.sport.hockey/54738'
p4610
I953
sS'talk.politics.misc/177011'
p4611
I4165
sS'talk.politics.misc/176881'
p4612
I4035
sS'talk.politics.misc/178894'
p4613
I4778
sS'comp.graphics/38748'
p4614
I3586
sS'comp.graphics/38749'
p4615
I3587
sS'comp.graphics/38679'
p4616
I3517
sS'sci.space/61333'
p4617
I1682
sS'comp.graphics/38218'
p4618
I3057
sS'comp.graphics/38219'
p4619
I3058
sS'comp.graphics/38216'
p4620
I3055
sS'comp.graphics/38217'
p4621
I3056
sS'comp.graphics/38214'
p4622
I3053
sS'comp.graphics/38215'
p4623
I3054
sS'comp.graphics/38688'
p4624
I3526
sS'sci.med/59630'
p4625
I2981
sS'comp.graphics/38746'
p4626
I3584
sS'comp.graphics/38747'
p4627
I3585
sS'sci.space/61453'
p4628
I1802
sS'comp.graphics/38321'
p4629
I3160
sS'talk.politics.misc/178649'
p4630
I4534
sS'sci.space/61452'
p4631
I1801
sS'rec.sport.hockey/54359'
p4632
I857
sS'rec.sport.hockey/54358'
p4633
I856
sS'rec.sport.hockey/53648'
p4634
I248
sS'rec.sport.hockey/53649'
p4635
I249
sS'talk.politics.misc/178747'
p4636
I4631
sS'rec.sport.hockey/53642'
p4637
I242
sS'rec.sport.hockey/53643'
p4638
I243
sS'rec.sport.hockey/53640'
p4639
I240
sS'rec.sport.hockey/53641'
p4640
I241
sS'rec.sport.hockey/53646'
p4641
I246
sS'rec.sport.hockey/53647'
p4642
I247
sS'rec.sport.hockey/53644'
p4643
I244
sS'rec.sport.hockey/53645'
p4644
I245
sS'talk.politics.misc/178983'
p4645
I4867
sS'comp.graphics/38699'
p4646
I3537
sS'talk.politics.misc/179059'
p4647
I4942
sS'sci.space/61459'
p4648
I1808
sS'sci.med/59639'
p4649
I2990
sS'talk.politics.misc/178501'
p4650
I4387
sS'sci.med/58129'
p4651
I2087
sS'sci.med/58128'
p4652
I2086
sS'comp.graphics/38902'
p4653
I3740
sS'sci.space/61458'
p4654
I1807
sS'talk.politics.misc/176886'
p4655
I4040
sS'sci.med/58121'
p4656
I2079
sS'sci.med/58120'
p4657
I2078
sS'sci.med/58123'
p4658
I2081
sS'sci.med/58122'
p4659
I2080
sS'sci.med/58125'
p4660
I2083
sS'sci.med/58124'
p4661
I2082
sS'sci.med/58127'
p4662
I2085
sS'sci.med/58126'
p4663
I2084
sS'talk.politics.misc/178737'
p4664
I4621
sS'talk.politics.misc/179054'
p4665
I4937
sS'sci.med/59504'
p4666
I2864
sS'comp.graphics/38561'
p4667
I3399
sS'comp.graphics/38562'
p4668
I3400
sS'comp.graphics/38563'
p4669
I3401
sS'comp.graphics/38564'
p4670
I3402
sS'comp.graphics/38565'
p4671
I3403
sS'comp.graphics/38566'
p4672
I3404
sS'comp.graphics/38567'
p4673
I3405
sS'comp.graphics/38568'
p4674
I3406
sS'comp.graphics/38569'
p4675
I3407
sS'talk.politics.misc/179050'
p4676
I4933
sS'comp.graphics/38366'
p4677
I3205
sS'comp.graphics/38367'
p4678
I3206
sS'comp.graphics/38364'
p4679
I3203
sS'comp.graphics/38365'
p4680
I3204
sS'comp.graphics/38362'
p4681
I3201
sS'comp.graphics/38363'
p4682
I3202
sS'comp.graphics/38360'
p4683
I3199
sS'comp.graphics/38361'
p4684
I3200
sS'talk.politics.misc/179100'
p4685
I4983
sS'sci.med/59505'
p4686
I2865
sS'comp.graphics/38369'
p4687
I3208
sS'comp.graphics/38920'
p4688
I3758
sS'talk.politics.misc/176884'
p4689
I4038
sS'comp.graphics/38968'
p4690
I3806
sS'comp.graphics/38969'
p4691
I3807
sS'comp.graphics/38813'
p4692
I3651
sS'comp.graphics/38964'
p4693
I3802
sS'comp.graphics/38965'
p4694
I3803
sS'comp.graphics/38966'
p4695
I3804
sS'comp.graphics/38967'
p4696
I3805
sS'comp.graphics/38960'
p4697
I3798
sS'sci.med/59168'
p4698
I2529
sS'comp.graphics/38962'
p4699
I3800
sS'comp.graphics/38412'
p4700
I3251
sS'sci.med/59169'
p4701
I2530
sS'rec.sport.hockey/53828'
p4702
I428
sS'rec.sport.hockey/53829'
p4703
I429
sS'rec.sport.hockey/53826'
p4704
I426
sS'rec.sport.hockey/53827'
p4705
I427
sS'rec.sport.hockey/53824'
p4706
I424
sS'rec.sport.hockey/53825'
p4707
I425
sS'rec.sport.hockey/53822'
p4708
I422
sS'rec.sport.hockey/53823'
p4709
I423
sS'rec.sport.hockey/53820'
p4710
I420
sS'rec.sport.hockey/53821'
p4711
I421
sS'rec.sport.hockey/53912'
p4712
I512
sS'rec.sport.hockey/53913'
p4713
I513
sS'rec.sport.hockey/53910'
p4714
I510
sS'rec.sport.hockey/53911'
p4715
I511
sS'rec.sport.hockey/53916'
p4716
I516
sS'rec.sport.hockey/53917'
p4717
I517
sS'rec.sport.hockey/53914'
p4718
I514
sS'rec.sport.hockey/53915'
p4719
I515
sS'rec.sport.hockey/53918'
p4720
I518
sS'rec.sport.hockey/53919'
p4721
I519
sS'comp.graphics/39639'
p4722
I3955
sS'comp.graphics/37921'
p4723
I3009
sS'comp.graphics/37920'
p4724
I3008
sS'comp.graphics/37923'
p4725
I3011
sS'comp.graphics/37922'
p4726
I3010
sS'comp.graphics/37925'
p4727
I3013
sS'comp.graphics/37924'
p4728
I3012
sS'comp.graphics/37927'
p4729
I3015
sS'comp.graphics/37926'
p4730
I3014
sS'comp.graphics/37929'
p4731
I3017
sS'comp.graphics/37928'
p4732
I3016
sS'talk.politics.misc/178537'
p4733
I4423
sS'talk.politics.misc/178536'
p4734
I4422
sS'talk.politics.misc/178531'
p4735
I4417
sS'sci.med/58062'
p4736
I2020
sS'talk.politics.misc/176952'
p4737
I4106
sS'talk.politics.misc/178532'
p4738
I4418
sS'sci.med/59508'
p4739
I2868
sS'sci.med/59509'
p4740
I2869
sS'sci.med/59058'
p4741
I2419
sS'sci.med/58063'
p4742
I2021
sS'comp.graphics/38716'
p4743
I3554
sS'comp.graphics/38815'
p4744
I3653
sS'comp.graphics/38816'
p4745
I3654
sS'comp.graphics/38817'
p4746
I3655
sS'sci.med/59052'
p4747
I2413
sS'sci.med/59053'
p4748
I2414
sS'sci.med/59050'
p4749
I2411
sS'sci.med/59051'
p4750
I2412
sS'sci.med/59056'
p4751
I2417
sS'sci.med/59057'
p4752
I2418
sS'sci.med/59054'
p4753
I2415
sS'sci.med/59055'
p4754
I2416
sS'sci.med/58051'
p4755
I2009
sS'sci.med/58050'
p4756
I2008
sS'sci.med/58053'
p4757
I2011
sS'sci.med/58052'
p4758
I2010
sS'sci.med/58055'
p4759
I2013
sS'sci.med/58054'
p4760
I2012
sS'sci.med/58057'
p4761
I2015
sS'sci.med/58056'
p4762
I2014
sS'sci.med/58059'
p4763
I2017
sS'sci.med/58058'
p4764
I2016
sS'sci.med/59292'
p4765
I2652
sS'sci.med/59293'
p4766
I2653
sS'sci.med/59294'
p4767
I2654
sS'sci.med/59295'
p4768
I2655
sS'sci.med/59296'
p4769
I2656
sS'sci.med/59297'
p4770
I2657
sS'talk.politics.misc/178441'
p4771
I4327
sS'talk.politics.misc/178440'
p4772
I4326
sS'comp.graphics/38715'
p4773
I3553
sS'talk.politics.misc/178442'
p4774
I4328
sS'comp.graphics/38826'
p4775
I3664
sS'talk.politics.misc/178444'
p4776
I4330
sS'talk.politics.misc/178447'
p4777
I4333
sS'talk.politics.misc/178446'
p4778
I4332
sS'talk.politics.misc/178449'
p4779
I4335
sS'talk.politics.misc/176970'
p4780
I4124
sS'talk.politics.misc/178995'
p4781
I4879
sS'talk.politics.misc/178994'
p4782
I4878
sS'talk.politics.misc/178993'
p4783
I4877
sS'talk.politics.misc/178992'
p4784
I4876
sS'talk.politics.misc/178732'
p4785
I4616
sS'comp.graphics/38770'
p4786
I3608
sS'sci.med/59619'
p4787
I2970
sS'comp.graphics/38904'
p4788
I3742
sS'talk.politics.misc/176847'
p4789
I4003
sS'sci.med/59615'
p4790
I2967
sS'sci.med/59616'
p4791
I2968
sS'sci.med/59617'
p4792
I2969
sS'rec.sport.hockey/52589'
p4793
I39
sS'comp.graphics/38821'
p4794
I3659
sS'comp.graphics/38486'
p4795
I3324
sS'sci.med/59474'
p4796
I2834
sS'sci.space/59846'
p4797
I1001
sS'sci.med/59476'
p4798
I2836
sS'sci.med/59477'
p4799
I2837
sS'sci.med/59470'
p4800
I2830
sS'sci.med/59471'
p4801
I2831
sS'sci.med/59472'
p4802
I2832
sS'sci.med/59473'
p4803
I2833
sS'comp.graphics/38483'
p4804
I3321
sS'sci.med/59478'
p4805
I2838
sS'sci.med/59479'
p4806
I2839
sS'sci.space/59849'
p4807
I1003
sS'sci.space/59848'
p4808
I1002
sS'sci.space/61295'
p4809
I1644
sS'sci.space/61294'
p4810
I1643
sS'sci.space/61297'
p4811
I1646
sS'sci.space/61296'
p4812
I1645
sS'sci.space/61291'
p4813
I1640
sS'sci.space/61290'
p4814
I1639
sS'sci.space/61293'
p4815
I1642
sS'sci.space/61292'
p4816
I1641
sS'comp.graphics/38480'
p4817
I3318
sS'sci.space/61299'
p4818
I1648
sS'sci.space/61298'
p4819
I1647
sS'talk.politics.misc/178488'
p4820
I4374
sS'sci.space/61057'
p4821
I1406
sS'sci.space/61056'
p4822
I1405
sS'sci.space/61055'
p4823
I1404
sS'sci.space/61054'
p4824
I1403
sS'sci.space/61053'
p4825
I1402
sS'sci.space/61052'
p4826
I1401
sS'sci.space/61051'
p4827
I1400
sS'sci.space/61050'
p4828
I1399
sS'sci.space/61509'
p4829
I1858
sS'sci.space/61508'
p4830
I1857
sS'sci.space/61059'
p4831
I1408
sS'sci.space/61058'
p4832
I1407
sS'sci.space/60902'
p4833
I1251
sS'sci.space/60903'
p4834
I1252
sS'sci.space/60900'
p4835
I1249
sS'sci.space/60901'
p4836
I1250
sS'sci.space/60906'
p4837
I1255
sS'sci.space/60907'
p4838
I1256
sS'sci.space/60904'
p4839
I1253
sS'sci.space/60905'
p4840
I1254
sS'sci.space/61277'
p4841
I1626
sS'sci.space/61276'
p4842
I1625
sS'sci.space/60908'
p4843
I1257
sS'sci.space/60909'
p4844
I1258
sS'sci.space/61273'
p4845
I1622
sS'sci.space/61272'
p4846
I1621
sS'sci.space/61271'
p4847
I1620
sS'sci.space/61270'
p4848
I1619
sS'talk.politics.misc/178575'
p4849
I4461
sS'comp.graphics/38488'
p4850
I3326
sS'talk.politics.misc/178985'
p4851
I4869
sS'talk.politics.misc/178574'
p4852
I4460
sS'talk.politics.misc/178577'
p4853
I4463
sS'sci.med/59226'
p4854
I2586
sS'talk.politics.misc/178576'
p4855
I4462
sS'comp.graphics/38710'
p4856
I3548
sS'talk.politics.misc/178701'
p4857
I4586
sS'talk.politics.misc/179112'
p4858
I4995
sS'sci.space/60878'
p4859
I1227
sS'sci.space/60879'
p4860
I1228
sS'sci.space/60876'
p4861
I1225
sS'sci.space/60877'
p4862
I1226
sS'sci.space/60874'
p4863
I1223
sS'sci.space/60875'
p4864
I1224
sS'sci.space/60872'
p4865
I1221
sS'sci.space/60873'
p4866
I1222
sS'sci.space/60870'
p4867
I1219
sS'sci.space/60871'
p4868
I1220
sS'sci.med/58828'
p4869
I2190
sS'sci.med/58829'
p4870
I2191
sS'sci.med/58824'
p4871
I2186
sS'sci.med/58825'
p4872
I2187
sS'sci.med/58826'
p4873
I2188
sS'sci.med/58827'
p4874
I2189
sS'sci.med/58820'
p4875
I2182
sS'sci.med/58821'
p4876
I2183
sS'sci.med/58822'
p4877
I2184
sS'rec.sport.hockey/52607'
p4878
I57
sS'talk.politics.misc/178373'
p4879
I4259
sS'sci.med/59646'
p4880
I2997
sS'talk.politics.misc/178859'
p4881
I4743
sS'talk.politics.misc/178803'
p4882
I4687
sS'talk.politics.misc/177002'
p4883
I4156
sS'talk.politics.misc/178354'
p4884
I4240
sS'talk.politics.misc/178432'
p4885
I4318
sS'sci.space/61479'
p4886
I1828
sS'sci.space/61478'
p4887
I1827
sS'sci.space/61475'
p4888
I1824
sS'sci.space/61474'
p4889
I1823
sS'sci.space/61477'
p4890
I1826
sS'sci.space/61476'
p4891
I1825
sS'sci.space/61471'
p4892
I1820
sS'sci.space/61470'
p4893
I1819
sS'sci.space/61473'
p4894
I1822
sS'sci.space/61472'
p4895
I1821
sS'comp.graphics/38915'
p4896
I3753
sS'comp.graphics/38278'
p4897
I3117
sS'talk.politics.misc/176845'
p4898
I4001
sS'comp.graphics/38279'
p4899
I3118
sS'sci.med/59640'
p4900
I2991
sS'comp.graphics/39671'
p4901
I3987
sS'rec.sport.hockey/54108'
p4902
I708
sS'rec.sport.hockey/54109'
p4903
I709
sS'comp.graphics/39670'
p4904
I3986
sS'sci.med/59421'
p4905
I2781
sS'talk.politics.misc/178808'
p4906
I4692
sS'rec.sport.hockey/54100'
p4907
I700
sS'rec.sport.hockey/54101'
p4908
I701
sS'rec.sport.hockey/54102'
p4909
I702
sS'rec.sport.hockey/54103'
p4910
I703
sS'rec.sport.hockey/54104'
p4911
I704
sS'rec.sport.hockey/54105'
p4912
I705
sS'rec.sport.hockey/54106'
p4913
I706
sS'rec.sport.hockey/54107'
p4914
I707
sS'sci.med/58918'
p4915
I2280
sS'sci.med/58919'
p4916
I2281
sS'talk.politics.misc/178378'
p4917
I4264
sS'rec.sport.hockey/54038'
p4918
I638
sS'rec.sport.hockey/54039'
p4919
I639
sS'rec.sport.hockey/54034'
p4920
I634
sS'rec.sport.hockey/54035'
p4921
I635
sS'rec.sport.hockey/54036'
p4922
I636
sS'rec.sport.hockey/54037'
p4923
I637
sS'rec.sport.hockey/54030'
p4924
I630
sS'rec.sport.hockey/54031'
p4925
I631
sS'rec.sport.hockey/54032'
p4926
I632
sS'rec.sport.hockey/54033'
p4927
I633
sS'comp.graphics/38270'
p4928
I3109
sS'comp.graphics/38271'
p4929
I3110
sS'talk.politics.misc/178477'
p4930
I4363
sS'comp.graphics/38613'
p4931
I3451
sS'talk.politics.misc/177006'
p4932
I4160
sS'comp.graphics/38911'
p4933
I3749
sS'sci.space/61541'
p4934
I1890
sS'talk.politics.misc/177007'
p4935
I4161
sS'sci.space/61540'
p4936
I1889
sS'talk.politics.misc/177000'
p4937
I4154
sS'comp.graphics/38242'
p4938
I3081
sS'sci.space/61543'
p4939
I1892
sS'talk.politics.misc/177001'
p4940
I4155
sS'rec.sport.hockey/54742'
p4941
I957
sS'rec.sport.hockey/54743'
p4942
I958
sS'rec.sport.hockey/54740'
p4943
I955
sS'rec.sport.hockey/54741'
p4944
I956
sS'rec.sport.hockey/54746'
p4945
I961
sS'rec.sport.hockey/54747'
p4946
I962
sS'rec.sport.hockey/54744'
p4947
I959
sS'rec.sport.hockey/54745'
p4948
I960
sS'sci.space/61545'
p4949
I1894
sS'rec.sport.hockey/54748'
p4950
I963
sS'rec.sport.hockey/54749'
p4951
I964
sS'rec.sport.hockey/54218'
p4952
I783
sS'rec.sport.hockey/54219'
p4953
I784
sS'sci.space/61544'
p4954
I1893
sS'sci.med/59146'
p4955
I2507
sS'sci.space/61547'
p4956
I1896
sS'sci.space/61546'
p4957
I1895
sS'talk.politics.misc/176927'
p4958
I4081
sS'comp.graphics/38779'
p4959
I3617
sS'comp.graphics/38778'
p4960
I3616
sS'comp.graphics/38775'
p4961
I3613
sS'comp.graphics/38774'
p4962
I3612
sS'comp.graphics/38777'
p4963
I3615
sS'comp.graphics/38776'
p4964
I3614
sS'comp.graphics/38771'
p4965
I3609
sS'sci.med/59425'
p4966
I2785
sS'comp.graphics/38773'
p4967
I3611
sS'comp.graphics/38772'
p4968
I3610
sS'rec.sport.hockey/54360'
p4969
I858
sS'rec.sport.hockey/54361'
p4970
I859
sS'comp.graphics/38485'
p4971
I3323
sS'comp.graphics/38484'
p4972
I3322
sS'rec.sport.hockey/54364'
p4973
I860
sS'rec.sport.hockey/54365'
p4974
I861
sS'rec.sport.hockey/54366'
p4975
I862
sS'rec.sport.hockey/54367'
p4976
I863
sS'talk.politics.misc/178357'
p4977
I4243
sS'sci.med/59423'
p4978
I2783
sS'comp.graphics/38719'
p4979
I3557
sS'comp.graphics/38489'
p4980
I3327
sS'sci.med/59422'
p4981
I2782
sS'sci.med/59388'
p4982
I2748
sS'comp.graphics/38910'
p4983
I3748
sS'sci.med/59420'
p4984
I2780
sS'talk.politics.misc/178745'
p4985
I4629
sS'rec.sport.hockey/53659'
p4986
I259
sS'rec.sport.hockey/53658'
p4987
I258
sS'sci.med/59545'
p4988
I2905
sS'rec.sport.hockey/53651'
p4989
I251
sS'rec.sport.hockey/53650'
p4990
I250
sS'rec.sport.hockey/53653'
p4991
I253
sS'rec.sport.hockey/53652'
p4992
I252
sS'rec.sport.hockey/53655'
p4993
I255
sS'rec.sport.hockey/53654'
p4994
I254
sS'rec.sport.hockey/53657'
p4995
I257
sS'rec.sport.hockey/53656'
p4996
I256
sS'sci.med/59547'
p4997
I2907
sS'comp.graphics/38913'
p4998
I3751
sS'sci.med/59540'
p4999
I2900
sS'sci.med/59541'
p5000
I2901
s.