(dp0
I1
S'fable.txt'
p1
sI2
S'imagin.hum'
p2
sI3
S'fic7'
p3
sI4
S'burn'
p4
sI5
S'greedog.txt'
p5
sI6
S'bulfelis.txt'
p6
sI7
S'telefone.txt'
p7
sI8
S'wanderer.fun'
p8
sI9
S'haretort.txt'
p9
sI10
S'poem-1.txt'
p10
sI11
S'burintrv.92'
p11
sI12
S'cooldark.sto'
p12
sI13
S'13chil.txt'
p13
sI14
S'chik'
p14
sI15
S'shulk.txt'
p15
sI16
S'hole2nar.txt'
p16
sI17
S'how.ernie.bert'
p17
sI18
S'tao3.dos'
p18
sI19
S'spider.txt'
p19
sI20
S'idi.hum'
p20
sI21
S'obstgoat.txt'
p21
sI22
S'piracy.sto'
p22
sI23
S'alissadl.txt'
p23
sI24
S'quarter.c1'
p24
sI25
S'7oldsamr.txt'
p25
sI26
S'goldgoos.txt'
p26
sI27
S'altside.hum'
p27
sI28
S'buggy.txt'
p28
sI29
S'lionmosq.txt'
p29
sI30
S'running.txt'
p30
sI31
S'flytrunk.txt'
p31
sI32
S'partya.txt'
p32
sI33
S'frogp.txt'
p33
sI34
S'fourth.fic'
p34
sI35
S'socialvikings.txt'
p35
sI36
S'lament.txt'
p36
sI37
S'keepmodu.txt'
p37
sI38
S'nihgel_8.9'
p38
sI39
S'paink-ws.txt'
p39
sI40
S'inter'
p40
sI41
S'empsjowk.txt'
p41
sI42
S'aesopa10.txt'
p42
sI43
S'wolf7kid.txt'
p43
sI44
S'quarter.c6'
p44
sI45
S'tailbear.txt'
p45
sI46
S'fish.txt'
p46
sI47
S'healer.txt'
p47
sI48
S'superg1'
p48
sI49
S'stsgreek'
p49
sI50
S'jaynejob.asc'
p50
sI51
S'forgotte'
p51
sI52
S'blh.txt'
p52
sI53
S'fowl.death'
p53
sI54
S'dicegame.txt'
p54
sI55
S'reap'
p55
sI56
S'candle.hum'
p56
sI57
S'cybersla.txt'
p57
sI58
S'disco.be.fun'
p58
sI59
S'stairdre.txt'
p59
sI60
S'excerpt.hum'
p60
sI61
S'mouslion.txt'
p61
sI62
S'bulhuntr.txt'
p62
sI63
S'darkness.txt'
p63
sI64
S'non3'
p64
sI65
S'aislesix.txt'
p65
sI66
S'bigred.hum'
p66
sI67
S'cmoutmou.txt'
p67
sI68
S'roger1.txt'
p68
sI69
S'panama.txt'
p69
sI70
S'burltrs'
p70
sI71
S'mario.txt'
p71
sI72
S'korea.s'
p72
sI73
S'friends.txt'
p73
sI74
S'freeman.fil'
p74
sI75
S'gloves.txt'
p75
sI76
S'lionwar.txt'
p76
sI77
S'goldbug.poe'
p77
sI78
S'dicksong.txt'
p78
sI79
S'floc'
p79
sI80
S'vampword.txt'
p80
sI81
S'prince.art'
p81
sI82
S'fantasy.txt'
p82
sI83
S'elveshoe.txt'
p83
sI84
S'day.in.mcdonald'
p84
sI85
S'rainda.txt'
p85
sI86
S'pussboot.txt'
p86
sI87
S'fea1'
p87
sI88
S'diaryflf.txt'
p88
sI89
S'withdraw.cyb'
p89
sI90
S'textfile.primer'
p90
sI91
S'mydream.txt'
p91
sI92
S'kharian.txt'
p92
sI93
S'thewave'
p93
sI94
S'igiv'
p94
sI95
S'sight.txt'
p95
sI96
S'sick-kid.txt'
p96
sI97
S'rocket.sf'
p97
sI98
S'poplstrm.txt'
p98
sI99
S'mtinder.txt'
p99
sI100
S'100west.txt'
p100
sI101
S'snowqn1.txt'
p101
sI102
S'quarter.c11'
p102
sI103
S'foxnstrk.txt'
p103
sI104
S'fgoose.txt'
p104
sI105
S'tcoa.txt'
p105
sI106
S'helmfuse.txt'
p106
sI107
S'bluebrd.txt'
p107
sI108
S'bulnoopt.txt'
p108
sI109
S'crazy.hum'
p109
sI110
S'3wishes.txt'
p110
sI111
S'aesop11.txt'
p111
sI112
S'wrt'
p112
sI113
S'lmtchgrl.txt'
p113
sI114
S'quarter.c3'
p114
sI115
S'quarter.c16'
p115
sI116
S's&m_plot'
p116
sI117
S'burintrv.78'
p117
sI118
S'floobs.txt'
p118
sI119
S'discocanbefun.txt'
p119
sI120
S'mike.txt'
p120
sI121
S'beyond.hum'
p121
sI122
S'nigel.10'
p122
sI123
S'goldfish.txt'
p123
sI124
S'aisle.six'
p124
sI125
S'hotline3.txt'
p125
sI126
S'enya_trn.txt'
p126
sI127
S'elite.app'
p127
sI128
S'vgilante.txt'
p128
sI129
S'crabhern.txt'
p129
sI130
S'19.lws'
p130
sI131
S'quest'
p131
sI132
S'bulolli1.txt'
p132
sI133
S'musibrem.txt'
p133
sI134
S'6ablemen.txt'
p134
sI135
S'ccm.txt'
p135
sI136
S'dakota.txt'
p136
sI137
S'snowmaid.txt'
p137
sI138
S'hitch2.txt'
p138
sI139
S'jim.asc'
p139
sI140
S'advsayed.txt'
p140
sI141
S'lmermaid.txt'
p141
sI142
S'safe'
p142
sI143
S'jerichms.hum'
p143
sI144
S'cameloto.hum'
p144
sI145
S'wall.art'
p145
sI146
S'testpilo.hum'
p146
sI147
S'foxncrow.txt'
p147
sI148
S'monkking.txt'
p148
sI149
S'uglyduck.txt'
p149
sI150
S'clevdonk.txt'
p150
sI151
S'blue'
p151
sI152
S'solitary.txt'
p152
sI153
S'cum'
p153
sI154
S'comp'
p154
sI155
S'fea3'
p155
sI156
S'consumdr.hum'
p156
sI157
S'fantasy.hum'
p157
sI158
S'gatherng.txt'
p158
sI159
S'dwar'
p159
sI160
S'greatlrn.leg'
p160
sI161
S'monksol.txt'
p161
sI162
S'bulzork1.txt'
p162
sI163
S'lionbird'
p163
sI164
S'cow.exploder'
p164
sI165
S'alad10.txt'
p165
sI166
S'14.lws'
p166
sI167
S'beautbst.txt'
p167
sI168
S'bulmrx.txt'
p168
sI169
S'3lpigs.txt'
p169
sI170
S'startrek.txt'
p170
sI171
S'spiders.txt'
p171
sI172
S'3sonnets.vrs'
p172
sI173
S'wolfcran.txt'
p173
sI174
S'16.lws'
p174
sI175
S'parotsha.txt'
p175
sI176
S'long1-3.txt'
p176
sI177
S'assorted.txt'
p177
sI178
S'bestwish'
p178
sI179
S'hellmach.txt'
p179
sI180
S'pphamlin.txt'
p180
sI181
S'charlie.txt'
p181
sI182
S'mattress.txt'
p182
sI183
S'descent.poe'
p183
sI184
S'hils'
p184
sI185
S'bgb.txt'
p185
sI186
S'valen'
p186
sI187
S'fic5'
p187
sI188
S'pepdegener.txt'
p188
sI189
S'sqzply.txt'
p189
sI190
S'goldenp.txt'
p190
sI191
S'thanksg'
p191
sI192
S'timetrav.txt'
p192
sI193
S'eyeargon.hum'
p193
sI194
S'hareleph.txt'
p194
sI195
S'aminegg.txt'
p195
sI196
S'blind.txt'
p196
sI197
S'quarter.c2'
p197
sI198
S'wisteria.txt'
p198
sI199
S'missing.txt'
p199
sI200
S'toilet.s'
p200
sI201
S'fic4'
p201
sI202
S'game.txt'
p202
sI203
S'times.fic'
p203
sI204
S'bullove.txt'
p204
sI205
S'blackp.txt'
p205
sI206
S'deal'
p206
sI207
S'girl'
p207
sI208
S'imonly17.txt'
p208
sI209
S'bagelman.txt'
p209
sI210
S'quarter.c9'
p210
sI211
S'fearmnky'
p211
sI212
S'bulolli2.txt'
p212
sI213
S'snow.txt'
p213
sI214
S'hareporc.txt'
p214
sI215
S'berternie.txt'
p215
sI216
S'horsdonk.txt'
p216
sI217
S'tree.txt'
p217
sI218
S'fic3'
p218
sI219
S'flute.txt'
p219
sI220
S'quarter.c14'
p220
sI221
S'nitepeek.sto'
p221
sI222
S'spectacl.poe'
p222
sI223
S'weeprncs.txt'
p223
sI224
S'gulliver.txt'
p224
sI225
S'bureau.txt'
p225
sI226
S'blackrdr'
p226
sI227
S'musgrave.txt'
p227
sI228
S'cardcnt.txt'
p228
sI229
S'whgdsreg.reg'
p229
sI230
S'quickfix'
p230
sI231
S'kzap.txt'
p231
sI232
S'dopedenn.txt'
p232
sI233
S'jackbstl.txt'
p233
sI234
S'quarter.c19'
p234
sI235
S'bulprint.txt'
p235
sI236
S'rock'
p236
sI237
S'life.txt'
p237
sI238
S'poem-2.txt'
p238
sI239
S'home.fil'
p239
sI240
S'bruce-p.txt'
p240
sI241
S'yukon.txt'
p241
sI242
S'blabnove.hum'
p242
sI243
S'nigel.6'
p243
sI244
S'vaincrow.txt'
p244
sI245
S'aquith.txt'
p245
sI246
S'tuc_mees'
p246
sI247
S'history5.txt'
p247
sI248
S'holmesbk.txt'
p248
sI249
S'7voysinb.txt'
p249
sI250
S'arctic.txt'
p250
sI251
S'quot'
p251
sI252
S'bookem2'
p252
sI253
S'lionmane.txt'
p253
sI254
S'timem.hac'
p254
sI255
S'hotline1.txt'
p255
sI256
S'mazarin.txt'
p256
sI257
S'pinocch.txt'
p257
sI258
S'bookem3'
p258
sI259
S'deathmrs.d'
p259
sI260
S'modemhippy.txt'
p260
sI261
S'quarter.c4'
p261
sI262
S'ab40thv.txt'
p262
sI263
S'angry_ca.txt'
p263
sI264
S'ezoff'
p264
sI265
S'island.poe'
p265
sI266
S'bulphrek.txt'
p266
sI267
S'fic1'
p267
sI268
S'lil'
p268
sI269
S'sis'
p269
sI270
S'shrdfarm.txt'
p270
sI271
S'mindwar'
p271
sI272
S'cabin.txt'
p272
sI273
S'dan'
p273
sI274
S'tearglas.txt'
p274
sI275
S'adv_alad.txt'
p275
sI276
S'bran'
p276
sI277
S'outcast.dos'
p277
sI278
S'20.lws'
p278
sI279
S'fred.txt'
p279
sI280
S'burintrv.66'
p280
sI281
S'silverb.txt'
p281
sI282
S'quarter.c17'
p282
sI283
S'szechuan'
p283
sI284
S'breaks2.asc'
p284
sI285
S'bulwer.lytton'
p285
sI286
S'gay'
p286
sI287
S'quarter.c8'
p287
sI288
S'enchdup.hum'
p288
sI289
S'flktrp.txt'
p289
sI290
S'veiledl.txt'
p290
sI291
S'friend.s'
p291
sI292
S'breaks1.asc'
p292
sI293
S'mindprob.txt'
p293
sI294
S'non4'
p294
sI295
S'knuckle.txt'
p295
sI296
S'curious.george'
p296
sI297
S'reality.txt'
p297
sI298
S'asop'
p298
sI299
S'quarter.c18'
p299
sI300
S'wolflamb.txt'
p300
sI301
S'excerpt.txt'
p301
sI302
S'pregn.txt'
p302
sI303
S'the-tree.txt'
p303
sI304
S'nigel.5'
p304
sI305
S'breaks3.asc'
p305
sI306
S'quarter.c15'
p306
sI307
S'non2'
p307
sI308
S'buldetal.txt'
p308
sI309
S'bulironb.txt'
p309
sI310
S'lgoldbrd.txt'
p310
sI311
S'blak'
p311
sI312
S'antcrick.txt'
p312
sI313
S'aircon.txt'
p313
sI314
S'quarter.c10'
p314
sI315
S'progx'
p315
sI316
S'radar_ra.txt'
p316
sI317
S'qcarroll'
p317
sI318
S'myeyes'
p318
sI319
S'immorti.hum'
p319
sI320
S'psyc'
p320
sI321
S'bram'
p321
sI322
S'quarter.c12'
p322
sI323
S'fran'
p323
sI324
S'melissa.txt'
p324
sI325
S'enginer.txt'
p325
sI326
S'quarter.c13'
p326
sI327
S'sleprncs.txt'
p327
sI328
S'kneeslapper'
p328
sI329
S'space.txt'
p329
sI330
S'write'
p330
sI331
S'psi'
p331
sI332
S'bulnland.txt'
p332
sI333
S'buldream.txt'
p333
sI334
S'blossom.pom'
p334
sI335
S'3gables.txt'
p335
sI336
S't_zone.jok'
p336
sI337
S'sunday.txt'
p337
sI338
S'wombat.und'
p338
sI339
S'fic2'
p339
sI340
S'kneeslapper.txt'
p340
sI341
S'glimpse1.txt'
p341
sI342
S'cooldark.txt'
p342
sI343
S'hop-frog.poe'
p343
sI344
S'nigel.2'
p344
sI345
S'fleas.txt'
p345
sI346
S'sanpedr2.txt'
p346
sI347
S'zombies.txt'
p347
sI348
S'lrrhood.txt'
p348
sI349
S'adler.txt'
p349
sI350
S'spam.key'
p350
sI351
S'girlclub.txt'
p351
sI352
S'ltp'
p352
sI353
S'brain.damage'
p353
sI354
S'tctac.txt'
p354
sI355
S'nigel.3'
p355
sI356
S'redragon.txt'
p356
sI357
S'lpeargrl.txt'
p357
sI358
S'fea2'
p358
sI359
S'pepsi.degenerat'
p359
sI360
S'hell4.txt'
p360
sI361
S'dskool.txt'
p361
sI362
S'deer.txt'
p362
sI363
S'index.html'
p363
sI364
S'aluminum.hum'
p364
sI365
S'campfire.txt'
p365
sI366
S'advtthum.txt'
p366
sI367
S'quarter.c5'
p367
sI368
S'paul_har.sto'
p368
sI369
S'bishop00.txt'
p369
sI370
S'foxngrap.txt'
p370
sI371
S'clon'
p371
sI372
S'lure.txt'
p372
sI373
S'bern'
p373
sI374
S'empty.txt'
p374
sI375
S'domain.poe'
p375
sI376
S'grav'
p376
sI377
S'narciss.txt'
p377
sI378
S'vainsong.txt'
p378
sI379
S'perf'
p379
sI380
S'archive'
p380
sI381
S'fantas.hum'
p381
sI382
S'omarsheh.txt'
p382
sI383
S'arcadia.sty'
p383
sI384
S'nigel.7'
p384
sI385
S'sre-dark.txt'
p385
sI386
S'emperor3.txt'
p386
sI387
S'frum'
p387
sI388
S'5orange.txt'
p388
sI389
S'hitch3.txt'
p389
sI390
S'18.lws'
p390
sI391
S'hansgrtl.txt'
p391
sI392
S'plescopm.txt'
p392
sI393
S'shoscomb.txt'
p393
sI394
S'fear.hum'
p394
sI395
S'unluckwr.txt'
p395
sI396
S'4moons.txt'
p396
sI397
S'batlslau.txt'
p397
sI398
S'terrorbears.txt'
p398
sI399
S's&m_that'
p399
sI400
S'gold3ber.txt'
p400
sI401
S'oxfrog.txt'
p401
sI402
S'bumm'
p402
sI403
S'confilct.fun'
p403
sI404
S'contrad1.hum'
p404
sI405
S'taxnovel.txt'
p405
sI406
S'bookem.1'
p406
sI407
S'corcor.hum'
p407
sI408
S'poem-4.txt'
p408
sI409
S'hotline4.txt'
p409
sI410
S'nigel.1'
p410
sI411
S'blabnove.txt'
p411
sI412
S'mcdonaldl.txt'
p412
sI413
S'beggars.txt'
p413
sI414
S'nigel.4'
p414
sI415
S'vday.hum'
p415
sI416
S'wlgirl.txt'
p416
sI417
S'luf'
p417
sI418
S'6napolen.txt'
p418
sI419
S'rid.txt'
p419
sI420
S'retrib.txt'
p420
sI421
S'hound-b.txt'
p421
sI422
S'quarter.c7'
p422
sI423
S'empnclot.txt'
p423
sI424
S'immortal'
p424
sI425
S'abyss.txt'
p425
sI426
S'peace.fun'
p426
sI427
S'keeping.insanit'
p427
sI428
S'stainles.ana'
p428
sI429
S'weaver.txt'
p429
sI430
S'social.vikings'
p430
sI431
S'bagel.man'
p431
sI432
S'horswolf.txt'
p432
sI433
S'abbey.txt'
p433
sI434
S'blasters.fic'
p434
sI435
S'traitor.txt'
p435
sI436
S'robotech'
p436
sI437
S'gemdra.txt'
p437
sI438
S'angelfur.hum'
p438
sI439
S'beast.asc'
p439
sI440
S'ladylust.hum'
p440
sI441
S'encamp01.txt'
p441
sI442
S'bgcspoof.txt'
p442
sI443
S'graymare.txt'
p443
sI444
S'tinsoldr.txt'
p444
sI445
S'psf.txt'
p445
sI446
S'ghost'
p446
sI447
S'tin'
p447
sI448
S'sucker.txt'
p448
sI449
S'3student.txt'
p449
sI450
S'jackmac.fic'
p450
sI451
S'17.lws'
p451
sI452
S'dtruck.txt'
p452
sI453
S'enc'
p453
sI454
S'FARNON/.descs'
p454
sI455
S'FARNON/.footer'
p455
sI456
S'FARNON/.header'
p456
sI457
S'FARNON/.windex.html'
p457
sI458
S'FARNON/index.html'
p458
sI459
S'SRE/.descs'
p459
sI460
S'SRE/.header'
p460
sI461
S'SRE/.musings'
p461
sI462
S'SRE/index.html'
p462
sI463
S'SRE/sre01.txt'
p463
sI464
S'SRE/sre02.txt'
p464
sI465
S'SRE/sre03.txt'
p465
sI466
S'SRE/sre04.txt'
p466
sI467
S'SRE/sre05.txt'
p467
sI468
S'SRE/sre06.txt'
p468
sI469
S'SRE/sre07.txt'
p469
sI470
S'SRE/sre08.txt'
p470
sI471
S'SRE/sre09.txt'
p471
sI472
S'SRE/sre10.txt'
p472
sI473
S'SRE/sre_feqh.txt'
p473
sI474
S'SRE/sre_finl.txt'
p474
sI475
S'SRE/sre_sei.txt'
p475
sI476
S'SRE/sretrade.txt'
p476
sI477
S'SRE/srex.txt'
p477
s.