(dp0
Vpaperless
p1
(lp2
I42
asVsandwellweiss
p3
(lp4
I145
asVgulliv
p5
(lp6
I224
asVjason
p7
(lp8
I403
asVedg
p9
(lp10
I425
asVron
p11
(lp12
I417
asVali
p13
(lp14
I23
aI262
asVmuess
p15
(lp16
I118
asVfox
p17
(lp18
I13
aI103
aI147
aI158
aI370
aI445
asVconsum
p19
(lp20
I156
asVprotocultur
p21
(lp22
I436
asVmonth
p23
(lp24
I351
asValien
p25
(lp26
I120
aI419
asVweatherman
p27
(lp28
I427
asVpainkil
p29
(lp30
I39
asVsleep
p31
(lp32
I327
asVsubmerg
p33
(lp34
I40
asVgo
p35
(lp36
I100
aI440
asVspellweav
p37
(lp38
I429
asVdisk
p39
(lp40
I82
asVchildren
p41
(lp42
I436
asVgi
p43
(lp44
I84
aI412
asVodnaar
p45
(lp46
I37
asV21st
p47
(lp48
I284
aI292
aI305
asVprocur
p49
(lp50
I225
asVgrape
p51
(lp52
I370
asVbaron
p53
(lp54
I185
asVzone
p55
(lp56
I336
asVeleph
p57
(lp58
I194
asVbattletech
p59
(lp60
I397
asVfather
p61
(lp62
I104
aI306
aI349
asVfarber
p63
(lp64
I284
aI292
aI305
asVsaga
p65
(lp66
I38
aI97
aI122
aI243
aI304
aI344
aI355
aI384
aI410
aI411
aI414
aI463
asVtail
p67
(lp68
I45
asVedward
p69
(lp70
I79
asVblaze
p71
(lp72
I281
asVvike
p73
(lp74
I35
aI430
asVterror
p75
(lp76
I398
asVlord
p77
(lp78
I131
aI245
asVte
p79
(lp80
I18
aI247
asVkortron
p81
(lp82
I297
asVbrown
p83
(lp84
I132
aI443
asVlure
p85
(lp86
I372
asVprobe
p87
(lp88
I293
asVmasquerad
p89
(lp90
I246
asVsong
p91
(lp92
I10
aI378
asVmusgrav
p93
(lp94
I227
asVmous
p95
(lp96
I61
aI67
aI135
asVuncl
p97
(lp98
I49
asVmechan
p99
(lp100
I448
asVredish
p101
(lp102
I8
asVfredric
p103
(lp104
I443
asVoctob
p105
(lp106
I10
aI32
aI93
aI238
aI408
asVwinwood
p107
(lp108
I277
asVnavajo
p109
(lp110
I93
asVparabl
p111
(lp112
I5
aI244
asVrelev
p113
(lp114
I301
asVstrand
p115
(lp116
I453
asVcool
p117
(lp118
I12
aI342
aI428
asVsteve
p119
(lp120
I261
asVschool
p121
(lp122
I361
asVmagic
p123
(lp124
I99
aI451
asVparrot
p125
(lp126
I175
asVharri
p127
(lp128
I70
asVtear
p129
(lp130
I274
asVknight
p131
(lp132
I442
asVleftov
p133
(lp134
I220
asVrestor
p135
(lp136
I468
asVmichael
p137
(lp138
I4
aI142
aI189
aI293
aI330
asVryan
p139
(lp140
I442
asVox
p141
(lp142
I401
asVbluebaugh
p143
(lp144
I54
asVsamurai
p145
(lp146
I25
asVcyberslav
p147
(lp148
I57
asVepstein
p149
(lp150
I34
aI450
asVone thousand, nine hundred and thirty-three point zero
p151
(lp152
I277
asVquick
p153
(lp154
I230
asVedmonson
p155
(lp156
I210
asVguy
p157
(lp158
I174
aI399
asVtrout
p159
(lp160
I381
asVabort
p161
(lp162
I144
asVorang
p163
(lp164
I388
asVsuzann
p165
(lp166
I347
asVpleas
p167
(lp168
I208
asVenterpris
p169
(lp170
I164
asVone thousand, eight hundred and ninety-eight point zero
p171
(lp172
I254
asVcap
p173
(lp174
I132
aI212
asVcarter
p175
(lp176
I274
asVpornographi
p177
(lp178
I246
asVtea
p179
(lp180
I314
asVhansel
p181
(lp182
I391
asVmcdonaldland
p183
(lp184
I84
aI412
asVhors
p185
(lp186
I216
aI239
aI432
asVstreet
p187
(lp188
I27
asVlongest
p189
(lp190
I176
asVarnold
p191
(lp192
I151
asVkarylin
p193
(lp194
I68
asVhealer
p195
(lp196
I47
asVn
p197
(lp198
I132
aI154
aI212
asVchicken
p199
(lp200
I14
asVblue
p201
(lp202
I71
aI151
aI415
asVallan
p203
(lp204
I105
asVprimer
p205
(lp206
I90
asVbb
p207
(lp208
I239
asVrichard
p209
(lp210
I284
aI292
aI305
asVpachanoi
p211
(lp212
I346
asVcelt
p213
(lp214
I126
asVsun
p215
(lp216
I102
asVpiper
p217
(lp218
I180
aI438
asVabl
p219
(lp220
I134
asVtwenty-four point zero
p221
(lp222
I118
asVparagraph
p223
(lp224
I204
asVquarantin
p225
(lp226
I114
asVgoldilock
p227
(lp228
I400
asVrosentrat
p229
(lp230
I46
asVnew
p231
(lp232
I332
aI423
asVever
p233
(lp234
I463
asVbird
p235
(lp236
I310
asVliberti
p237
(lp238
I352
asVviii
p239
(lp240
I470
asVspecialist
p241
(lp242
I106
asVmillion
p243
(lp244
I428
asVhero
p245
(lp246
I464
asVdwarf
p247
(lp248
I159
asVsatinka
p249
(lp250
I59
asVhonour
p251
(lp252
I352
asVclerk
p253
(lp254
I50
asVmen
p255
(lp256
I134
asVlodg
p257
(lp258
I198
asVleo
p259
(lp260
I386
asVranger
p261
(lp262
I316
asVching
p263
(lp264
I18
asVramsey
p265
(lp266
I201
asVimmort
p267
(lp268
I424
asVtrunk
p269
(lp270
I31
asVsheherazad
p271
(lp272
I382
asVhightech
p273
(lp274
I451
asVlegend
p275
(lp276
I92
asVtortois
p277
(lp278
I9
asVone thousand, nine hundred and ninety-four point zero
p279
(lp280
I155
aI163
aI200
aI286
aI358
asVboy
p281
(lp282
I60
aI301
asVgreat
p283
(lp284
I160
aI229
asVinsan
p285
(lp286
I427
asVsubzero
p287
(lp288
I296
asVpear
p289
(lp290
I357
asVgriebel
p291
(lp292
I154
asVlarger
p293
(lp294
I168
asVtechnolog
p295
(lp296
I130
asVfeqh
p297
(lp298
I473
asVsoldier
p299
(lp300
I151
aI444
asVkristin
p301
(lp302
I197
asVsurvey
p303
(lp304
I155
asVomar
p305
(lp306
I382
asVkarin
p307
(lp308
I422
asVsocial
p309
(lp310
I35
aI430
asVreal
p311
(lp312
I368
asVbob
p313
(lp314
I288
asVnarrow
p315
(lp316
I16
asVhippi
p317
(lp318
I260
asVjami
p319
(lp320
I95
asVchanc
p321
(lp322
I3
asVstew
p323
(lp324
I220
asVgolden
p325
(lp326
I26
aI190
aI310
aI330
asVlove
p327
(lp328
I10
asVplink
p329
(lp330
I203
asVmelina
p331
(lp332
I207
asVix
p333
(lp334
I471
asVlawrenc
p335
(lp336
I57
asVmitchel
p337
(lp338
I364
asVbeanstalk
p339
(lp340
I233
asVpyramid
p341
(lp342
I369
asVmoral
p343
(lp344
I116
asVarthur
p345
(lp346
I421
asVdwarven
p347
(lp348
I131
asVtwo point zero
p349
(lp350
I212
aI252
aI344
aI355
aI414
asVjuliu
p351
(lp352
I132
asVgreg
p353
(lp354
I315
asVplot
p355
(lp356
I116
asVfranci
p357
(lp358
I74
aI239
aI311
aI323
aI373
asVeye
p359
(lp360
I193
aI318
asVspoke
p361
(lp362
I102
asVmemori
p363
(lp364
I376
asVsaddl
p365
(lp366
I23
asVunivers
p367
(lp368
I138
aI389
asVtwo
p369
(lp370
I174
asVfrog
p371
(lp372
I33
aI343
aI401
asVlive
p373
(lp374
I89
aI347
asVlucia
p375
(lp376
I399
asVdavi
p377
(lp378
I187
aI218
aI339
asVcard
p379
(lp380
I228
aI442
asVcrab
p381
(lp382
I129
asVradar
p383
(lp384
I316
asVtype
p385
(lp386
I89
asVtell
p387
(lp388
I334
asVshalub
p389
(lp390
I118
asVbaba
p391
(lp392
I262
asVflat
p393
(lp394
I35
aI430
asVclever
p395
(lp396
I150
asVstormi
p397
(lp398
I285
asVkneeslapp
p399
(lp400
I328
aI340
asVclub
p401
(lp402
I42
aI351
asValdebaran
p403
(lp404
I58
aI119
aI209
aI431
asVrelat
p405
(lp406
I219
asVsister
p407
(lp408
I269
asVmuse
p409
(lp410
I307
asVwarn
p411
(lp412
I218
asVglass
p413
(lp414
I274
asVholm
p415
(lp416
I248
asVfloyd
p417
(lp418
I338
asVoop
p419
(lp420
I75
asVhole
p421
(lp422
I16
asViii
p423
(lp424
I125
asVgherkin
p425
(lp426
I106
asVflak
p427
(lp428
I289
asVouija
p429
(lp430
I211
aI218
asVtown
p431
(lp432
I67
asVmd
p433
(lp434
I143
asVaccount
p435
(lp436
I228
asVhutch
p437
(lp438
I184
asVword
p439
(lp440
I80
aI221
aI226
asVkennedi
p441
(lp442
I102
asVhour
p443
(lp444
I17
aI58
aI119
aI209
aI215
aI431
asVhous
p445
(lp446
I374
asVride
p447
(lp448
I66
aI348
asVwork
p449
(lp450
I264
aI316
asVsoul
p451
(lp452
I47
aI51
asVreisman
p453
(lp454
I131
asVcat
p455
(lp456
I6
aI135
asVfli
p457
(lp458
I11
aI31
asVswancer
p459
(lp460
I314
asVvow
p461
(lp462
I177
asVlubi
p463
(lp464
I200
asVms
p465
(lp466
I259
asVlearn
p467
(lp468
I160
asVmeet
p469
(lp470
I3
aI336
asVbrucepartington
p471
(lp472
I240
asVpetro
p473
(lp474
I469
asVnoren
p475
(lp476
I238
asVmees
p477
(lp478
I246
asVtextfil
p479
(lp480
I90
asVexplod
p481
(lp482
I164
asVheart
p483
(lp484
I63
asVstream
p485
(lp486
I98
asVgive
p487
(lp488
I94
asVpie
p489
(lp490
I180
asVsyndic
p491
(lp492
I161
asVdram
p493
(lp494
I59
asVtax
p495
(lp496
I405
asVvers
p497
(lp498
I241
asVcrazi
p499
(lp500
I109
asVfay
p501
(lp502
I265
asVslip
p503
(lp504
I82
asVbeaver
p505
(lp506
I185
asVdiari
p507
(lp508
I88
asVdavid
p509
(lp510
I8
aI11
aI37
aI158
asVrobinson
p511
(lp512
I97
asVshoemak
p513
(lp514
I83
asVrape
p515
(lp516
I7
asVlamb
p517
(lp518
I300
asVsir
p519
(lp520
I421
asVtao
p521
(lp522
I18
asVend
p523
(lp524
I138
asVtess
p525
(lp526
I246
asVquot
p527
(lp528
I251
asVanoth
p529
(lp530
I34
asVtravel
p531
(lp532
I192
aI224
aI329
aI350
asVsix
p533
(lp534
I65
aI124
aI134
aI418
asVbrendan
p535
(lp536
I289
asVgeorg
p537
(lp538
I111
aI186
aI347
asValway
p539
(lp540
I278
asVlamp
p541
(lp542
I165
asVmillstein
p543
(lp544
I37
asVmari
p545
(lp546
I269
asVfourth
p547
(lp548
I34
asVslaff
p549
(lp550
I109
asVinterview
p551
(lp552
I11
aI280
aI316
asVpincenez
p553
(lp554
I190
asVwombat
p555
(lp556
I338
asVgurn
p557
(lp558
I246
asVpoetri
p559
(lp560
I10
aI158
aI238
aI251
aI286
aI330
aI408
asVchri
p561
(lp562
I385
asVupdat
p563
(lp564
I298
asVpub
p565
(lp566
I352
asVunlucki
p567
(lp568
I395
asVproduct
p569
(lp570
I17
aI58
aI119
aI209
aI215
aI431
asVbluebeard
p571
(lp572
I107
asVbarbero
p573
(lp574
I245
asVfleshman
p575
(lp576
I417
asVmay
p577
(lp578
I344
asVarcadia
p579
(lp580
I383
asVclone
p581
(lp582
I371
asVidi
p583
(lp584
I20
asVronald
p585
(lp586
I387
asVbefor
p587
(lp588
I121
asVunsung
p589
(lp590
I464
asVnevin
p591
(lp592
I94
aI112
aI153
aI371
aI402
asVone thousand, nine hundred and seventy-eight point zero
p593
(lp594
I117
asVblood
p595
(lp596
I298
asVbeauti
p597
(lp598
I167
asVpsicop
p599
(lp600
I331
asVcarolin
p601
(lp602
I102
asVgrow
p603
(lp604
I394
asVhawn
p605
(lp606
I56
asVman
p607
(lp608
I74
aI291
aI309
aI431
asVshort
p609
(lp610
I71
asVattempt
p611
(lp612
I144
asVnanci
p613
(lp614
I87
aI337
asVaesop
p615
(lp616
I42
aI111
aI298
asVlight
p617
(lp618
I267
asVrevolt
p619
(lp620
I57
asVchapman
p621
(lp622
I321
aI385
aI447
asVdragon
p623
(lp624
I54
aI324
aI356
aI437
asVtale
p625
(lp626
I21
aI26
asVgreek
p627
(lp628
I49
asVreaper
p629
(lp630
I55
asVgreen
p631
(lp632
I324
asVvornholt
p633
(lp634
I146
asVoffend
p635
(lp636
I36
asVfan
p637
(lp638
I85
asVone thousand, nine hundred and ninety-one point zero
p639
(lp640
I19
aI28
aI57
aI272
aI328
aI340
aI345
aI390
aI420
aI451
asVegg
p641
(lp642
I195
asVmartini
p643
(lp644
I350
asVwind
p645
(lp646
I56
asVjack
p647
(lp648
I233
aI331
asVspider
p649
(lp650
I19
aI171
asVsonnet
p651
(lp652
I172
asVuntold
p653
(lp654
I465
asVaiken
p655
(lp656
I267
aI294
aI358
asVmovi
p657
(lp658
I294
aI347
asVsade
p659
(lp660
I360
asVmidnight
p661
(lp662
I422
asVmission
p663
(lp664
I326
aI336
asVgalaxi
p665
(lp666
I473
aI475
asVtrade
p667
(lp668
I476
asVelit
p669
(lp670
I208
aI464
aI465
aI466
aI467
aI468
aI469
aI470
aI471
aI472
aI473
aI474
aI475
aI477
asVbrain
p671
(lp672
I353
asVmaelstrom
p673
(lp674
I183
asVtoilet
p675
(lp676
I200
asVbernec
p677
(lp678
I373
asVoutcast
p679
(lp680
I277
asVhell
p681
(lp682
I179
asVcold
p683
(lp684
I56
asVwarren
p685
(lp686
I85
aI369
asVperfect
p687
(lp688
I379
asVthumb
p689
(lp690
I325
aI366
asVswann
p691
(lp692
I177
asVfunni
p693
(lp694
I334
asVwillow
p695
(lp696
I115
asVgerald
p697
(lp698
I381
asVfix
p699
(lp700
I230
asVjim
p701
(lp702
I100
aI139
aI193
aI250
aI322
asVavocado
p703
(lp704
I60
aI301
asVsunday
p705
(lp706
I231
aI337
asVstartrek
p707
(lp708
I170
asVmattress
p709
(lp710
I182
asVsolitari
p711
(lp712
I152
asVhomecom
p713
(lp714
I239
asVcecilio
p715
(lp716
I116
asVbummer
p717
(lp718
I402
asVcuriou
p719
(lp720
I296
asVshoscomb
p721
(lp722
I393
asVholiday
p723
(lp724
I52
asVdad
p725
(lp726
I452
asVant
p727
(lp728
I312
asVgood
p729
(lp730
I104
aI380
asVsynopsi
p731
(lp732
I4
aI142
asVhop
p733
(lp734
I343
asVthei
p735
(lp736
I193
asVfrancoi
p737
(lp738
I360
asVsucker
p739
(lp740
I448
asVspell
p741
(lp742
I241
asVhunter
p743
(lp744
I15
aI62
asVmarcu
p745
(lp746
I435
asVbreak
p747
(lp748
I284
aI292
aI305
asVlunch
p749
(lp750
I311
asVszechuan
p751
(lp752
I283
asVgoos
p753
(lp754
I26
asVsnake
p755
(lp756
I445
asVgerman
p757
(lp758
I226
asVhalf
p759
(lp760
I385
asVflea
p761
(lp762
I345
asVadventur
p763
(lp764
I20
aI140
aI152
aI168
aI190
aI198
aI199
aI205
aI212
aI240
aI253
aI256
aI275
aI284
aI290
aI292
aI305
aI325
aI335
aI366
aI373
aI374
aI393
aI418
aI433
aI449
asVtwilight
p765
(lp766
I336
asVsilver
p767
(lp768
I281
asVintroduct
p769
(lp770
I229
asVpsychedel
p771
(lp772
I231
asVempress
p773
(lp774
I41
asVstackpol
p775
(lp776
I189
asValex
p777
(lp778
I127
asVname
p779
(lp780
I334
asVpregnant
p781
(lp782
I302
asVedit
p783
(lp784
I82
asVoliv
p785
(lp786
I70
asVl
p787
(lp788
I145
aI201
aI267
aI294
aI347
aI358
asVdrake
p789
(lp790
I407
asVgoat
p791
(lp792
I21
asVboynton
p793
(lp794
I176
asVmagazin
p795
(lp796
I11
asVpeasant
p797
(lp798
I445
asVarnheim
p799
(lp800
I375
asVtrap
p801
(lp802
I289
asVpilot
p803
(lp804
I146
asVrock
p805
(lp806
I236
asVfound
p807
(lp808
I350
asVcomplet
p809
(lp810
I138
aI389
asVside
p811
(lp812
I27
asVdenni
p813
(lp814
I232
asVdomain
p815
(lp816
I375
asVhuddi
p817
(lp818
I207
asVthreequart
p819
(lp820
I199
asVp
p821
(lp822
I28
aI52
aI362
aI452
asVlist
p823
(lp824
I104
aI248
aI334
aI368
asVhare
p825
(lp826
I9
aI194
aI214
asVcontinu
p827
(lp828
I168
aI411
asVbradley
p829
(lp830
I282
asVdarksid
p831
(lp832
I398
asVgum
p833
(lp834
I442
asVdoug
p835
(lp836
I46
asVquantum
p837
(lp838
I448
asVgirl
p839
(lp840
I207
aI351
aI357
aI416
asVbeyond
p841
(lp842
I121
aI250
asVcommiss
p843
(lp844
I246
asVwander
p845
(lp846
I8
asVshannon
p847
(lp848
I24
asVnine point zero
p849
(lp850
I38
aI172
aI390
asVastru
p851
(lp852
I349
asVmatt
p853
(lp854
I397
asVflower
p855
(lp856
I62
aI108
aI235
aI446
asVspace
p857
(lp858
I97
aI329
asVgoe
p859
(lp860
I76
aI425
asVgod
p861
(lp862
I208
aI346
asVrobert
p863
(lp864
I241
aI385
asVmatchgirl
p865
(lp866
I113
asVpublish
p867
(lp868
I203
asVresearch
p869
(lp870
I278
asVbubbl
p871
(lp872
I442
asVdaniel
p873
(lp874
I62
aI108
aI235
aI301
asVhill
p875
(lp876
I184
asVreader
p877
(lp878
I42
asVprint
p879
(lp880
I235
asVgot
p881
(lp882
I317
asVdworin
p883
(lp884
I57
asVred
p885
(lp886
I66
aI348
aI356
asVriddler
p887
(lp888
I419
asVharold
p889
(lp890
I320
asVhula
p891
(lp892
I87
asVglimps
p893
(lp894
I341
asVwatermark
p895
(lp896
I126
asVblumenberg
p897
(lp898
I1
aI47
aI229
aI349
asVnightmar
p899
(lp900
I443
asVfriday
p901
(lp902
I32
asVsituat
p903
(lp904
I297
asVargu
p905
(lp906
I69
asVfree
p907
(lp908
I74
asVfred
p909
(lp910
I279
asVsatterle
p911
(lp912
I136
asVzorker
p913
(lp914
I162
asVzombi
p915
(lp916
I347
asVtheori
p917
(lp918
I320
aI476
asVcarl
p919
(lp920
I364
asVx
p921
(lp922
I168
aI315
aI472
asVreleas
p923
(lp924
I65
asVphilip
p925
(lp926
I284
aI292
aI305
asVneolith
p927
(lp928
I229
asVprincess
p929
(lp930
I81
aI223
aI327
aI381
aI382
asVgreedi
p931
(lp932
I5
asVmonkey
p933
(lp934
I148
aI161
aI211
asVsuperguy
p935
(lp936
I48
asVate
p937
(lp938
I354
asVg
p939
(lp940
I62
aI108
aI235
asVbadli
p941
(lp942
I95
aI213
asVenchant
p943
(lp944
I288
asVcube
p945
(lp946
I118
asVritual
p947
(lp948
I227
asVcosmic
p949
(lp950
I181
asVwaterlog
p951
(lp952
I358
asVkeep
p953
(lp954
I37
aI427
asVdonatien
p955
(lp956
I360
asVthing
p957
(lp958
I89
asVamerican
p959
(lp960
I130
asVcampbel
p961
(lp962
I181
aI351
asVplace
p963
(lp964
I142
aI393
asVgordon
p965
(lp966
I321
aI447
asVw
p967
(lp968
I74
aI239
aI241
asVimposs
p969
(lp970
I336
asVtrendl
p971
(lp972
I385
asVfirst
p973
(lp974
I20
asVblind
p975
(lp976
I196
aI282
asVfantasi
p977
(lp978
I82
aI157
asVmr
p979
(lp980
I168
asVnigel
p981
(lp982
I38
aI122
aI243
aI304
aI344
aI355
aI384
aI410
aI414
asVbremen
p983
(lp984
I133
asVone hundred point zero
p985
(lp986
I100
asVonc
p987
(lp988
I46
aI182
asVhoop
p989
(lp990
I87
asVlionbird
p991
(lp992
I163
asVparser
p993
(lp994
I166
asVone
p995
(lp996
I64
asVgeorgi
p997
(lp998
I296
asVsailor
p999
(lp1000
I249
aI317
asVdatanet
p1001
(lp1002
I242
aI411
asVlegg
p1003
(lp1004
I18
asVmiss
p1005
(lp1006
I199
asVprinc
p1007
(lp1008
I33
aI382
asVhood
p1009
(lp1010
I348
asVtulliu
p1011
(lp1012
I435
asVdiffer
p1013
(lp1014
I201
asVtoy
p1015
(lp1016
I87
asVchristma
p1017
(lp1018
I75
asVdefect
p1019
(lp1020
I203
asVbagelman
p1021
(lp1022
I209
asVrokraven
p1023
(lp1024
I172
asVlillian
p1025
(lp1026
I268
asVfiction
p1027
(lp1028
I85
aI127
aI177
aI178
aI316
aI396
aI439
asVstork
p1029
(lp1030
I103
asVciti
p1031
(lp1032
I14
aI235
asVstori
p1033
(lp1034
I2
aI6
aI7
aI13
aI30
aI31
aI33
aI47
aI48
aI61
aI62
aI67
aI73
aI86
aI95
aI96
aI97
aI99
aI103
aI104
aI110
aI129
aI134
aI146
aI147
aI148
aI162
aI164
aI167
aI169
aI170
aI171
aI175
aI186
aI192
aI199
aI213
aI225
aI227
aI232
aI233
aI237
aI257
aI262
aI266
aI270
aI279
aI281
aI289
aI295
aI308
aI309
aI313
aI334
aI336
aI338
aI342
aI343
aI345
aI348
aI357
aI360
aI365
aI368
aI370
aI377
aI380
aI383
aI387
aI388
aI400
aI416
aI433
aI437
aI442
aI444
aI464
aI465
asVcircl
p1035
(lp1036
I250
asVcrow
p1037
(lp1038
I147
aI244
asVmathew
p1039
(lp1040
I442
asVwhite
p1041
(lp1042
I44
aI206
asVjohn
p1043
(lp1044
I146
aI276
aI299
aI399
aI413
asVfinal
p1045
(lp1046
I474
asVfriend
p1047
(lp1048
I73
aI291
asVgerth
p1049
(lp1050
I385
asVmanu
p1051
(lp1052
I301
asVoption
p1053
(lp1054
I108
asVkyli
p1055
(lp1056
I238
asVshawn
p1057
(lp1058
I267
aI294
aI358
asVted
p1059
(lp1060
I317
asVjuli
p1061
(lp1062
I34
aI90
aI117
aI122
aI328
aI340
asVfour point zero
p1063
(lp1064
I396
aI414
asVpark
p1065
(lp1066
I3
aI311
asVphreak
p1067
(lp1068
I266
asVyukon
p1069
(lp1070
I241
asVargon
p1071
(lp1072
I193
asVpart
p1073
(lp1074
I24
aI125
aI212
aI409
asVduckl
p1075
(lp1076
I149
asVcockroach
p1077
(lp1078
I354
asVperkel
p1079
(lp1080
I81
asVthree point zero
p1081
(lp1082
I169
aI258
aI355
asVnikolai
p1083
(lp1084
I182
asVone thousand, nine hundred and seventy-nine point zero
p1085
(lp1086
I353
asVrussello
p1087
(lp1088
I306
asVking
p1089
(lp1090
I148
asVkind
p1091
(lp1092
I201
asVscheme
p1093
(lp1094
I369
asVben
p1095
(lp1096
I1
aI47
aI229
aI349
asVjohnson
p1097
(lp1098
I422
asVlament
p1099
(lp1100
I36
asVtree
p1101
(lp1102
I115
aI217
aI303
aI352
asVgrey
p1103
(lp1104
I443
asVcharact
p1105
(lp1106
I69
asVderouen
p1107
(lp1108
I3
aI49
aI155
aI307
asVcabin
p1109
(lp1110
I272
asViron
p1111
(lp1112
I309
asVlover
p1113
(lp1114
I6
asVzaphod
p1115
(lp1116
I333
asVtoward
p1117
(lp1118
I237
asVdanc
p1119
(lp1120
I85
aI273
asVsean
p1121
(lp1122
I136
aI341
asVscreenplay
p1123
(lp1124
I27
aI144
asVplesco
p1125
(lp1126
I392
asVdonkey
p1127
(lp1128
I150
aI216
asVcomput
p1129
(lp1130
I154
asVangel
p1131
(lp1132
I438
asVcontradict
p1133
(lp1134
I404
asVfowl
p1135
(lp1136
I53
asVcraig
p1137
(lp1138
I392
asVann
p1139
(lp1140
I274
asVmind
p1141
(lp1142
I271
aI293
aI341
asVani
p1143
(lp1144
I168
asV13th
p1145
(lp1146
I427
asVtom
p1147
(lp1148
I366
asVrat
p1149
(lp1150
I428
asValphons
p1151
(lp1152
I360
asVbrunet
p1153
(lp1154
I404
asVallen
p1155
(lp1156
I222
asVone thousand, seven hundred and twenty-eight point zero
p1157
(lp1158
I413
asVcalendar
p1159
(lp1160
I390
asVkevin
p1161
(lp1162
I217
asVsuki
p1163
(lp1164
I202
asVimagin
p1165
(lp1166
I2
asVmermaid
p1167
(lp1168
I141
asVrealm
p1169
(lp1170
I464
aI465
aI466
aI467
aI468
aI469
aI470
aI471
aI472
aI473
aI474
aI475
aI477
asVrailleur
p1171
(lp1172
I316
asVklingon
p1173
(lp1174
I358
asVnilsson
p1175
(lp1176
I415
asVsnow
p1177
(lp1178
I101
aI137
asVcouch
p1179
(lp1180
I390
asVnote
p1181
(lp1182
I237
asVsei
p1183
(lp1184
I475
asVthoma
p1185
(lp1186
I94
aI112
aI153
aI371
aI402
asVpeshota
p1187
(lp1188
I130
aI278
aI390
aI451
asVbarn
p1189
(lp1190
I220
asVmassi
p1191
(lp1192
I27
asVrider
p1193
(lp1194
I226
asVone thousand, seven hundred and twenty-six point zero
p1195
(lp1196
I224
asVmose
p1197
(lp1198
I114
asVdudley
p1199
(lp1200
I299
asVplay
p1201
(lp1202
I189
aI463
asVmatriarch
p1203
(lp1204
I79
asVnineteen million, four hundred and fifty-one thousand, nine hundred and fifty-nine point zero
p1205
(lp1206
I70
asVmaiden
p1207
(lp1208
I137
asVpatrick
p1209
(lp1210
I115
aI220
asVwager
p1211
(lp1212
I78
aI378
asVflute
p1213
(lp1214
I219
asVjohnathan
p1215
(lp1216
I224
asVmario
p1217
(lp1218
I71
asVhillman
p1219
(lp1220
I276
aI331
asVeight
p1221
(lp1222
I90
asVplan
p1223
(lp1224
I24
aI240
asVletter
p1225
(lp1226
I70
aI268
asVprentic
p1227
(lp1228
I100
aI250
asVcabinet
p1229
(lp1230
I390
asVtranscript
p1231
(lp1232
I138
aI389
asVjean
p1233
(lp1234
I203
asVbirdlov
p1235
(lp1236
I52
asVcke
p1237
(lp1238
I164
asVsinger
p1239
(lp1240
I287
asVwilcox
p1241
(lp1242
I96
asVhanna
p1243
(lp1244
I14
aI236
aI352
asVjame
p1245
(lp1246
I18
aI125
aI179
aI255
aI409
asVdream
p1247
(lp1248
I91
aI116
aI156
aI207
aI361
asVborek
p1249
(lp1250
I315
asVdog
p1251
(lp1252
I5
asVgabl
p1253
(lp1254
I335
asVtalk
p1255
(lp1256
I91
asVkharianian
p1257
(lp1258
I92
asVaxe
p1259
(lp1260
I131
asVhedgehog
p1261
(lp1262
I38
aI122
aI243
aI304
aI344
aI355
aI384
aI410
aI414
asVsometh
p1263
(lp1264
I204
asVcame
p1265
(lp1266
I17
aI215
aI440
asVtranslat
p1267
(lp1268
I18
aI111
aI126
asVslope
p1269
(lp1270
I247
asVthicken
p1271
(lp1272
I116
asVcommerc
p1273
(lp1274
I184
aI476
asVbomb
p1275
(lp1276
I166
aI177
asVheap
p1277
(lp1278
I78
asVgold
p1279
(lp1280
I77
aI123
asVbhuddist
p1281
(lp1282
I93
asVdorothi
p1283
(lp1284
I302
asVtext
p1285
(lp1286
I160
asVqueen
p1287
(lp1288
I101
asVseven point zero
p1289
(lp1290
I53
aI384
aI469
asVtolstoy
p1291
(lp1292
I386
asVdopey
p1293
(lp1294
I232
asVearth
p1295
(lp1296
I426
asVfear
p1297
(lp1298
I211
aI394
asVtexa
p1299
(lp1300
I350
asVcrane
p1301
(lp1302
I173
asVsnarkout
p1303
(lp1304
I60
aI301
asVcarrah
p1305
(lp1306
I24
asVonli
p1307
(lp1308
I208
asVbuggi
p1309
(lp1310
I28
asVexecut
p1311
(lp1312
I208
asVtire
p1313
(lp1314
I35
aI430
asVpinocchio
p1315
(lp1316
I257
asVquaint
p1317
(lp1318
I334
asVwriter
p1319
(lp1320
I112
aI116
asVrestaur
p1321
(lp1322
I138
asVcupid
p1323
(lp1324
I320
asVadler
p1325
(lp1326
I349
asVvampyr
p1327
(lp1328
I80
asVblack
p1329
(lp1330
I205
aI226
asVrick
p1331
(lp1332
I151
aI404
asVrich
p1333
(lp1334
I154
aI319
asVistari
p1335
(lp1336
I59
asVharvey
p1337
(lp1338
I171
aI368
asVsylvia
p1339
(lp1340
I201
asVdiscuss
p1341
(lp1342
I248
asVmeant
p1343
(lp1344
I278
asVshepherd
p1345
(lp1346
I79
aI126
asVdm
p1347
(lp1348
I236
asVvariou
p1349
(lp1350
I380
asVget
p1351
(lp1352
I419
asVcannon
p1353
(lp1354
I353
asVde
p1355
(lp1356
I360
asVroberta
p1357
(lp1358
I379
asVbear
p1359
(lp1360
I45
aI299
aI398
aI400
asVfour hundred and fourteen point zero
p1361
(lp1362
I398
asVfastest
p1363
(lp1364
I19
asValaddin
p1365
(lp1366
I165
aI275
asVstocton
p1367
(lp1368
I185
asVthirty-seven point zero
p1369
(lp1370
I428
asVdr
p1371
(lp1372
I118
aI320
asVgem
p1373
(lp1374
I437
asVnarcissu
p1375
(lp1376
I377
asVblabnovela
p1377
(lp1378
I411
asValuminum
p1379
(lp1380
I364
asVashtray
p1381
(lp1382
I106
asVh
p1383
(lp1384
I228
aI284
aI292
aI305
asVcicero
p1385
(lp1386
I435
asVdisco
p1387
(lp1388
I58
aI119
asVreid
p1389
(lp1390
I54
asVbad
p1391
(lp1392
I185
asVroger
p1393
(lp1394
I96
aI97
aI132
aI212
asVmcallist
p1395
(lp1396
I347
asVmeara
p1397
(lp1398
I289
asVohio
p1399
(lp1400
I177
asVbrick
p1401
(lp1402
I143
asVsteal
p1403
(lp1404
I428
asVvision
p1405
(lp1406
I426
asVfive point zero
p1407
(lp1408
I130
aI304
aI430
asVlegaci
p1409
(lp1410
I472
asVmanli
p1411
(lp1412
I78
aI378
asVrobbi
p1413
(lp1414
I206
asVone thousand, nine hundred and eighty-seven point zero
p1415
(lp1416
I53
asVone thousand, nine hundred and eighty-eight point zero
p1417
(lp1418
I35
aI427
aI430
asVorphan
p1419
(lp1420
I72
asVtestosteron
p1421
(lp1422
I78
asVprojectil
p1423
(lp1424
I261
asVcrypt
p1425
(lp1426
I298
asVlion
p1427
(lp1428
I29
aI61
aI76
aI253
asVhistori
p1429
(lp1430
I71
aI219
asVasleep
p1431
(lp1432
I392
asVresult
p1433
(lp1434
I155
asVnineteen point zero
p1435
(lp1436
I93
aI238
aI408
asVclose
p1437
(lp1438
I201
asV11th
p1439
(lp1440
I17
aI58
aI119
aI209
aI215
aI431
asVbest
p1441
(lp1442
I178
aI285
aI291
aI365
aI463
asVwonder
p1443
(lp1444
I165
asVpete
p1445
(lp1446
I185
asVdungeon
p1447
(lp1448
I54
asVsix point zero
p1449
(lp1450
I122
aI243
asVcloset
p1451
(lp1452
I427
asVnuclear
p1453
(lp1454
I53
asVaway
p1455
(lp1456
I367
asVwillard
p1457
(lp1458
I186
asVdiscoveri
p1459
(lp1460
I450
asVone thousand, nine hundred and ninety-three point zero
p1461
(lp1462
I10
aI49
aI64
aI187
aI196
aI201
aI218
aI238
aI307
aI337
aI339
aI341
aI369
aI408
asVpickup
p1463
(lp1464
I452
asVfish
p1465
(lp1466
I46
aI123
asVbureau
p1467
(lp1468
I225
asVmelissa
p1469
(lp1470
I324
asVluf
p1471
(lp1472
I417
asVexperi
p1473
(lp1474
I89
aI339
asValtern
p1475
(lp1476
I27
asVwarrior
p1477
(lp1478
I395
asVdalla
p1479
(lp1480
I121
asVaugust
p1481
(lp1482
I35
aI196
aI430
asVwa
p1483
(lp1484
I16
aI46
aI75
aI150
aI278
aI285
aI399
asVkimberli
p1485
(lp1486
I274
asVbost
p1487
(lp1488
I40
aI55
aI264
aI268
aI269
aI286
aI376
aI446
aI453
asVjr
p1489
(lp1490
I276
asVpirat
p1491
(lp1492
I22
asVdeclercq
p1493
(lp1494
I367
asVone thousand, nine hundred and eighty-nine point zero
p1495
(lp1496
I90
aI118
aI122
aI132
aI172
aI189
aI243
aI304
aI344
aI355
aI384
aI414
asVjoe
p1497
(lp1498
I3
aI44
aI49
aI84
aI155
aI307
aI412
asVkey
p1499
(lp1500
I350
asVtwo thousand and thirty-eight point zero
p1501
(lp1502
I442
asVmazarin
p1503
(lp1504
I256
asVcome
p1505
(lp1506
I153
aI168
asVmarilyn
p1507
(lp1508
I184
asVjon
p1509
(lp1510
I326
asVaddit
p1511
(lp1512
I397
asVpadr
p1513
(lp1514
I350
asVc
p1515
(lp1516
I4
aI142
aI179
asVzachari
p1517
(lp1518
I125
aI255
aI322
aI409
asVlast
p1519
(lp1520
I32
aI74
asVthanksgiv
p1521
(lp1522
I191
asVcow
p1523
(lp1524
I164
asVsultan
p1525
(lp1526
I23
asVmyer
p1527
(lp1528
I287
asVbeacon
p1529
(lp1530
I267
asVedgar
p1531
(lp1532
I105
aI222
asVmarti
p1533
(lp1534
I291
asVapril
p1535
(lp1536
I53
aI427
asVmane
p1537
(lp1538
I253
asVforgotten
p1539
(lp1540
I51
asVami
p1541
(lp1542
I234
asVcountri
p1543
(lp1544
I67
asVlindman
p1545
(lp1546
I302
asVmartyr
p1547
(lp1548
I308
asVdomingo
p1549
(lp1550
I114
asVone thousand, nine hundred and ninety point zero
p1551
(lp1552
I100
aI158
aI179
aI250
aI329
asVheron
p1553
(lp1554
I129
asVbelinda
p1555
(lp1556
I379
asVsemihel
p1557
(lp1558
I89
asVjeff
p1559
(lp1560
I27
aI34
aI450
asVwall
p1561
(lp1562
I143
aI145
asVlj
p1563
(lp1564
I64
asVvain
p1565
(lp1566
I244
asVlodger
p1567
(lp1568
I290
asVarriv
p1569
(lp1570
I22
asVwalt
p1571
(lp1572
I288
asVabbey
p1573
(lp1574
I433
asVvessel
p1575
(lp1576
I156
asVguid
p1577
(lp1578
I54
asVdamag
p1579
(lp1580
I353
asVpoem
p1581
(lp1582
I8
aI80
aI102
aI211
aI260
aI263
aI303
aI318
aI354
asVultim
p1583
(lp1584
I170
asVdevil
p1585
(lp1586
I314
asVbeggar
p1587
(lp1588
I413
asVarcher
p1589
(lp1590
I71
asVhoward
p1591
(lp1592
I330
aI353
asVswift
p1593
(lp1594
I224
asVromero
p1595
(lp1596
I347
asVthree
p1597
(lp1598
I110
aI204
aI330
aI335
aI386
aI400
aI449
asVempti
p1599
(lp1600
I374
asVwilli
p1601
(lp1602
I288
asVfyler
p1603
(lp1604
I111
asVsecret
p1605
(lp1606
I161
asVbulwerlytton
p1607
(lp1608
I285
asVpoet
p1609
(lp1610
I251
asVfutur
p1611
(lp1612
I130
asVfeather
p1613
(lp1614
I239
asVbaskervil
p1615
(lp1616
I421
asVwarmth
p1617
(lp1618
I447
asVwalter
p1619
(lp1620
I56
asVcyclist
p1621
(lp1622
I152
asVlife
p1623
(lp1624
I50
aI389
aI425
asVvordahl
p1625
(lp1626
I121
asVimmorti
p1627
(lp1628
I319
asVgay
p1629
(lp1630
I40
aI55
aI264
aI268
aI269
aI286
aI376
aI413
aI446
aI453
asVfarmer
p1631
(lp1632
I270
asVandrew
p1633
(lp1634
I19
aI28
aI33
aI52
aI362
aI420
aI452
asVshrewd
p1635
(lp1636
I270
asVaroha
p1637
(lp1638
I247
asVjowka
p1639
(lp1640
I41
asVdave
p1641
(lp1642
I283
aI387
asVfrump
p1643
(lp1644
I387
asVkaltenbaugh
p1645
(lp1646
I311
aI323
aI373
asVspirit
p1647
(lp1648
I219
asVpresent
p1649
(lp1650
I246
asVstinker
p1651
(lp1652
I51
asVugli
p1653
(lp1654
I149
asVnovel
p1655
(lp1656
I12
aI109
aI157
aI242
aI405
asVfur
p1657
(lp1658
I438
asVez
p1659
(lp1660
I264
asVtinderbox
p1661
(lp1662
I99
asVcemeteri
p1663
(lp1664
I376
asVservic
p1665
(lp1666
I241
asVbill
p1667
(lp1668
I200
aI367
asVsay
p1669
(lp1670
I140
asVcask
p1671
(lp1672
I105
asVair
p1673
(lp1674
I313
asVsli
p1675
(lp1676
I13
asVtwenty-seven point zero
p1677
(lp1678
I90
asVgregg
p1679
(lp1680
I381
asVfun
p1681
(lp1682
I58
aI119
asVultra
p1683
(lp1684
I465
asVcock
p1685
(lp1686
I135
asVbealer
p1687
(lp1688
I283
aI387
asVearli
p1689
(lp1690
I451
asVseven
p1691
(lp1692
I25
aI43
aI249
asVgarag
p1693
(lp1694
I174
asVvalimaa
p1695
(lp1696
I228
asVreadi
p1697
(lp1698
I434
asVvi
p1699
(lp1700
I468
asVone thousand, nine hundred and eighty-six point zero
p1701
(lp1702
I84
aI177
aI412
asVmegayonk
p1703
(lp1704
I442
asViv
p1705
(lp1706
I409
aI466
asVii
p1707
(lp1708
I349
asVten point zero
p1709
(lp1710
I84
aI122
aI412
asVvs
p1711
(lp1712
I81
asVsherlock
p1713
(lp1714
I248
asVurethri
p1715
(lp1716
I89
asVcenturi
p1717
(lp1718
I284
aI292
aI305
asVcrash
p1719
(lp1720
I185
asVrid
p1721
(lp1722
I419
asVblab
p1723
(lp1724
I82
aI157
aI242
asVhelmet
p1725
(lp1726
I106
asVpinkwat
p1727
(lp1728
I301
asVdevelop
p1729
(lp1730
I278
asVwelcom
p1731
(lp1732
I322
asVauthor
p1733
(lp1734
I69
asVgoddess
p1735
(lp1736
I229
asVformat
p1737
(lp1738
I95
aI213
asVdealer
p1739
(lp1740
I206
asVx2
p1741
(lp1742
I477
asVmatthew
p1743
(lp1744
I12
aI342
asVone point zero
p1745
(lp1746
I24
aI404
aI406
asVgrang
p1747
(lp1748
I433
asVkarl
p1749
(lp1750
I145
asVunderground
p1751
(lp1752
I467
asVfabl
p1753
(lp1754
I1
aI9
aI15
aI23
aI29
aI42
aI45
aI76
aI98
aI101
aI111
aI135
aI137
aI141
aI149
aI194
aI195
aI214
aI270
aI310
aI312
aI327
aI356
aI382
aI391
aI395
aI401
asVshah
p1755
(lp1756
I175
asVdocument
p1757
(lp1758
I372
asVjerri
p1759
(lp1760
I109
asVconflict
p1761
(lp1762
I403
asVtwenty-three point zero
p1763
(lp1764
I328
aI340
asVweek
p1765
(lp1766
I365
asVsafe
p1767
(lp1768
I142
asVweiss
p1769
(lp1770
I291
asVdakota
p1771
(lp1772
I136
asVslatteri
p1773
(lp1774
I39
asVarctic
p1775
(lp1776
I250
asVupon
p1777
(lp1778
I182
asVsomeon
p1779
(lp1780
I91
asVrain
p1781
(lp1782
I85
asVbeast
p1783
(lp1784
I167
aI439
asVfruit
p1785
(lp1786
I346
asVdeth
p1787
(lp1788
I53
asVstudent
p1789
(lp1790
I449
asVsuzi
p1791
(lp1792
I210
asVengin
p1793
(lp1794
I130
aI325
asVmcpherson
p1795
(lp1796
I4
aI142
asVweep
p1797
(lp1798
I115
aI223
asVweird
p1799
(lp1800
I91
asVkid
p1801
(lp1802
I43
aI96
asVrift
p1803
(lp1804
I136
asVvarga
p1805
(lp1806
I19
aI28
aI33
aI52
aI362
aI420
aI452
asVfifty-three point zero
p1807
(lp1808
I100
asVgretel
p1809
(lp1810
I391
asVwell
p1811
(lp1812
I254
asVfusion
p1813
(lp1814
I106
asVaisl
p1815
(lp1816
I65
aI124
asVthought
p1817
(lp1818
I150
asVcronenberg
p1819
(lp1820
I11
asVchees
p1821
(lp1822
I323
asVpoplar
p1823
(lp1824
I98
asVthi
p1825
(lp1826
I440
asVenglish
p1827
(lp1828
I126
asVdrie
p1829
(lp1830
I159
asVprogramm
p1831
(lp1832
I315
asVeveryth
p1833
(lp1834
I389
asVmodem
p1835
(lp1836
I260
asVfittest
p1837
(lp1838
I471
asVleft
p1839
(lp1840
I108
asVtaxi
p1841
(lp1842
I283
asVdistanc
p1843
(lp1844
I176
asVkzap
p1845
(lp1846
I231
asVpaus
p1847
(lp1848
I302
asVrocket
p1849
(lp1850
I97
asVposzar
p1851
(lp1852
I272
aI329
aI345
asVx1
p1853
(lp1854
I477
asVjeroen
p1855
(lp1856
I159
asVraymundo
p1857
(lp1858
I44
asVpsych
p1859
(lp1860
I320
asVhuman
p1861
(lp1862
I11
asVcape
p1863
(lp1864
I66
asVvigilant
p1865
(lp1866
I128
asVpaul
p1867
(lp1868
I368
aI385
aI405
asVglue
p1869
(lp1870
I109
asVtobi
p1871
(lp1872
I282
asVlanguag
p1873
(lp1874
I166
asVnixon
p1875
(lp1876
I284
aI292
aI305
asVbagel
p1877
(lp1878
I431
asVdetac
p1879
(lp1880
I84
asVdeath
p1881
(lp1882
I53
aI60
aI259
aI301
aI396
aI408
asVeighteen point zero
p1883
(lp1884
I289
aI451
asVroccatani
p1885
(lp1886
I143
asVrose
p1887
(lp1888
I210
asVbell
p1889
(lp1890
I273
asVsky
p1891
(lp1892
I350
asVlittl
p1893
(lp1894
I44
aI75
aI113
aI123
aI141
aI169
aI310
aI334
aI348
aI357
aI416
asVday
p1895
(lp1896
I84
aI364
aI412
aI415
aI451
asVboard
p1897
(lp1898
I211
asVrenaud
p1899
(lp1900
I463
aI464
aI465
aI466
aI467
aI468
aI469
aI470
aI471
aI472
aI473
aI474
aI475
aI476
aI477
asVe477439
p1901
(lp1902
I36
asVfurri
p1903
(lp1904
I72
asVelv
p1905
(lp1906
I83
asVsmart
p1907
(lp1908
I166
asVboom
p1909
(lp1910
I406
asVkingdom
p1911
(lp1912
I200
asVstartup
p1913
(lp1914
I451
asVmarch
p1915
(lp1916
I172
asVsick
p1917
(lp1918
I96
asVfate
p1919
(lp1920
I282
asVmayb
p1921
(lp1922
I144
asVread
p1923
(lp1924
I277
asVbig
p1925
(lp1926
I66
asVladi
p1927
(lp1928
I298
asVpiec
p1929
(lp1930
I90
asVbrambl
p1931
(lp1932
I321
asVdark
p1933
(lp1934
I12
aI63
aI285
aI342
aI448
asVdoyl
p1935
(lp1936
I421
asVgame
p1937
(lp1938
I54
aI202
aI463
asVquest
p1939
(lp1940
I131
asVfive
p1941
(lp1942
I388
asVworld
p1943
(lp1944
I19
aI136
aI153
asVshadow
p1945
(lp1946
I436
asVshaw
p1947
(lp1948
I288
asVhamelin
p1949
(lp1950
I180
asVobstin
p1951
(lp1952
I21
asVresid
p1953
(lp1954
I68
asVramsack
p1955
(lp1956
I90
asVgift
p1957
(lp1958
I75
asVconfront
p1959
(lp1960
I466
asVhunt
p1961
(lp1962
I15
aI62
asVporcupin
p1963
(lp1964
I214
asVaquith
p1965
(lp1966
I245
asVtreason
p1967
(lp1968
I435
asVcollect
p1969
(lp1970
I158
aI172
aI251
aI286
aI380
aI397
aI439
asVprincip
p1971
(lp1972
I81
asVvoyag
p1973
(lp1974
I132
aI249
asVmosquito
p1975
(lp1976
I29
asVnight
p1977
(lp1978
I221
aI285
aI441
asVtrichoseru
p1979
(lp1980
I346
asVcandl
p1981
(lp1982
I56
asVsoft
p1983
(lp1984
I372
asVamin
p1985
(lp1986
I195
asVnineteen million, nine hundred and eleven thousand, nine hundred and ninety-two point zero
p1987
(lp1988
I405
asVencount
p1989
(lp1990
I201
aI266
asVsketch
p1991
(lp1992
I117
asVold
p1993
(lp1994
I25
aI298
aI393
aI394
asVmelani
p1995
(lp1996
I156
asVporretto
p1997
(lp1998
I74
aI239
asVslagathor
p1999
(lp2000
I340
asVdescent
p2001
(lp2002
I183
asVexcerpt
p2003
(lp2004
I301
aI436
asVback
p2005
(lp2006
I405
asVdead
p2007
(lp2008
I347
asVdougla
p2009
(lp2010
I85
aI138
aI369
aI389
asVmahler
p2011
(lp2012
I405
asVnovelrip
p2013
(lp2014
I82
asVsight
p2015
(lp2016
I196
asVsinbad
p2017
(lp2018
I249
asVpeter
p2019
(lp2020
I205
asVblaster
p2021
(lp2022
I434
asVthiev
p2023
(lp2024
I262
asVpoe
p2025
(lp2026
I77
aI105
aI222
asVchronicl
p2027
(lp2028
I349
asVchamber
p2029
(lp2030
I399
asVminer
p2031
(lp2032
I115
asVfebruari
p2033
(lp2034
I229
aI337
asVjackmac
p2035
(lp2036
I450
asVmoon
p2037
(lp2038
I126
aI396
asVbruce
p2039
(lp2040
I131
aI407
asVcondit
p2041
(lp2042
I313
asVcarpent
p2043
(lp2044
I12
aI342
asVduplic
p2045
(lp2046
I288
asVdice
p2047
(lp2048
I54
asVrefer
p2049
(lp2050
I248
asVmachin
p2051
(lp2052
I179
aI254
asVpeek
p2053
(lp2054
I221
asVrun
p2055
(lp2056
I30
asVba
p2057
(lp2058
I415
asVtwenty-five point zero
p2059
(lp2060
I10
aI344
asVbc
p2061
(lp2062
I365
asVhuber
p2063
(lp2064
I94
aI112
aI153
aI371
aI402
asVburn
p2065
(lp2066
I4
asVwisteria
p2067
(lp2068
I198
asVslavin
p2069
(lp2070
I234
asVbroken
p2071
(lp2072
I238
asVshindar
p2073
(lp2074
I441
asVtinker
p2075
(lp2076
I87
asVsqueez
p2077
(lp2078
I189
asVcrim
p2079
(lp2080
I163
asVjanuari
p2081
(lp2082
I130
aI442
asVfeyen
p2083
(lp2084
I197
asVlucillu
p2085
(lp2086
I78
aI378
aI441
asVr
p2087
(lp2088
I163
aI228
aI276
asVsuper
p2089
(lp2090
I242
aI411
asVvengeanc
p2091
(lp2092
I332
asVvon
p2093
(lp2094
I185
asVerni
p2095
(lp2096
I17
aI215
asVstone
p2097
(lp2098
I256
asVconrad
p2099
(lp2100
I63
asVdiner
p2101
(lp2102
I399
asVsre
p2103
(lp2104
I385
aI463
aI476
asVisland
p2105
(lp2106
I161
aI265
asVgregori
p2107
(lp2108
I177
asVmarc
p2109
(lp2110
I79
aI81
asVliteratur
p2111
(lp2112
I226
aI246
asVscott
p2113
(lp2114
I403
asVvalentin
p2115
(lp2116
I186
aI415
asVvanworm
p2117
(lp2118
I87
asVwolf
p2119
(lp2120
I43
aI173
aI300
aI432
asVissu
p2121
(lp2122
I252
aI258
aI406
asVwest
p2123
(lp2124
I100
aI350
asVtwenty point zero
p2125
(lp2126
I337
asVnovella
p2127
(lp2128
I245
aI361
asVemperor
p2129
(lp2130
I386
aI423
asVencamp
p2131
(lp2132
I441
asVallianc
p2133
(lp2134
I468
asVcharl
p2135
(lp2136
I273
asVone thousand, nine hundred and eighty-four point zero
p2137
(lp2138
I164
aI211
asVtelephon
p2139
(lp2140
I7
asVyve
p2141
(lp2142
I245
asVdreamworld
p2143
(lp2144
I333
asVhometown
p2145
(lp2146
I234
asVherbert
p2147
(lp2148
I64
asVencod
p2149
(lp2150
I453
asVsurviv
p2151
(lp2152
I471
asVtwelve point zero
p2153
(lp2154
I229
aI243
aI304
asVseventeen point zero
p2155
(lp2156
I208
aI384
asVone thousand, nine hundred and ninety-five point zero
p2157
(lp2158
I87
aI182
aI252
aI258
aI267
aI289
aI406
asVsavag
p2159
(lp2160
I261
asVyahoo
p2161
(lp2162
I177
asVsteven
p2163
(lp2164
I287
asVeight point zero
p2165
(lp2166
I38
asVcharli
p2167
(lp2168
I181
asVtownsend
p2169
(lp2170
I111
asVvan
p2171
(lp2172
I159
asVpictur
p2173
(lp2174
I379
asVstainless
p2175
(lp2176
I428
asVkampf
p2177
(lp2178
I322
asVquestion
p2179
(lp2180
I386
asVlom
p2181
(lp2182
I65
aI124
aI188
aI260
aI359
asVode
p2183
(lp2184
I120
aI408
asVjoseph
p2185
(lp2186
I63
asVinterfac
p2187
(lp2188
I40
asVrw
p2189
(lp2190
I131
asVway
p2191
(lp2192
I234
asVed
p2193
(lp2194
I187
aI213
aI218
aI246
aI339
asVpanacea
p2195
(lp2196
I294
asVwar
p2197
(lp2198
I72
aI76
aI271
asVpeel
p2199
(lp2200
I367
asVbert
p2201
(lp2202
I17
aI215
aI373
asVcricket
p2203
(lp2204
I312
asVnorth
p2205
(lp2206
I100
aI136
asVagn
p2207
(lp2208
I269
asVdegener
p2209
(lp2210
I188
aI359
asVbrand
p2211
(lp2212
I276
asVcollin
p2213
(lp2214
I434
asVidea
p2215
(lp2216
I440
asVcloth
p2217
(lp2218
I423
asVheat
p2219
(lp2220
I238
asVhi
p2221
(lp2222
I69
asVgain
p2223
(lp2224
I261
asVsolar
p2225
(lp2226
I464
aI465
aI466
aI467
aI468
aI469
aI470
aI471
aI472
aI473
aI474
aI475
aI477
asVe
p2227
(lp2228
I381
aI434
asVline
p2229
(lp2230
I44
asVha
p2231
(lp2232
I91
aI177
asVtrue
p2233
(lp2234
I368
aI464
asVbug
p2235
(lp2236
I77
asVknucklebon
p2237
(lp2238
I295
asVpenguin
p2239
(lp2240
I296
asVlynn
p2241
(lp2242
I179
asVmade
p2243
(lp2244
I273
asVwise
p2245
(lp2246
I416
asVjosh
p2247
(lp2248
I463
aI464
aI465
aI466
aI467
aI468
aI469
aI470
aI471
aI472
aI473
aI474
aI475
aI476
aI477
asVpossibl
p2249
(lp2250
I203
asVwish
p2251
(lp2252
I64
aI110
aI178
asVmurphi
p2253
(lp2254
I397
asVstaeorra
p2255
(lp2256
I172
asVus
p2257
(lp2258
I371
aI408
asVplanet
p2259
(lp2260
I322
asVmain
p2261
(lp2262
I69
asVproblem
p2263
(lp2264
I192
asVrobotech
p2265
(lp2266
I436
asVdarker
p2267
(lp2268
I385
asVgone
p2269
(lp2270
I185
asVv
p2271
(lp2272
I467
asVae
p2273
(lp2274
I296
asVopera
p2275
(lp2276
I413
asVtodd
p2277
(lp2278
I319
asVdeer
p2279
(lp2280
I362
asVmike
p2281
(lp2282
I120
aI306
asVpig
p2283
(lp2284
I169
asVnovemb
p2285
(lp2286
I451
asVconan
p2287
(lp2288
I421
asVabbot
p2289
(lp2290
I293
asVfile
p2291
(lp2292
I390
asVprayer
p2293
(lp2294
I191
asVpip
p2295
(lp2296
I388
asVcolin
p2297
(lp2298
I181
aI351
asVhound
p2299
(lp2300
I421
asVgecko
p2301
(lp2302
I338
asVhappen
p2303
(lp2304
I32
asVcheezi
p2305
(lp2306
I294
asVabyss
p2307
(lp2308
I425
asVkazik
p2309
(lp2310
I470
asVburrough
p2311
(lp2312
I11
aI70
aI117
aI191
aI211
aI230
aI259
aI271
aI280
aI424
asVcontest
p2313
(lp2314
I285
asVgomez
p2315
(lp2316
I341
asVpuss
p2317
(lp2318
I86
asVcliffhang
p2319
(lp2320
I263
asVboot
p2321
(lp2322
I86
asVdetail
p2323
(lp2324
I308
asVsaturday
p2325
(lp2326
I441
asVtin
p2327
(lp2328
I444
aI447
asVbook
p2329
(lp2330
I57
aI136
aI139
aI248
aI252
aI258
aI436
asVarchdukebishop
p2331
(lp2332
I350
asVarrr
p2333
(lp2334
I22
asVrememb
p2335
(lp2336
I197
asVtest
p2337
(lp2338
I146
asVrealiti
p2339
(lp2340
I297
asVnineteen million, nine hundred and twenty-one thousand, nine hundred and ninety-three point zero
p2341
(lp2342
I284
aI292
aI305
asVimp
p2343
(lp2344
I187
asVmusician
p2345
(lp2346
I133
asVblevin
p2347
(lp2348
I203
asVcorcoran
p2349
(lp2350
I407
asVmechwarrior
p2351
(lp2352
I85
asVenya
p2353
(lp2354
I126
asVjune
p2355
(lp2356
I84
aI118
aI243
aI304
aI355
aI384
aI412
aI414
asVpepsi
p2357
(lp2358
I188
aI359
asVone thousand, nine hundred and sixty-six point zero
p2359
(lp2360
I280
asVmorpheou
p2361
(lp2362
I65
aI124
aI188
aI260
aI359
asVwilliam
p2363
(lp2364
I11
aI39
aI70
aI117
aI191
aI211
aI230
aI259
aI271
aI280
aI424
aI434
asVfoil
p2365
(lp2366
I442
asVretribut
p2367
(lp2368
I420
asVbeeblebrox
p2369
(lp2370
I333
asVkingsley
p2371
(lp2372
I182
asVforty point zero
p2373
(lp2374
I262
asVdoubl
p2375
(lp2376
I203
asVveil
p2377
(lp2378
I290
asVpeac
p2379
(lp2380
I426
asVlang
p2381
(lp2382
I326
asVspectacl
p2383
(lp2384
I222
asVtemptress
p2385
(lp2386
I372
asVland
p2387
(lp2388
I332
asVthaddeu
p2389
(lp2390
I49
asVeighty-four point zero
p2391
(lp2392
I42
asVmartin
p2393
(lp2394
I156
aI163
asVone thousand, nine hundred and ninety-two point zero
p2395
(lp2396
I11
aI89
aI93
aI130
aI176
aI229
aI274
aI362
aI442
asVrule
p2397
(lp2398
I330
aI397
asVhotlin
p2399
(lp2400
I125
aI255
aI409
asVdepth
p2401
(lp2402
I287
asVminimanuscript
p2403
(lp2404
I185
asVnapoleon
p2405
(lp2406
I418
asVadam
p2407
(lp2408
I138
aI272
aI329
aI345
aI389
asVtime
p2409
(lp2410
I192
aI203
aI254
aI314
aI446
asVdecemb
p2411
(lp2412
I390
asVsickl
p2413
(lp2414
I438
asVrampag
p2415
(lp2416
I398
asVblanston
p2417
(lp2418
I246
as.