(dp0
S'igiv'
p1
I94
sS'weeprncs.txt'
p2
I223
sS'tcoa.txt'
p3
I105
sS'aminegg.txt'
p4
I195
sS'ccm.txt'
p5
I135
sS'bulphrek.txt'
p6
I266
sS'haretort.txt'
p7
I9
sS'beautbst.txt'
p8
I167
sS'tinsoldr.txt'
p9
I444
sS'domain.poe'
p10
I375
sS'alissadl.txt'
p11
I23
sS'zombies.txt'
p12
I347
sS'blackp.txt'
p13
I205
sS'18.lws'
p14
I390
sS'forgotte'
p15
I51
sS'batlslau.txt'
p16
I397
sS'fantas.hum'
p17
I381
sS'fowl.death'
p18
I53
sS'the-tree.txt'
p19
I303
sS'fantasy.txt'
p20
I82
sS'lionmosq.txt'
p21
I29
sS'blossom.pom'
p22
I334
sS'altside.hum'
p23
I27
sS'wall.art'
p24
I145
sS'aircon.txt'
p25
I313
sS'enya_trn.txt'
p26
I126
sS'silverb.txt'
p27
I281
sS'tearglas.txt'
p28
I274
sS'dwar'
p29
I159
sS'discocanbefun.txt'
p30
I119
sS'bulolli2.txt'
p31
I212
sS'kzap.txt'
p32
I231
sS'omarsheh.txt'
p33
I382
sS'aluminum.hum'
p34
I364
sS'buldream.txt'
p35
I333
sS'elveshoe.txt'
p36
I83
sS'17.lws'
p37
I451
sS'nigel.10'
p38
I122
sS'blue'
p39
I151
sS'flytrunk.txt'
p40
I31
sS'tctac.txt'
p41
I354
sS'excerpt.txt'
p42
I301
sS'3wishes.txt'
p43
I110
sS'wombat.und'
p44
I338
sS'hareporc.txt'
p45
I214
sS'valen'
p46
I186
sS'tao3.dos'
p47
I18
sS'retrib.txt'
p48
I420
sS'7oldsamr.txt'
p49
I25
sS'wolflamb.txt'
p50
I300
sS'3sonnets.vrs'
p51
I172
sS'diaryflf.txt'
p52
I88
sS'knuckle.txt'
p53
I295
sS'angelfur.hum'
p54
I438
sS'goldenp.txt'
p55
I190
sS'shrdfarm.txt'
p56
I270
sS'girlclub.txt'
p57
I351
sS'ezoff'
p58
I264
sS'startrek.txt'
p59
I170
sS'dakota.txt'
p60
I136
sS'ab40thv.txt'
p61
I262
sS'sanpedr2.txt'
p62
I346
sS'flute.txt'
p63
I219
sS'eyeargon.hum'
p64
I193
sS'lure.txt'
p65
I372
sS'assorted.txt'
p66
I177
sS'19.lws'
p67
I130
sS'perf'
p68
I379
sS'SRE/sre02.txt'
p69
I464
sS'superg1'
p70
I48
sS'non4'
p71
I294
sS'non3'
p72
I64
sS'non2'
p73
I307
sS'3gables.txt'
p74
I335
sS'4moons.txt'
p75
I396
sS'hotline1.txt'
p76
I255
sS'crazy.hum'
p77
I109
sS'jerichms.hum'
p78
I143
sS'beast.asc'
p79
I439
sS'imonly17.txt'
p80
I208
sS'breaks1.asc'
p81
I292
sS'mouslion.txt'
p82
I61
sS'13chil.txt'
p83
I13
sS'contrad1.hum'
p84
I404
sS'abbey.txt'
p85
I433
sS'SRE/.header'
p86
I460
sS'chik'
p87
I14
sS'social.vikings'
p88
I430
sS'sleprncs.txt'
p89
I327
sS'friends.txt'
p90
I73
sS'pepsi.degenerat'
p91
I359
sS'blackrdr'
p92
I226
sS'corcor.hum'
p93
I407
sS'sis'
p94
I269
sS'enc'
p95
I453
sS'bulmrx.txt'
p96
I168
sS'quot'
p97
I251
sS'SRE/sre05.txt'
p98
I467
sS'hellmach.txt'
p99
I179
sS'bruce-p.txt'
p100
I240
sS'write'
p101
I330
sS'wolfcran.txt'
p102
I173
sS'greatlrn.leg'
p103
I160
sS'toilet.s'
p104
I200
sS'hotline3.txt'
p105
I125
sS'fran'
p106
I323
sS'hitch2.txt'
p107
I138
sS'hareleph.txt'
p108
I194
sS'cardcnt.txt'
p109
I228
sS'burltrs'
p110
I70
sS'sre-dark.txt'
p111
I385
sS'narciss.txt'
p112
I377
sS'fourth.fic'
p113
I34
sS'bulwer.lytton'
p114
I285
sS'20.lws'
p115
I278
sS'aislesix.txt'
p116
I65
sS'cabin.txt'
p117
I272
sS'fantasy.hum'
p118
I157
sS'imagin.hum'
p119
I2
sS'game.txt'
p120
I202
sS'tailbear.txt'
p121
I45
sS'excerpt.hum'
p122
I60
sS'jackbstl.txt'
p123
I233
sS'hole2nar.txt'
p124
I16
sS'alad10.txt'
p125
I165
sS'terrorbears.txt'
p126
I398
sS'psf.txt'
p127
I445
sS'SRE/sre_sei.txt'
p128
I475
sS'paink-ws.txt'
p129
I39
sS'goldgoos.txt'
p130
I26
sS'mcdonaldl.txt'
p131
I412
sS'spam.key'
p132
I350
sS'wrt'
p133
I112
sS'keepmodu.txt'
p134
I37
sS'partya.txt'
p135
I32
sS'5orange.txt'
p136
I388
sS'6napolen.txt'
p137
I418
sS'dan'
p138
I273
sS'safe'
p139
I142
sS'home.fil'
p140
I239
sS'bulironb.txt'
p141
I309
sS'szechuan'
p142
I283
sS'SRE/sre06.txt'
p143
I468
sS'SRE/sre10.txt'
p144
I472
sS'wanderer.fun'
p145
I8
sS'jaynejob.asc'
p146
I50
sS'campfire.txt'
p147
I365
sS'SRE/.musings'
p148
I461
sS'rock'
p149
I236
sS'buldetal.txt'
p150
I308
sS'korea.s'
p151
I72
sS'island.poe'
p152
I265
sS'pphamlin.txt'
p153
I180
sS'SRE/sre09.txt'
p154
I471
sS'gemdra.txt'
p155
I437
sS'mtinder.txt'
p156
I99
sS'bumm'
p157
I402
sS'hansgrtl.txt'
p158
I391
sS'girl'
p159
I207
sS'greedog.txt'
p160
I5
sS'7voysinb.txt'
p161
I249
sS'outcast.dos'
p162
I277
sS'hils'
p163
I184
sS'snowqn1.txt'
p164
I101
sS'bulhuntr.txt'
p165
I62
sS'SRE/.descs'
p166
I459
sS'taxnovel.txt'
p167
I405
sS'gold3ber.txt'
p168
I400
sS'beyond.hum'
p169
I121
sS'bgcspoof.txt'
p170
I442
sS'SRE/srex.txt'
p171
I477
sS'ltp'
p172
I352
sS'times.fic'
p173
I203
sS'paul_har.sto'
p174
I368
sS'bestwish'
p175
I178
sS'redragon.txt'
p176
I356
sS'blabnove.txt'
p177
I411
sS'mario.txt'
p178
I71
sS'qcarroll'
p179
I317
sS'wlgirl.txt'
p180
I416
sS'lionmane.txt'
p181
I253
sS'FARNON/.footer'
p182
I455
sS'emperor3.txt'
p183
I386
sS'hotline4.txt'
p184
I409
sS'spectacl.poe'
p185
I222
sS'FARNON/.header'
p186
I456
sS'abyss.txt'
p187
I425
sS'angry_ca.txt'
p188
I263
sS'cybersla.txt'
p189
I57
sS'kneeslapper'
p190
I328
sS'progx'
p191
I315
sS'testpilo.hum'
p192
I146
sS'lionwar.txt'
p193
I76
sS'advsayed.txt'
p194
I140
sS'curious.george'
p195
I296
sS't_zone.jok'
p196
I336
sS'index.html'
p197
I363
sS'how.ernie.bert'
p198
I17
sS'sight.txt'
p199
I95
sS'blh.txt'
p200
I52
sS'brain.damage'
p201
I353
sS'bgb.txt'
p202
I185
sS'yukon.txt'
p203
I241
sS'tree.txt'
p204
I217
sS'hitch3.txt'
p205
I389
sS'bookem.1'
p206
I406
sS'bulfelis.txt'
p207
I6
sS'thanksg'
p208
I191
sS'lil'
p209
I268
sS'timem.hac'
p210
I254
sS'breaks2.asc'
p211
I284
sS'horsdonk.txt'
p212
I216
sS'rocket.sf'
p213
I97
sS'whgdsreg.reg'
p214
I229
sS'panama.txt'
p215
I69
sS'SRE/sre_feqh.txt'
p216
I473
sS'ladylust.hum'
p217
I440
sS'burintrv.66'
p218
I280
sS'long1-3.txt'
p219
I176
sS'lrrhood.txt'
p220
I348
sS'parotsha.txt'
p221
I175
sS'myeyes'
p222
I318
sS'empty.txt'
p223
I374
sS'floc'
p224
I79
sS'healer.txt'
p225
I47
sS'SRE/index.html'
p226
I462
sS'obstgoat.txt'
p227
I21
sS'cooldark.txt'
p228
I342
sS'enginer.txt'
p229
I325
sS'pepdegener.txt'
p230
I188
sS'consumdr.hum'
p231
I156
sS'timetrav.txt'
p232
I192
sS'stairdre.txt'
p233
I59
sS'nihgel_8.9'
p234
I38
sS'fleas.txt'
p235
I345
sS'freeman.fil'
p236
I74
sS'clon'
p237
I371
sS'cow.exploder'
p238
I164
sS'dicegame.txt'
p239
I54
sS'fea1'
p240
I87
sS'fea2'
p241
I358
sS'fea3'
p242
I155
sS'vaincrow.txt'
p243
I244
sS'sunday.txt'
p244
I337
sS'hound-b.txt'
p245
I421
sS'friend.s'
p246
I291
sS'mindprob.txt'
p247
I293
sS'arctic.txt'
p248
I250
sS'grav'
p249
I376
sS'bagel.man'
p250
I431
sS'elite.app'
p251
I127
sS'life.txt'
p252
I237
sS'gloves.txt'
p253
I75
sS'clevdonk.txt'
p254
I150
sS'dicksong.txt'
p255
I78
sS'buggy.txt'
p256
I28
sS'empsjowk.txt'
p257
I41
sS'candle.hum'
p258
I56
sS'telefone.txt'
p259
I7
sS'thewave'
p260
I93
sS'3lpigs.txt'
p261
I169
sS'spider.txt'
p262
I19
sS'poplstrm.txt'
p263
I98
sS'3student.txt'
p264
I449
sS'luf'
p265
I417
sS'dopedenn.txt'
p266
I232
sS'traitor.txt'
p267
I435
sS'withdraw.cyb'
p268
I89
sS'idi.hum'
p269
I20
sS'comp'
p270
I154
sS'kneeslapper.txt'
p271
I340
sS'history5.txt'
p272
I247
sS'lgoldbrd.txt'
p273
I310
sS'foxngrap.txt'
p274
I370
sS'bullove.txt'
p275
I204
sS'solitary.txt'
p276
I152
sS'SRE/sre04.txt'
p277
I466
sS'vainsong.txt'
p278
I378
sS'bran'
p279
I276
sS'bram'
p280
I321
sS'lmtchgrl.txt'
p281
I113
sS'space.txt'
p282
I329
sS'aisle.six'
p283
I124
sS'beggars.txt'
p284
I413
sS'snow.txt'
p285
I213
sS'hell4.txt'
p286
I360
sS'bookem2'
p287
I252
sS'bookem3'
p288
I258
sS'blasters.fic'
p289
I434
sS'jackmac.fic'
p290
I450
sS'gay'
p291
I286
sS'cmoutmou.txt'
p292
I67
sS'mydream.txt'
p293
I91
sS'dskool.txt'
p294
I361
sS'cum'
p295
I153
sS'kharian.txt'
p296
I92
sS'goldfish.txt'
p297
I123
sS'bulzork1.txt'
p298
I162
sS'holmesbk.txt'
p299
I248
sS'snowmaid.txt'
p300
I137
sS'lpeargrl.txt'
p301
I357
sS'vgilante.txt'
p302
I128
sS'blabnove.hum'
p303
I242
sS'darkness.txt'
p304
I63
sS'prince.art'
p305
I81
sS'radar_ra.txt'
p306
I316
sS'blak'
p307
I311
sS'rainda.txt'
p308
I85
sS'spiders.txt'
p309
I171
sS'immorti.hum'
p310
I319
sS'foxnstrk.txt'
p311
I103
sS'empnclot.txt'
p312
I423
sS'SRE/sre08.txt'
p313
I470
sS'mindwar'
p314
I271
sS'SRE/sre_finl.txt'
p315
I474
sS'socialvikings.txt'
p316
I35
sS'bishop00.txt'
p317
I369
sS'poem-4.txt'
p318
I408
sS'bulolli1.txt'
p319
I132
sS'adler.txt'
p320
I349
sS'blind.txt'
p321
I196
sS'day.in.mcdonald'
p322
I84
sS'lionbird'
p323
I163
sS'SRE/sre07.txt'
p324
I469
sS'bagelman.txt'
p325
I209
sS'mazarin.txt'
p326
I256
sS'flktrp.txt'
p327
I289
sS'uglyduck.txt'
p328
I149
sS'fgoose.txt'
p329
I104
sS'burintrv.92'
p330
I11
sS'disco.be.fun'
p331
I58
sS'floobs.txt'
p332
I118
sS'jim.asc'
p333
I139
sS'stsgreek'
p334
I49
sS'roger1.txt'
p335
I68
sS'sick-kid.txt'
p336
I96
sS'bluebrd.txt'
p337
I107
sS'sucker.txt'
p338
I448
sS'mike.txt'
p339
I120
sS'burintrv.78'
p340
I117
sS'FARNON/.windex.html'
p341
I457
sS'pussboot.txt'
p342
I86
sS'fear.hum'
p343
I394
sS'tin'
p344
I447
sS'wisteria.txt'
p345
I198
sS'dtruck.txt'
p346
I452
sS'asop'
p347
I298
sS'tuc_mees'
p348
I246
sS'shulk.txt'
p349
I15
sS'reality.txt'
p350
I297
sS'wolf7kid.txt'
p351
I43
sS'bureau.txt'
p352
I225
sS'melissa.txt'
p353
I324
sS'sqzply.txt'
p354
I189
sS'psi'
p355
I331
sS'adv_alad.txt'
p356
I275
sS'frogp.txt'
p357
I33
sS'quest'
p358
I131
sS'gatherng.txt'
p359
I158
sS'reap'
p360
I55
sS'bigred.hum'
p361
I66
sS'fred.txt'
p362
I279
sS'peace.fun'
p363
I426
sS'poem-1.txt'
p364
I10
sS'vampword.txt'
p365
I80
sS'musgrave.txt'
p366
I227
sS'pregn.txt'
p367
I302
sS'glimpse1.txt'
p368
I341
sS'shoscomb.txt'
p369
I393
sS'inter'
p370
I40
sS'cooldark.sto'
p371
I12
sS'deal'
p372
I206
sS'immortal'
p373
I424
sS'enchdup.hum'
p374
I288
sS'hop-frog.poe'
p375
I343
sS'psyc'
p376
I320
sS's&m_that'
p377
I399
sS'16.lws'
p378
I174
sS'keeping.insanit'
p379
I427
sS'aesop11.txt'
p380
I111
sS'frum'
p381
I387
sS'FARNON/index.html'
p382
I458
sS'vday.hum'
p383
I415
sS'berternie.txt'
p384
I215
sS'SRE/sre01.txt'
p385
I463
sS'burn'
p386
I4
sS'SRE/sretrade.txt'
p387
I476
sS'poem-2.txt'
p388
I238
sS'crabhern.txt'
p389
I129
sS'cameloto.hum'
p390
I144
sS'fearmnky'
p391
I211
sS'musibrem.txt'
p392
I133
sS'14.lws'
p393
I166
sS'arcadia.sty'
p394
I383
sS'6ablemen.txt'
p395
I134
sS'quarter.c19'
p396
I234
sS'quarter.c18'
p397
I299
sS'quarter.c11'
p398
I102
sS'quarter.c10'
p399
I314
sS'quarter.c13'
p400
I326
sS'quarter.c12'
p401
I322
sS'quarter.c15'
p402
I306
sS'quarter.c14'
p403
I220
sS'quarter.c17'
p404
I282
sS'quarter.c16'
p405
I115
sS'fic2'
p406
I339
sS'fic3'
p407
I218
sS'fic1'
p408
I267
sS'fic7'
p409
I3
sS'fic4'
p410
I201
sS'fic5'
p411
I187
sS'stainles.ana'
p412
I428
sS'aesopa10.txt'
p413
I42
sS'bulnoopt.txt'
p414
I108
sS'charlie.txt'
p415
I181
sS'quarter.c9'
p416
I210
sS'quarter.c8'
p417
I287
sS'quarter.c5'
p418
I367
sS'quarter.c4'
p419
I261
sS'quarter.c7'
p420
I422
sS'quarter.c6'
p421
I44
sS'quarter.c1'
p422
I24
sS'quarter.c3'
p423
I114
sS'quarter.c2'
p424
I197
sS'helmfuse.txt'
p425
I106
sS'unluckwr.txt'
p426
I395
sS'veiledl.txt'
p427
I290
sS'fish.txt'
p428
I46
sS'bern'
p429
I373
sS'confilct.fun'
p430
I403
sS'goldbug.poe'
p431
I77
sS'bulnland.txt'
p432
I332
sS'100west.txt'
p433
I100
sS'deer.txt'
p434
I362
sS'robotech'
p435
I436
sS'mattress.txt'
p436
I182
sS'quickfix'
p437
I230
sS'bulprint.txt'
p438
I235
sS'textfile.primer'
p439
I90
sS'deathmrs.d'
p440
I259
sS'monksol.txt'
p441
I161
sS'fable.txt'
p442
I1
sS'horswolf.txt'
p443
I432
sS'archive'
p444
I380
sS'piracy.sto'
p445
I22
sS'foxncrow.txt'
p446
I147
sS'plescopm.txt'
p447
I392
sS'oxfrog.txt'
p448
I401
sS'nitepeek.sto'
p449
I221
sS'gulliver.txt'
p450
I224
sS'antcrick.txt'
p451
I312
sS'nigel.1'
p452
I410
sS'nigel.2'
p453
I344
sS'nigel.3'
p454
I355
sS'nigel.4'
p455
I414
sS'nigel.5'
p456
I304
sS'nigel.6'
p457
I243
sS'nigel.7'
p458
I384
sS'running.txt'
p459
I30
sS'missing.txt'
p460
I199
sS'weaver.txt'
p461
I429
sS'encamp01.txt'
p462
I441
sS'aquith.txt'
p463
I245
sS's&m_plot'
p464
I116
sS'pinocch.txt'
p465
I257
sS'rid.txt'
p466
I419
sS'graymare.txt'
p467
I443
sS'breaks3.asc'
p468
I305
sS'advtthum.txt'
p469
I366
sS'monkking.txt'
p470
I148
sS'modemhippy.txt'
p471
I260
sS'ghost'
p472
I446
sS'descent.poe'
p473
I183
sS'FARNON/.descs'
p474
I454
sS'lmermaid.txt'
p475
I141
sS'lament.txt'
p476
I36
sS'SRE/sre03.txt'
p477
I465
s.