(dp0
I1
(dp1
Vfabl
p2
I1
sVben
p3
I1
sVblumenberg
p4
I1
ssI2
(dp5
Vimagin
p6
I1
sVstori
p7
I1
ssI3
(dp8
Vmeet
p9
I1
sVderouen
p10
I1
sVpark
p11
I1
sVjoe
p12
I1
sVchanc
p13
I1
ssI4
(dp14
Vmichael
p15
I1
sVc
p16
I1
sVburn
p17
I1
sVsynopsi
p18
I1
sVmcpherson
p19
I1
ssI5
(dp20
Vgreedi
p21
I1
sVparabl
p22
I1
sVdog
p23
I1
ssI6
(dp24
Vstori
p25
I1
sVlover
p26
I1
sVcat
p27
I1
ssI7
(dp28
Vstori
p29
I1
sVtelephon
p30
I1
sVrape
p31
I1
ssI8
(dp32
Vwander
p33
I1
sVpoem
p34
I1
sVredish
p35
I1
sVdavid
p36
I1
ssI9
(dp37
Vfabl
p38
I1
sVhare
p39
I1
sVtortois
p40
I1
ssI10
(dp41
Vlove
p42
I1
sVtwenty-five point zero
p43
I1
sVsong
p44
I1
sVone thousand, nine hundred and ninety-three point zero
p45
I1
sVoctob
p46
I1
sVpoetri
p47
I1
ssI11
(dp48
Vwilliam
p49
I1
sVburrough
p50
I1
sVone thousand, nine hundred and ninety-two point zero
p51
I1
sVdavid
p52
I1
sVfli
p53
I1
sVcronenberg
p54
I1
sVmagazin
p55
I1
sVhuman
p56
I1
sVinterview
p57
I1
sVequir
p58
I1
ssI12
(dp59
Vnovel
p60
I1
sVdark
p61
I1
sVmatthew
p62
I1
sVcyberpunk
p63
I1
sVcarpent
p64
I1
sVcool
p65
I1
ssI13
(dp66
Vstori
p67
I1
sVfox
p68
I1
sVsli
p69
I1
ssI14
(dp70
Vciti
p71
I1
sVchicken
p72
I1
sVhanna
p73
I1
ssI15
(dp74
Vfabl
p75
I1
sVhunt
p76
I1
sVhunter
p77
I1
ssI16
(dp78
Vhole
p79
I1
sVnarrow
p80
I1
sVwa
p81
I1
ssI17
(dp82
Vbert
p83
I1
sVproduct
p84
I1
sVhour
p85
I1
sVerni
p86
I1
sV11th
p87
I1
sVcame
p88
I1
ssI18
(dp89
Vtao
p90
I1
sVlegg
p91
I1
sVjame
p92
I1
sVching
p93
I1
sVtranslat
p94
I1
sVte
p95
I1
ssI19
(dp96
Vspider
p97
I1
sVvarga
p98
I1
sVandrew
p99
I1
sVone thousand, nine hundred and ninety-one point zero
p100
I1
sVfastest
p101
I1
sVworld
p102
I1
ssI20
(dp103
Vidi
p104
I1
sVadventur
p105
I1
sVfirst
p106
I1
ssI21
(dp107
Vtale
p108
I1
sVobstin
p109
I1
sVgoat
p110
I1
ssI22
(dp111
Varriv
p112
I1
sVarrr
p113
I1
sVpirat
p114
I1
ssI23
(dp115
Vfabl
p116
I1
sVsultan
p117
I1
sVsaddl
p118
I1
sVali
p119
I1
ssI24
(dp120
Vcarrah
p121
I1
sVone point zero
p122
I1
sVpart
p123
I1
sVplan
p124
I1
sVshannon
p125
I1
ssI25
(dp126
Vsamurai
p127
I1
sVseven
p128
I1
sVold
p129
I1
ssI26
(dp130
Vtale
p131
I1
sVgolden
p132
I1
sVgoos
p133
I1
ssI27
(dp134
Valtern
p135
I1
sVscreenplay
p136
I1
sVjeff
p137
I1
sVstreet
p138
I1
sVmassi
p139
I1
sVside
p140
I1
ssI28
(dp141
Vp
p142
I1
sVbuggi
p143
I1
sVandrew
p144
I1
sVvarga
p145
I1
sVone thousand, nine hundred and ninety-one point zero
p146
I1
ssI29
(dp147
Vfabl
p148
I1
sVlion
p149
I1
sVmosquito
p150
I1
ssI30
(dp151
Vstori
p152
I1
sVrun
p153
I1
ssI31
(dp154
Vfli
p155
I1
sVstori
p156
I1
sVtrunk
p157
I1
ssI32
(dp158
Voctob
p159
I1
sVhappen
p160
I1
sVfriday
p161
I1
sVlast
p162
I1
ssI33
(dp163
Vvarga
p164
I1
sVstori
p165
I1
sVandrew
p166
I1
sVfrog
p167
I1
sVprinc
p168
I1
ssI34
(dp169
Vanoth
p170
I1
sVjuli
p171
I1
sVepstein
p172
I1
sVfourth
p173
I1
sVjeff
p174
I1
ssI35
(dp175
Vflat
p176
I1
sVaugust
p177
I1
sVtire
p178
I1
sVsocial
p179
I1
sVone thousand, nine hundred and eighty-eight point zero
p180
I1
sVvike
p181
I1
ssI36
(dp182
Voffend
p183
I1
sVe477439
p184
I1
sVlament
p185
I1
ssI37
(dp186
Vdavid
p187
I1
sVmillstein
p188
I1
sVodnaar
p189
I1
sVkeep
p190
I1
ssI38
(dp191
Vsaga
p192
I1
sVnine point zero
p193
I1
sVeight point zero
p194
I1
sVnigel
p195
I1
sVhedgehog
p196
I1
ssI39
(dp197
Vwilliam
p198
I1
sVpainkil
p199
I1
sVslatteri
p200
I1
ssI40
(dp201
Vbost
p202
I1
sVinterfac
p203
I1
sVgay
p204
I1
sVsubmerg
p205
I1
ssI41
(dp206
Vempress
p207
I1
sVjowka
p208
I1
ssI42
(dp209
Vpaperless
p210
I1
sVeighty-four point zero
p211
I1
sVclub
p212
I1
sVaesop
p213
I1
sVreader
p214
I1
sVfabl
p215
I1
ssI43
(dp216
Vseven
p217
I1
sVwolf
p218
I1
sVkid
p219
I1
ssI44
(dp220
Vwhite
p221
I1
sVraymundo
p222
I1
sVline
p223
I1
sVlittl
p224
I1
sVjoe
p225
I1
ssI45
(dp226
Vfabl
p227
I1
sVtail
p228
I1
sVbear
p229
I1
ssI46
(dp230
Vonc
p231
I1
sVfish
p232
I1
sVrosentrat
p233
I1
sVwa
p234
I1
sVdoug
p235
I1
ssI47
(dp236
Vhealer
p237
I1
sVstori
p238
I1
sVben
p239
I1
sVsoul
p240
I1
sVblumenberg
p241
I1
ssI48
(dp242
Vstori
p243
I1
sVsuperguy
p244
I1
ssI49
(dp245
Vthaddeu
p246
I1
sVone thousand, nine hundred and ninety-three point zero
p247
I1
sVgreek
p248
I1
sVderouen
p249
I1
sVjoe
p250
I1
sVuncl
p251
I1
ssI50
(dp252
Vclerk
p253
I1
sVlife
p254
I1
ssI51
(dp255
Vcacth
p256
I1
sVstinker
p257
I1
sVsoul
p258
I1
sVforgotten
p259
I1
ssI52
(dp260
Vp
p261
I1
sVholiday
p262
I1
sVandrew
p263
I1
sVvarga
p264
I1
sVbirdlov
p265
I1
ssI53
(dp266
Vdeth
p267
I1
sVdeath
p268
I1
sVseven point zero
p269
I1
sVfowl
p270
I1
sVnuclear
p271
I1
sVapril
p272
I1
sVone thousand, nine hundred and eighty-seven point zero
p273
I1
ssI54
(dp274
Vdungeon
p275
I1
sVdice
p276
I1
sVbluebaugh
p277
I1
sVdragon
p278
I1
sVreid
p279
I1
sVgame
p280
I1
sVguid
p281
I1
ssI55
(dp282
Vbost
p283
I1
sVreaper
p284
I1
sVgay
p285
I1
ssI56
(dp286
Vcold
p287
I1
sVcandl
p288
I1
sVhawn
p289
I1
sVwind
p290
I1
sVwalter
p291
I1
ssI57
(dp292
Vlawrenc
p293
I1
sVrevolt
p294
I1
sVone thousand, nine hundred and ninety-one point zero
p295
I1
sVcyberslav
p296
I1
sVbook
p297
I1
sVdworin
p298
I1
ssI58
(dp299
Vproduct
p300
I1
sVhour
p301
I1
sValdebaran
p302
I1
sVdisco
p303
I1
sVfun
p304
I1
sV11th
p305
I1
ssI59
(dp306
Vstiarway
p307
I1
sVdram
p308
I1
sVsatinka
p309
I1
sVistari
p310
I1
ssI60
(dp311
Vboy
p312
I1
sVdeath
p313
I1
sVavocado
p314
I1
sVsnarkout
p315
I1
ssI61
(dp316
Vmous
p317
I1
sVstori
p318
I1
sVlion
p319
I1
ssI62
(dp320
Vflower
p321
I1
sVg
p322
I1
sVhunt
p323
I1
sVhunter
p324
I1
sVstori
p325
I1
sVdaniel
p326
I1
ssI63
(dp327
Vdark
p328
I1
sVheart
p329
I1
sVjoseph
p330
I1
sVconrad
p331
I1
ssI64
(dp332
Vone thousand, nine hundred and ninety-three point zero
p333
I1
sVwish
p334
I1
sVherbert
p335
I1
sVlj
p336
I1
sVone
p337
I1
ssI65
(dp338
Vreleas
p339
I1
sVlom
p340
I1
sVsix
p341
I1
sVmorpheou
p342
I1
sVaisl
p343
I1
ssI66
(dp344
Vbig
p345
I1
sVride
p346
I1
sVred
p347
I1
sVcape
p348
I1
ssI67
(dp349
Vmous
p350
I2
sVcountri
p351
I1
sVstori
p352
I1
sVtown
p353
I1
ssI68
(dp354
Vresid
p355
I1
sVkarylin
p356
I1
ssI69
(dp357
Vmain
p358
I1
sVhi
p359
I1
sVargu
p360
I1
sVcharact
p361
I1
sVauthor
p362
I1
ssI70
(dp363
Vburrough
p364
I1
sVharri
p365
I1
sVoliv
p366
I1
sVnineteen million, four hundred and fifty-one thousand, nine hundred and fifty-nine point zero
p367
I1
sVwilliam
p368
I1
sVletter
p369
I1
ssI71
(dp370
Vblue
p371
I1
sVmario
p372
I2
sVarcher
p373
I1
sVhistori
p374
I1
sVshort
p375
I1
ssI72
(dp376
Vfurri
p377
I1
sVorphan
p378
I1
sVwar
p379
I1
ssI73
(dp380
Vstori
p381
I1
sVfriend
p382
I1
ssI74
(dp383
Vfranci
p384
I1
sVlast
p385
I1
sVporretto
p386
I1
sVfree
p387
I1
sVw
p388
I1
sVman
p389
I1
ssI75
(dp390
Vwa
p391
I1
sVchristma
p392
I1
sVgift
p393
I1
sVlittl
p394
I1
sVoop
p395
I1
sVmessup
p396
I1
ssI76
(dp397
Vgoe
p398
I1
sVfabl
p399
I1
sVlion
p400
I1
sVwar
p401
I1
ssI77
(dp402
Vpoe
p403
I1
sVbug
p404
I1
sVgold
p405
I1
ssI78
(dp406
Vlucillu
p407
I1
sVwager
p408
I1
sVmanli
p409
I1
sVheap
p410
I1
sVtestosteron
p411
I1
ssI79
(dp412
Vshepherd
p413
I1
sVedward
p414
I1
sVmatriarch
p415
I1
sVmarc
p416
I1
ssI80
(dp417
Vpoem
p418
I1
sVvampyr
p419
I1
sVword
p420
I1
ssI81
(dp421
Vperkel
p422
I1
sVprincip
p423
I1
sVvs
p424
I1
sVprincess
p425
I1
sVmarc
p426
I1
ssI82
(dp427
Vfantasi
p428
I1
sVblab
p429
I1
sVedit
p430
I1
sVnovelrip
p431
I1
sVslip
p432
I1
sVdisk
p433
I1
ssI83
(dp434
Velv
p435
I1
sVshoemak
p436
I1
ssI84
(dp437
Vdetac
p438
I1
sVone thousand, nine hundred and eighty-six point zero
p439
I1
sVmcdonaldland
p440
I1
sVjune
p441
I1
sVten point zero
p442
I1
sVjoe
p443
I1
sVday
p444
I1
sVgi
p445
I1
ssI85
(dp446
Vmechwarrior
p447
I1
sVrain
p448
I1
sVfiction
p449
I1
sVfan
p450
I1
sVdougla
p451
I1
sVdanc
p452
I1
sVwarren
p453
I1
ssI86
(dp454
Vstori
p455
I1
sVpuss
p456
I1
sVboot
p457
I1
ssI87
(dp458
Vone thousand, nine hundred and ninety-five point zero
p459
I1
sVtoy
p460
I1
sVhula
p461
I1
sVnanci
p462
I1
sVhoop
p463
I1
sVvanworm
p464
I1
sVtinker
p465
I1
ssI88
(dp466
Vswarv
p467
I1
sVdiari
p468
I1
ssI89
(dp469
Vsemihel
p470
I1
sVone thousand, nine hundred and ninety-two point zero
p471
I1
sVthing
p472
I1
sVlive
p473
I1
sVurethri
p474
I1
sVexperi
p475
I1
sVtype
p476
I1
ssI90
(dp477
Vramsack
p478
I2
sVjuli
p479
I1
sVpiec
p480
I1
sVone thousand, nine hundred and eighty-nine point zero
p481
I1
sVeight
p482
I1
sVtextfil
p483
I1
sVtwenty-seven point zero
p484
I1
sVprimer
p485
I1
ssI91
(dp486
Vweird
p487
I1
sVha
p488
I1
sVdream
p489
I1
sVsomeon
p490
I1
sVtalk
p491
I1
ssI92
(dp492
Vlegend
p493
I1
sVkharianian
p494
I1
ssI93
(dp495
Voctob
p496
I1
sVbhuddist
p497
I1
sVnavajo
p498
I1
sVone thousand, nine hundred and ninety-two point zero
p499
I1
sVnineteen point zero
p500
I1
ssI94
(dp501
Vthoma
p502
I1
sVhuber
p503
I1
sVnevin
p504
I1
sVgive
p505
I1
ssI95
(dp506
Vbadli
p507
I1
sVstori
p508
I1
sVjami
p509
I1
sVformat
p510
I1
ssI96
(dp511
Vwilcox
p512
I1
sVstori
p513
I1
sVroger
p514
I1
sVsick
p515
I1
sVkid
p516
I1
ssI97
(dp517
Vrocket
p518
I1
sVspace
p519
I1
sVsaga
p520
I1
sVstori
p521
I1
sVroger
p522
I1
sVrobinson
p523
I1
ssI98
(dp524
Vfabl
p525
I1
sVpoplar
p526
I1
sVstream
p527
I1
ssI99
(dp528
Vtinderbox
p529
I1
sVstori
p530
I1
sVmagic
p531
I1
ssI100
(dp532
Vone thousand, nine hundred and ninety point zero
p533
I1
sVnorth
p534
I1
sVone hundred point zero
p535
I1
sVwest
p536
I1
sVjim
p537
I1
sVfifty-three point zero
p538
I1
sVgo
p539
I1
sVprentic
p540
I1
ssI101
(dp541
Vfabl
p542
I1
sVqueen
p543
I1
sVsnow
p544
I1
ssI102
(dp545
Vsun
p546
I1
sVkennedi
p547
I1
sVpoem
p548
I1
sVspoke
p549
I1
sVcarolin
p550
I1
ssI103
(dp551
Vstork
p552
I1
sVstori
p553
I1
sVfox
p554
I1
ssI104
(dp555
Vfather
p556
I1
sVstori
p557
I1
sVgood
p558
I1
sVlist
p559
I1
ssI105
(dp560
Vamontilado
p561
I1
sVpoe
p562
I1
sVedgar
p563
I1
sVcask
p564
I1
sVallan
p565
I1
ssI106
(dp566
Vhelmet
p567
I1
sVfusion
p568
I1
sVspecialist
p569
I1
sVgherkin
p570
I1
sVashtray
p571
I1
ssI107
(dp572
Vbluebeard
p573
I1
ssI108
(dp574
Vflower
p575
I1
sVdaniel
p576
I1
sVoption
p577
I1
sVg
p578
I1
sVleft
p579
I1
ssI109
(dp580
Vslaff
p581
I1
sVcrazi
p582
I1
sVglue
p583
I1
sVjerri
p584
I1
sVnovel
p585
I1
ssI110
(dp586
Vwish
p587
I1
sVstori
p588
I1
sVthree
p589
I1
ssI111
(dp590
Vaesop
p591
I1
sVgeorg
p592
I1
sVfyler
p593
I1
sVtranslat
p594
I1
sVfabl
p595
I1
sVtownsend
p596
I1
ssI112
(dp597
Vthoma
p598
I1
sVhuber
p599
I1
sVwriter
p600
I1
sVnevin
p601
I1
ssI113
(dp602
Vmatchgirl
p603
I1
sVlittl
p604
I1
ssI114
(dp605
Vmose
p606
I1
sVdomingo
p607
I1
sVquarantin
p608
I1
ssI115
(dp609
Vwillow
p610
I1
sVpatrick
p611
I1
sVweep
p612
I1
sVtree
p613
I1
sVminer
p614
I1
ssI116
(dp615
Vplot
p616
I1
sVwriter
p617
I1
sVthicken
p618
I1
sVcecilio
p619
I1
sVmoral
p620
I1
sVdream
p621
I1
ssI117
(dp622
Vwilliam
p623
I1
sVsketch
p624
I1
sVone thousand, nine hundred and seventy-eight point zero
p625
I1
sVjuli
p626
I1
sVburrough
p627
I1
ssI118
(dp628
Vcube
p629
I1
sVmuess
p630
I1
sVjune
p631
I1
sVtwenty-four point zero
p632
I1
sVone thousand, nine hundred and eighty-nine point zero
p633
I1
sVshalub
p634
I1
sVdr
p635
I1
ssI119
(dp636
Vproduct
p637
I1
sVhour
p638
I1
sValdebaran
p639
I1
sVdisco
p640
I1
sVfun
p641
I1
sV11th
p642
I1
ssI120
(dp643
Valien
p644
I1
sVmike
p645
I1
sVode
p646
I1
ssI121
(dp647
Vbefor
p648
I1
sVvordahl
p649
I1
sVbeyond
p650
I1
sVdalla
p651
I1
ssI122
(dp652
Vnigel
p653
I1
sVsix point zero
p654
I1
sVsaga
p655
I1
sVjuli
p656
I1
sVten point zero
p657
I1
sVone thousand, nine hundred and eighty-nine point zero
p658
I1
sVhedgehog
p659
I1
ssI123
(dp660
Vfish
p661
I1
sVgold
p662
I1
sVlittl
p663
I1
ssI124
(dp664
Vlom
p665
I1
sVsix
p666
I1
sVmorpheou
p667
I1
sVaisl
p668
I1
ssI125
(dp669
Viii
p670
I1
sVpart
p671
I1
sVhotlin
p672
I1
sVzachari
p673
I1
sVjame
p674
I1
ssI126
(dp675
Vshepherd
p676
I1
sVwatermark
p677
I1
sVcelt
p678
I1
sVenya
p679
I1
sVmoon
p680
I1
sVtranslat
p681
I1
sVenglish
p682
I1
ssI127
(dp683
Valex
p684
I1
sVfiction
p685
I1
ssI128
(dp686
Vvigilant
p687
I1
ssI129
(dp688
Vstori
p689
I1
sVheron
p690
I1
sVcrab
p691
I1
ssI130
(dp692
Vengin
p693
I1
sVtechnolog
p694
I1
sVone thousand, nine hundred and ninety-two point zero
p695
I1
sVamerican
p696
I1
sVfutur
p697
I1
sVpeshota
p698
I1
sVjanuari
p699
I1
sVfive point zero
p700
I1
ssI131
(dp701
Vrw
p702
I1
sVbruce
p703
I1
sVreisman
p704
I1
sVquest
p705
I1
sVdwarven
p706
I1
sVaxe
p707
I1
sVlord
p708
I1
ssI132
(dp709
Vbrown
p710
I1
sVone thousand, nine hundred and eighty-nine point zero
p711
I1
sVcap
p712
I1
sVn
p713
I1
sVvoyag
p714
I1
sVroger
p715
I1
sVjuliu
p716
I1
sVwillfat
p717
I1
ssI133
(dp718
Vmusician
p719
I1
sVbremen
p720
I1
ssI134
(dp721
Vstori
p722
I1
sVsix
p723
I1
sVabl
p724
I1
sVmen
p725
I1
ssI135
(dp726
Vmous
p727
I1
sVfabl
p728
I1
sVcock
p729
I1
sVcat
p730
I1
ssI136
(dp731
Vrift
p732
I1
sVnorth
p733
I1
sVbook
p734
I1
sVsean
p735
I1
sVdakota
p736
I1
sVworld
p737
I1
sVsatterle
p738
I1
ssI137
(dp739
Vfabl
p740
I1
sVsnow
p741
I1
sVmaiden
p742
I1
ssI138
(dp743
Vend
p744
I1
sVunivers
p745
I1
sVrestaur
p746
I1
sVadam
p747
I1
sVdougla
p748
I1
sVtranscript
p749
I1
sVcomplet
p750
I1
ssI139
(dp751
Vjim
p752
I1
sVbook
p753
I1
ssI140
(dp754
Vsay
p755
I1
sVadventur
p756
I1
ssI141
(dp757
Vfabl
p758
I1
sVmermaid
p759
I1
sVlittl
p760
I1
ssI142
(dp761
Vc
p762
I1
sVsynopsi
p763
I1
sVsafe
p764
I1
sVmichael
p765
I1
sVplace
p766
I1
sVmcpherson
p767
I1
ssI143
(dp768
Vwall
p769
I1
sVmd
p770
I1
sVbrick
p771
I1
sVroccatani
p772
I1
ssI144
(dp773
Vscreenplay
p774
I1
sVabort
p775
I1
sVattempt
p776
I1
sVmayb
p777
I1
ssI145
(dp778
Vwall
p779
I1
sVsandwellweiss
p780
I1
sVl
p781
I1
sVkarl
p782
I1
ssI146
(dp783
Vtest
p784
I1
sVstori
p785
I1
sVjohn
p786
I1
sVvornholt
p787
I1
sVpilot
p788
I1
ssI147
(dp789
Vcrow
p790
I1
sVstori
p791
I1
sVfox
p792
I1
ssI148
(dp793
Vking
p794
I1
sVstori
p795
I1
sVmonkey
p796
I1
ssI149
(dp797
Vduckl
p798
I1
sVfabl
p799
I1
sVugli
p800
I1
ssI150
(dp801
Vthought
p802
I1
sVdonkey
p803
I1
sVclever
p804
I1
sVwa
p805
I1
ssI151
(dp806
Vblue
p807
I1
sVsoldier
p808
I1
sVrick
p809
I1
sVarnold
p810
I1
ssI152
(dp811
Vcyclist
p812
I1
sVsolitari
p813
I1
sVadventur
p814
I1
ssI153
(dp815
Vthoma
p816
I1
sVworld
p817
I1
sVnevin
p818
I1
sVcome
p819
I1
sVhuber
p820
I1
ssI154
(dp821
Vgriebel
p822
I1
sVcomput
p823
I1
sVrich
p824
I1
sVn
p825
I1
ssI155
(dp826
Vone thousand, nine hundred and ninety-four point zero
p827
I1
sVderouen
p828
I1
sVsurvey
p829
I1
sVresult
p830
I1
sVjoe
p831
I1
ssI156
(dp832
Vvessel
p833
I1
sVconsum
p834
I1
sVdream
p835
I1
sVmelani
p836
I1
sVmartin
p837
I1
ssI157
(dp838
Vfantasi
p839
I1
sVblab
p840
I1
sVnovel
p841
I1
ssI158
(dp842
Vcollect
p843
I1
sVone thousand, nine hundred and ninety point zero
p844
I1
sVfox
p845
I1
sVpoetri
p846
I1
sVdavid
p847
I1
ssI159
(dp848
Vdrie
p849
I1
sVvan
p850
I1
sVdwarf
p851
I1
sVjeroen
p852
I1
ssI160
(dp853
Vconfuci
p854
I1
sVtext
p855
I1
sVgreat
p856
I1
sVlearn
p857
I1
ssI161
(dp858
Vunvield
p859
I1
sVisland
p860
I1
sVsecret
p861
I1
sVsyndic
p862
I1
sVmonkey
p863
I1
ssI162
(dp864
Vstori
p865
I2
sVzorker
p866
I1
ssI163
(dp867
Vone thousand, nine hundred and ninety-four point zero
p868
I1
sVcrim
p869
I1
sVr
p870
I1
sVmartin
p871
I1
sVlionbird
p872
I1
ssI164
(dp873
Vexplod
p874
I1
sVcke
p875
I1
sVcow
p876
I1
sVenterpris
p877
I1
sVstori
p878
I1
sVone thousand, nine hundred and eighty-four point zero
p879
I1
ssI165
(dp880
Vlamp
p881
I1
sValaddin
p882
I1
sVwonder
p883
I1
ssI166
(dp884
Vparser
p885
I1
sVbomb
p886
I1
sVlanguag
p887
I1
sVsmart
p888
I1
ssI167
(dp889
Vbeast
p890
I1
sVstori
p891
I1
sVbeauti
p892
I1
ssI168
(dp893
Vlarger
p894
I1
sVani
p895
I1
sVcontinu
p896
I1
sVmr
p897
I1
sVx
p898
I1
sVadventur
p899
I1
sVcome
p900
I1
ssI169
(dp901
Vthree point zero
p902
I1
sVstori
p903
I1
sVlittl
p904
I1
sVpig
p905
I1
ssI170
(dp906
Vultim
p907
I1
sVstori
p908
I1
sVstartrek
p909
I1
ssI171
(dp910
Vharvey
p911
I1
sVstori
p912
I1
sVspider
p913
I1
ssI172
(dp914
Vsonnet
p915
I1
sVmarch
p916
I1
sVstaeorra
p917
I1
sVcollect
p918
I1
sVrokraven
p919
I1
sVone thousand, nine hundred and eighty-nine point zero
p920
I1
sVnine point zero
p921
I1
ssI173
(dp922
Vcrane
p923
I1
sVwolf
p924
I1
ssI174
(dp925
Vguy
p926
I1
sVgarag
p927
I1
sVtwo
p928
I1
sVpshota
p929
I1
ssI175
(dp930
Vstori
p931
I1
sVshah
p932
I1
sVparrot
p933
I1
ssI176
(dp934
Vboynton
p935
I1
sVdw
p936
I1
sVdistanc
p937
I1
sVlongest
p938
I1
sVone thousand, nine hundred and ninety-two point zero
p939
I1
ssI177
(dp940
Vbomb
p941
I1
sVswann
p942
I1
sVgregori
p943
I1
sVyahoo
p944
I1
sVfiction
p945
I1
sVvow
p946
I1
sVohio
p947
I1
sVha
p948
I1
sVone thousand, nine hundred and eighty-six point zero
p949
I1
ssI178
(dp950
Vwish
p951
I1
sVbest
p952
I1
sVfiction
p953
I1
ssI179
(dp954
Vmachin
p955
I1
sVlynn
p956
I1
sVc
p957
I1
sVone thousand, nine hundred and ninety point zero
p958
I1
sVjame
p959
I1
sVhell
p960
I1
ssI180
(dp961
Vpiper
p962
I1
sVpie
p963
I1
sVhamelin
p964
I1
ssI181
(dp965
Vcolin
p966
I1
sVcampbel
p967
I1
sVcosmic
p968
I1
sVcharli
p969
I1
ssI182
(dp970
Vone thousand, nine hundred and ninety-five point zero
p971
I1
sVnikolai
p972
I1
sVonc
p973
I1
sVupon
p974
I1
sVmattress
p975
I1
sVkingsley
p976
I1
ssI183
(dp977
Vmaelstrom
p978
I1
sVdescent
p979
I1
ssI184
(dp980
Vhutch
p981
I1
sVcommerc
p982
I1
sVhill
p983
I1
sVmarilyn
p984
I1
ssI185
(dp985
Vpete
p986
I1
sVgone
p987
I1
sVcrash
p988
I1
sVbaron
p989
I1
sVstocton
p990
I1
sVvon
p991
I1
sVbad
p992
I1
sVminimanuscript
p993
I1
sVbeaver
p994
I1
ssI186
(dp995
Vvalentin
p996
I1
sVstori
p997
I1
sVwillard
p998
I1
sVgeorg
p999
I1
ssI187
(dp1000
Vone thousand, nine hundred and ninety-three point zero
p1001
I1
sVimp
p1002
I1
sVdavi
p1003
I1
sVed
p1004
I1
ssI188
(dp1005
Vlom
p1006
I1
sVdegener
p1007
I1
sVpepsi
p1008
I1
sVmorpheou
p1009
I1
ssI189
(dp1010
Vstackpol
p1011
I1
sVplay
p1012
I1
sVone thousand, nine hundred and eighty-nine point zero
p1013
I1
sVmichael
p1014
I1
sVsqueez
p1015
I1
ssI190
(dp1016
Vgolden
p1017
I1
sVadventur
p1018
I1
sVpincenez
p1019
I1
ssI191
(dp1020
Vwilliam
p1021
I1
sVburrough
p1022
I1
sVthanksgiv
p1023
I1
sVprayer
p1024
I1
ssI192
(dp1025
Vproblem
p1026
I1
sVstori
p1027
I1
sVtravel
p1028
I1
sVtime
p1029
I1
ssI193
(dp1030
Vargon
p1031
I1
sVjim
p1032
I1
sVeye
p1033
I1
sVthei
p1034
I1
ssI194
(dp1035
Vfabl
p1036
I1
sVhare
p1037
I1
sVeleph
p1038
I1
ssI195
(dp1039
Vfabl
p1040
I1
sVamin
p1041
I1
sVegg
p1042
I1
ssI196
(dp1043
Vblind
p1044
I1
sVaugust
p1045
I1
sVnichol
p1046
I1
sVone thousand, nine hundred and ninety-three point zero
p1047
I1
sVsight
p1048
I1
sVlyn
p1049
I1
ssI197
(dp1050
Vfeyen
p1051
I1
sVkristin
p1052
I1
sVrememb
p1053
I1
ssI198
(dp1054
Vwisteria
p1055
I1
sVadventur
p1056
I1
sVlodg
p1057
I1
ssI199
(dp1058
Vstori
p1059
I1
sVadventur
p1060
I1
sVmiss
p1061
I1
sVthreequart
p1062
I1
ssI200
(dp1063
Vkingdom
p1064
I1
sVtoilet
p1065
I1
sVbill
p1066
I1
sVone thousand, nine hundred and ninety-four point zero
p1067
I1
sVlubi
p1068
I1
ssI201
(dp1069
Vencount
p1070
I1
sVdiffer
p1071
I1
sVl
p1072
I1
sVone thousand, nine hundred and ninety-three point zero
p1073
I1
sVramsey
p1074
I1
sVclose
p1075
I1
sVsylvia
p1076
I1
sVkind
p1077
I1
ssI202
(dp1078
Vsuki
p1079
I1
sVgame
p1080
I1
ssI203
(dp1081
Vplink
p1082
I1
sVpossibl
p1083
I1
sVdoubl
p1084
I1
sVdefect
p1085
I1
sVpublish
p1086
I1
sVtime
p1087
I1
sVjean
p1088
I1
sVblevin
p1089
I1
ssI204
(dp1090
Vsometh
p1091
I1
sVparagraph
p1092
I1
sVexcertp
p1093
I1
sVthree
p1094
I1
ssI205
(dp1095
Vpeter
p1096
I1
sVadventur
p1097
I1
sVblack
p1098
I1
ssI206
(dp1099
Vwhite
p1100
I1
sVdealer
p1101
I1
sVrobbi
p1102
I1
ssI207
(dp1103
Vgirl
p1104
I1
sVhuddi
p1105
I1
sVdream
p1106
I1
sVmelina
p1107
I1
ssI208
(dp1108
Vpleas
p1109
I1
sVonli
p1110
I1
sVexecut
p1111
I1
sVgod
p1112
I1
sVelit
p1113
I1
sVseventeen point zero
p1114
I1
ssI209
(dp1115
Valdebaran
p1116
I1
sV11th
p1117
I1
sVbagelman
p1118
I1
sVproduct
p1119
I1
sVhour
p1120
I1
ssI210
(dp1121
Vrose
p1122
I1
sVedmonson
p1123
I1
sVsuzi
p1124
I1
ssI211
(dp1125
Vpoem
p1126
I1
sVmonkey
p1127
I1
sVburrough
p1128
I1
sVwilliam
p1129
I1
sVboard
p1130
I1
sVfear
p1131
I1
sVone thousand, nine hundred and eighty-four point zero
p1132
I1
sVouija
p1133
I1
ssI212
(dp1134
Vcap
p1135
I1
sVn
p1136
I1
sVpart
p1137
I1
sVroger
p1138
I1
sVtwo point zero
p1139
I1
sVadventur
p1140
I1
ssI213
(dp1141
Ved
p1142
I1
sVstori
p1143
I1
sVformat
p1144
I1
sVbadli
p1145
I1
ssI214
(dp1146
Vfabl
p1147
I1
sVhare
p1148
I1
sVporcupin
p1149
I1
ssI215
(dp1150
Vbert
p1151
I1
sVproduct
p1152
I1
sVhour
p1153
I1
sVerni
p1154
I1
sV11th
p1155
I1
sVcame
p1156
I1
ssI216
(dp1157
Vhors
p1158
I1
sVdonkey
p1159
I1
ssI217
(dp1160
Vtree
p1161
I1
sVkevin
p1162
I1
ssI218
(dp1163
Vwarn
p1164
I1
sVed
p1165
I1
sVone thousand, nine hundred and ninety-three point zero
p1166
I1
sVdavi
p1167
I1
sVouija
p1168
I1
ssI219
(dp1169
Vrelat
p1170
I1
sVflute
p1171
I2
sVspirit
p1172
I1
sVhistori
p1173
I1
ssI220
(dp1174
Vpatrick
p1175
I1
sVleftov
p1176
I1
sVstew
p1177
I1
sVbarn
p1178
I1
ssI221
(dp1179
Vpeek
p1180
I1
sVword
p1181
I1
sVnight
p1182
I2
ssI222
(dp1183
Vspectacl
p1184
I1
sVpoe
p1185
I1
sVedgar
p1186
I1
sVallen
p1187
I1
ssI223
(dp1188
Vweep
p1189
I1
sVprincess
p1190
I1
ssI224
(dp1191
Vswift
p1192
I1
sVtravel
p1193
I1
sVgulliv
p1194
I1
sVjohnathan
p1195
I1
sVone thousand, seven hundred and twenty-six point zero
p1196
I1
ssI225
(dp1197
Vstori
p1198
I1
sVprocur
p1199
I1
sVbureau
p1200
I1
ssI226
(dp1201
Vgerman
p1202
I1
sVblack
p1203
I1
sVword
p1204
I1
sVrider
p1205
I1
sVliteratur
p1206
I1
ssI227
(dp1207
Vstori
p1208
I1
sVritual
p1209
I1
sVmusgrav
p1210
I1
ssI228
(dp1211
Vh
p1212
I1
sVaccount
p1213
I1
sVr
p1214
I1
sVvalimaa
p1215
I1
sVcard
p1216
I1
ssI229
(dp1217
Vgreat
p1218
I1
sVben
p1219
I1
sVblumenberg
p1220
I1
sVgoddess
p1221
I1
sVone thousand, nine hundred and ninety-two point zero
p1222
I1
sVtwelve point zero
p1223
I1
sVfebruari
p1224
I1
sVneolith
p1225
I1
sVintroduct
p1226
I1
ssI230
(dp1227
Vquick
p1228
I1
sVwilliam
p1229
I1
sVfix
p1230
I1
sVburrough
p1231
I1
ssI231
(dp1232
Vpsychedel
p1233
I1
sVsunday
p1234
I1
sVkzap
p1235
I1
ssI232
(dp1236
Vstori
p1237
I1
sVdopey
p1238
I1
sVdenni
p1239
I1
ssI233
(dp1240
Vbeanstalk
p1241
I1
sVstori
p1242
I1
sVjack
p1243
I1
ssI234
(dp1244
Vami
p1245
I1
sVhometown
p1246
I1
sVway
p1247
I1
sVslavin
p1248
I1
ssI235
(dp1249
Vprint
p1250
I1
sVciti
p1251
I1
sVdaniel
p1252
I1
sVflower
p1253
I1
sVg
p1254
I1
ssI236
(dp1255
Vdm
p1256
I1
sVhanna
p1257
I1
sVrock
p1258
I1
ssI237
(dp1259
Vnote
p1260
I1
sVstori
p1261
I1
sVtoward
p1262
I1
ssI238
(dp1263
Vkyli
p1264
I1
sVone thousand, nine hundred and ninety-three point zero
p1265
I1
sVpoetri
p1266
I1
sVbroken
p1267
I1
sVheat
p1268
I1
sVnineteen point zero
p1269
I1
sVoctob
p1270
I1
sVnoren
p1271
I1
ssI239
(dp1272
Vfranci
p1273
I1
sVbb
p1274
I1
sVporretto
p1275
I1
sVhors
p1276
I1
sVhomecom
p1277
I1
sVw
p1278
I1
sVfeather
p1279
I1
ssI240
(dp1280
Vbrucepartington
p1281
I1
sVadventur
p1282
I1
sVplan
p1283
I1
ssI241
(dp1284
Vvers
p1285
I1
sVservic
p1286
I1
sVspell
p1287
I1
sVw
p1288
I1
sVrobert
p1289
I1
sVyukon
p1290
I1
ssI242
(dp1291
Vblab
p1292
I1
sVsuper
p1293
I1
sVdatanet
p1294
I1
sVnovel
p1295
I1
ssI243
(dp1296
Vnigel
p1297
I1
sVsix point zero
p1298
I1
sVsaga
p1299
I1
sVjune
p1300
I1
sVtwelve point zero
p1301
I1
sVone thousand, nine hundred and eighty-nine point zero
p1302
I1
sVhedgehog
p1303
I1
ssI244
(dp1304
Vcrow
p1305
I1
sVvain
p1306
I1
sVparabl
p1307
I1
ssI245
(dp1308
Vlord
p1309
I1
sVaquith
p1310
I1
sVnovella
p1311
I1
sVbarbero
p1312
I1
sVyve
p1313
I1
ssI246
(dp1314
Vblanston
p1315
I1
sVmasquerad
p1316
I1
sVgurn
p1317
I1
sVpornographi
p1318
I1
sVed
p1319
I1
sVliteratur
p1320
I1
sVmees
p1321
I1
sVtruehard
p1322
I1
sVcommiss
p1323
I1
sVpresent
p1324
I1
sVtess
p1325
I1
ssI247
(dp1326
Vslope
p1327
I1
sVaroha
p1328
I1
sVte
p1329
I1
ssI248
(dp1330
Vlist
p1331
I2
sVholm
p1332
I2
sVbook
p1333
I1
sVsherlock
p1334
I1
sVdiscuss
p1335
I1
sVrefer
p1336
I1
ssI249
(dp1337
Vsinbad
p1338
I1
sVseven
p1339
I1
sVvoyag
p1340
I1
sVsailor
p1341
I1
ssI250
(dp1342
Vone thousand, nine hundred and ninety point zero
p1343
I1
sVarctic
p1344
I1
sVjim
p1345
I1
sVcircl
p1346
I1
sVprentic
p1347
I1
sVbeyond
p1348
I1
ssI251
(dp1349
Vpoet
p1350
I1
sVcollect
p1351
I1
sVpoetri
p1352
I1
sVquot
p1353
I1
ssI252
(dp1354
Vissu
p1355
I1
sVtwo point zero
p1356
I1
sVone thousand, nine hundred and ninety-five point zero
p1357
I1
sVbook
p1358
I1
ssI253
(dp1359
Vlion
p1360
I1
sVadventur
p1361
I1
sVmane
p1362
I1
ssI254
(dp1363
Vmachin
p1364
I1
sVone thousand, eight hundred and ninety-eight point zero
p1365
I1
sVwell
p1366
I1
sVhg
p1367
I1
sVtime
p1368
I1
ssI255
(dp1369
Vjame
p1370
I1
sVzachari
p1371
I1
sVhotlin
p1372
I1
ssI256
(dp1373
Vstone
p1374
I1
sVadventur
p1375
I1
sVmazarin
p1376
I1
ssI257
(dp1377
Vstori
p1378
I1
sVpinocchio
p1379
I1
ssI258
(dp1380
Vissu
p1381
I1
sVthree point zero
p1382
I1
sVone thousand, nine hundred and ninety-five point zero
p1383
I1
sVbook
p1384
I1
ssI259
(dp1385
Vwilliam
p1386
I1
sVdeath
p1387
I1
sVburrough
p1388
I1
sVms
p1389
I1
ssI260
(dp1390
Vpoem
p1391
I1
sVmodem
p1392
I1
sVlom
p1393
I1
sVmorpheou
p1394
I1
sVhippi
p1395
I1
ssI261
(dp1396
Vsteve
p1397
I1
sVprojectil
p1398
I1
sVsavag
p1399
I1
sVgain
p1400
I1
ssI262
(dp1401
Vbaba
p1402
I1
sVforty point zero
p1403
I1
sVstori
p1404
I1
sVthiev
p1405
I1
sVali
p1406
I1
ssI263
(dp1407
Vpoem
p1408
I1
sVcliffhang
p1409
I1
ssI264
(dp1410
Vbost
p1411
I1
sVwork
p1412
I1
sVgay
p1413
I1
sVez
p1414
I1
ssI265
(dp1415
Visland
p1416
I1
sVfay
p1417
I1
ssI266
(dp1418
Vencount
p1419
I1
sVstori
p1420
I1
sVphreak
p1421
I1
ssI267
(dp1422
Vone thousand, nine hundred and ninety-five point zero
p1423
I1
sVaiken
p1424
I1
sVshawn
p1425
I1
sVlight
p1426
I1
sVl
p1427
I1
sVbeacon
p1428
I1
ssI268
(dp1429
Vlillian
p1430
I1
sVbost
p1431
I1
sVgay
p1432
I1
sVletter
p1433
I1
ssI269
(dp1434
Vbost
p1435
I1
sVagn
p1436
I1
sVsister
p1437
I1
sVmari
p1438
I1
sVgay
p1439
I1
ssI270
(dp1440
Vfabl
p1441
I1
sVstori
p1442
I1
sVshrewd
p1443
I1
sVfarmer
p1444
I1
ssI271
(dp1445
Vwilliam
p1446
I1
sVmind
p1447
I1
sVwar
p1448
I1
sVburrough
p1449
I1
ssI272
(dp1450
Vone thousand, nine hundred and ninety-one point zero
p1451
I1
sVadam
p1452
I1
sVcabin
p1453
I1
sVposzar
p1454
I1
ssI273
(dp1455
Vmade
p1456
I1
sVdanc
p1457
I1
sVcharl
p1458
I1
sVbell
p1459
I1
ssI274
(dp1460
Vkimberli
p1461
I1
sVcarter
p1462
I1
sVtear
p1463
I1
sVann
p1464
I1
sVone thousand, nine hundred and ninety-two point zero
p1465
I1
sVglass
p1466
I1
ssI275
(dp1467
Vadventur
p1468
I1
sValaddin
p1469
I1
ssI276
(dp1470
Vhillman
p1471
I1
sVbrand
p1472
I1
sVjohn
p1473
I1
sVr
p1474
I1
sVjr
p1475
I1
ssI277
(dp1476
Vread
p1477
I1
sVwinwood
p1478
I1
sVone thousand, nine hundred and thirty-three point zero
p1479
I1
sVoutcast
p1480
I1
ssI278
(dp1481
Vmeant
p1482
I1
sVdevelop
p1483
I1
sVwa
p1484
I1
sVresearch
p1485
I1
sValway
p1486
I1
sVpeshota
p1487
I1
ssI279
(dp1488
Vstori
p1489
I1
sVfred
p1490
I1
ssI280
(dp1491
Vinterview
p1492
I1
sVwilliam
p1493
I1
sVone thousand, nine hundred and sixty-six point zero
p1494
I1
sVburrough
p1495
I1
ssI281
(dp1496
Vstori
p1497
I1
sVsilver
p1498
I1
sVblaze
p1499
I1
ssI282
(dp1500
Vblind
p1501
I1
sVbradley
p1502
I1
sVtobi
p1503
I1
sVfate
p1504
I1
ssI283
(dp1505
Vtaxi
p1506
I1
sVdave
p1507
I1
sVszechuan
p1508
I1
sVbealer
p1509
I1
ssI284
(dp1510
Vfarber
p1511
I1
sV21st
p1512
I1
sVnineteen million, nine hundred and twenty-one thousand, nine hundred and ninety-three point zero
p1513
I1
sVrichard
p1514
I1
sVh
p1515
I1
sVbreak
p1516
I1
sVcenturi
p1517
I1
sVphilip
p1518
I1
sVadventur
p1519
I1
sVnixon
p1520
I1
ssI285
(dp1521
Vwa
p1522
I1
sVcontest
p1523
I1
sVnight
p1524
I1
sVdark
p1525
I1
sVstormi
p1526
I1
sVbulwerlytton
p1527
I1
sVbest
p1528
I1
ssI286
(dp1529
Vbost
p1530
I1
sVcollect
p1531
I1
sVone thousand, nine hundred and ninety-four point zero
p1532
I1
sVpoetri
p1533
I1
sVgay
p1534
I1
ssI287
(dp1535
Vsinger
p1536
I1
sVmyer
p1537
I1
sVdepth
p1538
I1
sVsteven
p1539
I1
ssI288
(dp1540
Vwilli
p1541
I1
sVshaw
p1542
I1
sVwalt
p1543
I1
sVbob
p1544
I1
sVenchant
p1545
I1
sVduplic
p1546
I1
ssI289
(dp1547
Vone thousand, nine hundred and ninety-five point zero
p1548
I1
sVeighteen point zero
p1549
I1
sVjuanri
p1550
I1
sVbrendan
p1551
I1
sVmeara
p1552
I1
sVstori
p1553
I1
sVtrap
p1554
I1
sVflak
p1555
I1
ssI290
(dp1556
Vlodger
p1557
I1
sVadventur
p1558
I1
sVveil
p1559
I1
ssI291
(dp1560
Vmarti
p1561
I1
sVweiss
p1562
I1
sVfriend
p1563
I1
sVbest
p1564
I1
sVman
p1565
I1
ssI292
(dp1566
Vfarber
p1567
I1
sV21st
p1568
I1
sVnineteen million, nine hundred and twenty-one thousand, nine hundred and ninety-three point zero
p1569
I1
sVrichard
p1570
I1
sVh
p1571
I1
sVbreak
p1572
I1
sVcenturi
p1573
I1
sVphilip
p1574
I1
sVadventur
p1575
I1
sVnixon
p1576
I1
ssI293
(dp1577
Vmichael
p1578
I1
sVprobe
p1579
I1
sVmind
p1580
I1
sVabbot
p1581
I1
ssI294
(dp1582
Vaiken
p1583
I1
sVmovi
p1584
I1
sVshawn
p1585
I1
sVl
p1586
I1
sVcheezi
p1587
I1
sVpanacea
p1588
I1
ssI295
(dp1589
Vstori
p1590
I1
sVknucklebon
p1591
I1
ssI296
(dp1592
Vcuriou
p1593
I1
sVpenguin
p1594
I1
sVae
p1595
I1
sVsubzero
p1596
I1
sVgeorgi
p1597
I1
ssI297
(dp1598
Vsituat
p1599
I1
sVkortron
p1600
I1
sVrealiti
p1601
I1
ssI298
(dp1602
Vold
p1603
I1
sVcrypt
p1604
I1
sVladi
p1605
I1
sVaesop
p1606
I1
sVblood
p1607
I1
sVupdat
p1608
I1
ssI299
(dp1609
Vjohn
p1610
I1
sVdudley
p1611
I1
sVbear
p1612
I1
ssI300
(dp1613
Vlamb
p1614
I1
sVwolf
p1615
I1
ssI301
(dp1616
Vboy
p1617
I1
sVdeath
p1618
I1
sVmanu
p1619
I1
sVavocado
p1620
I1
sVexcerpt
p1621
I1
sVpinkwat
p1622
I1
sVdaniel
p1623
I1
sVrelev
p1624
I1
sVsnarkout
p1625
I1
ssI302
(dp1626
Vdorothi
p1627
I1
sVlindman
p1628
I1
sVpaus
p1629
I1
sVpregnant
p1630
I1
ssI303
(dp1631
Vpoem
p1632
I1
sVtree
p1633
I1
ssI304
(dp1634
Vnigel
p1635
I1
sVsaga
p1636
I1
sVjune
p1637
I1
sVtwelve point zero
p1638
I1
sVone thousand, nine hundred and eighty-nine point zero
p1639
I1
sVhedgehog
p1640
I1
sVfive point zero
p1641
I1
ssI305
(dp1642
Vfarber
p1643
I1
sV21st
p1644
I1
sVnineteen million, nine hundred and twenty-one thousand, nine hundred and ninety-three point zero
p1645
I1
sVrichard
p1646
I1
sVh
p1647
I1
sVbreak
p1648
I1
sVcenturi
p1649
I1
sVphilip
p1650
I1
sVadventur
p1651
I1
sVnixon
p1652
I1
ssI306
(dp1653
Vrussello
p1654
I1
sVmike
p1655
I1
sVfather
p1656
I1
ssI307
(dp1657
Vone thousand, nine hundred and ninety-three point zero
p1658
I1
sVderouen
p1659
I1
sVjoe
p1660
I1
sVmuse
p1661
I1
ssI308
(dp1662
Vstori
p1663
I1
sVmartyr
p1664
I1
sVdetail
p1665
I1
ssI309
(dp1666
Vstori
p1667
I1
sViron
p1668
I1
sVman
p1669
I1
ssI310
(dp1670
Vfabl
p1671
I1
sVbird
p1672
I1
sVlittl
p1673
I1
sVgolden
p1674
I1
ssI311
(dp1675
Vlunch
p1676
I1
sVfranci
p1677
I1
sVpark
p1678
I1
sVkaltenbaugh
p1679
I1
ssI312
(dp1680
Vant
p1681
I1
sVfabl
p1682
I1
sVcricket
p1683
I1
ssI313
(dp1684
Vcondit
p1685
I1
sVstori
p1686
I1
sVair
p1687
I1
ssI314
(dp1688
Vswancer
p1689
I1
sVtea
p1690
I1
sVbrant
p1691
I1
sVdevil
p1692
I1
sVtime
p1693
I1
ssI315
(dp1694
Vprogramm
p1695
I1
sVgreg
p1696
I1
sVborek
p1697
I1
sVx
p1698
I1
ssI316
(dp1699
Vrailleur
p1700
I1
sVranger
p1701
I1
sVwork
p1702
I1
sVfiction
p1703
I1
sVradar
p1704
I1
sVinterview
p1705
I1
ssI317
(dp1706
Vgot
p1707
I1
sVsailor
p1708
I1
sVted
p1709
I1
ssI318
(dp1710
Vpoem
p1711
I1
sVeye
p1712
I1
ssI319
(dp1713
Vrich
p1714
I1
sVimmorti
p1715
I1
sVtodd
p1716
I1
ssI320
(dp1717
Vharold
p1718
I1
sVcupid
p1719
I1
sVpsych
p1720
I1
sVtheori
p1721
I1
sVdr
p1722
I1
sVlevdah
p1723
I1
ssI321
(dp1724
Vgordon
p1725
I1
sVbrambl
p1726
I1
sVchapman
p1727
I1
ssI322
(dp1728
Vplanet
p1729
I1
sVjim
p1730
I1
sVzachari
p1731
I1
sVwelcom
p1732
I1
sVkampf
p1733
I1
ssI323
(dp1734
Vfranci
p1735
I1
sVchees
p1736
I1
sVkaltenbaugh
p1737
I1
ssI324
(dp1738
Vgreen
p1739
I1
sVmelissa
p1740
I1
sVdragon
p1741
I1
ssI325
(dp1742
Vadventur
p1743
I1
sVengin
p1744
I1
sVthumb
p1745
I1
ssI326
(dp1746
Vlang
p1747
I1
sVmission
p1748
I1
sVjon
p1749
I1
ssI327
(dp1750
Vfabl
p1751
I1
sVsleep
p1752
I1
sVprincess
p1753
I1
ssI328
(dp1754
Vkneeslapp
p1755
I1
sVjuli
p1756
I1
sVtwenty-three point zero
p1757
I1
sVone thousand, nine hundred and ninety-one point zero
p1758
I1
sVslafathor
p1759
I1
ssI329
(dp1760
Vone thousand, nine hundred and ninety point zero
p1761
I1
sVtravel
p1762
I1
sVposzar
p1763
I1
sVadam
p1764
I1
sVspace
p1765
I1
ssI330
(dp1766
Vgolden
p1767
I1
sVhoward
p1768
I1
sVmichael
p1769
I1
sVthree
p1770
I1
sVrule
p1771
I1
sVpoetri
p1772
I1
ssI331
(dp1773
Vhillman
p1774
I1
sVpsicop
p1775
I1
sVjack
p1776
I1
ssI332
(dp1777
Vnew
p1778
I1
sVland
p1779
I1
sVvengeanc
p1780
I1
ssI333
(dp1781
Vdreamworld
p1782
I1
sVbeeblebrox
p1783
I1
sVzaphod
p1784
I1
ssI334
(dp1785
Vname
p1786
I1
sVquaint
p1787
I1
sVlist
p1788
I1
sVlittl
p1789
I1
sVfunni
p1790
I1
sVstori
p1791
I1
sVtell
p1792
I1
ssI335
(dp1793
Vgabl
p1794
I1
sVadventur
p1795
I1
sVthree
p1796
I1
ssI336
(dp1797
Vzone
p1798
I1
sVmission
p1799
I1
sVstori
p1800
I1
sVmeet
p1801
I1
sVtwilight
p1802
I1
sVimposs
p1803
I1
ssI337
(dp1804
Vtwenty point zero
p1805
I1
sVone thousand, nine hundred and ninety-three point zero
p1806
I1
sVsunday
p1807
I1
sVfebruari
p1808
I1
sVnanci
p1809
I1
ssI338
(dp1810
Vstori
p1811
I1
sVfloyd
p1812
I1
sVgecko
p1813
I1
sVwombat
p1814
I1
ssI339
(dp1815
Ved
p1816
I1
sVexperi
p1817
I1
sVdavi
p1818
I1
sVone thousand, nine hundred and ninety-three point zero
p1819
I1
ssI340
(dp1820
Vkneeslapp
p1821
I1
sVslagathor
p1822
I1
sVjuli
p1823
I1
sVone thousand, nine hundred and ninety-one point zero
p1824
I1
sVtwenty-three point zero
p1825
I1
ssI341
(dp1826
Vglimps
p1827
I1
sV1245pm
p1828
I1
sVmind
p1829
I1
sVone thousand, nine hundred and ninety-three point zero
p1830
I1
sVsean
p1831
I1
sVgomez
p1832
I1
ssI342
(dp1833
Vdark
p1834
I1
sVmatthew
p1835
I1
sVstori
p1836
I1
sVcarpent
p1837
I1
sVcool
p1838
I1
ssI343
(dp1839
Vstori
p1840
I1
sVfrog
p1841
I1
sVhop
p1842
I1
ssI344
(dp1843
Vnigel
p1844
I1
sVtwenty-five point zero
p1845
I1
sVsaga
p1846
I1
sVmay
p1847
I1
sVone thousand, nine hundred and eighty-nine point zero
p1848
I1
sVtwo point zero
p1849
I1
sVhedgehog
p1850
I1
ssI345
(dp1851
Vflea
p1852
I1
sVstori
p1853
I1
sVone thousand, nine hundred and ninety-one point zero
p1854
I1
sVadam
p1855
I1
sVposzar
p1856
I1
ssI346
(dp1857
Vgod
p1858
I1
sVfruit
p1859
I1
sVtrichoseru
p1860
I1
sVpachanoi
p1861
I1
ssI347
(dp1862
Vspooftribut
p1863
I1
sVmovi
p1864
I1
sVromero
p1865
I1
sVl
p1866
I1
sVdead
p1867
I1
sVgeorg
p1868
I1
sVlive
p1869
I1
sVzombi
p1870
I1
sVsuzann
p1871
I1
sVmcallist
p1872
I1
ssI348
(dp1873
Vride
p1874
I1
sVstori
p1875
I1
sVhood
p1876
I1
sVred
p1877
I1
sVlittl
p1878
I1
ssI349
(dp1879
Vben
p1880
I1
sVchronicl
p1881
I1
sVblumenberg
p1882
I1
sVastru
p1883
I1
sVfather
p1884
I1
sVii
p1885
I1
sVadler
p1886
I1
ssI350
(dp1887
Vwest
p1888
I1
sVtravel
p1889
I1
sVsky
p1890
I1
sVpadr
p1891
I1
sVarchdukebishop
p1892
I1
sVkey
p1893
I1
sVfound
p1894
I1
sVtexa
p1895
I1
sVmartini
p1896
I1
ssI351
(dp1897
Vclub
p1898
I1
sVgirl
p1899
I1
sVcampbel
p1900
I1
sVcolin
p1901
I1
sVmonth
p1902
I1
ssI352
(dp1903
Vhonour
p1904
I1
sVtree
p1905
I1
sVpub
p1906
I1
sVliberti
p1907
I1
sVhanna
p1908
I1
ssI353
(dp1909
Vbrain
p1910
I1
sVhoward
p1911
I1
sVone thousand, nine hundred and seventy-nine point zero
p1912
I1
sVcannon
p1913
I1
sVdamag
p1914
I1
ssI354
(dp1915
Vcincinatti
p1916
I1
sVpoem
p1917
I1
sVate
p1918
I1
sVcockroach
p1919
I1
ssI355
(dp1920
Vnigel
p1921
I1
sVsaga
p1922
I1
sVjune
p1923
I1
sVtwo point zero
p1924
I1
sVone thousand, nine hundred and eighty-nine point zero
p1925
I1
sVthree point zero
p1926
I1
sVhedgehog
p1927
I1
ssI356
(dp1928
Vfabl
p1929
I1
sVred
p1930
I1
sVdragon
p1931
I1
ssI357
(dp1932
Vgirl
p1933
I1
sVpear
p1934
I1
sVstori
p1935
I1
sVlittl
p1936
I1
ssI358
(dp1937
Vone thousand, nine hundred and ninety-four point zero
p1938
I1
sVklingon
p1939
I1
sVaiken
p1940
I1
sVshawn
p1941
I1
sVwaterlog
p1942
I1
sVl
p1943
I1
ssI359
(dp1944
Vlom
p1945
I1
sVdegener
p1946
I1
sVpepsi
p1947
I1
sVmorpheou
p1948
I1
ssI360
(dp1949
Vdonatien
p1950
I1
sVsade
p1951
I1
sVfrancoi
p1952
I1
sVde
p1953
I1
sVstori
p1954
I1
sValphons
p1955
I1
ssI361
(dp1956
Vnovella
p1957
I1
sVschool
p1958
I1
sVdream
p1959
I1
ssI362
(dp1960
Vp
p1961
I1
sVdeer
p1962
I1
sVandrew
p1963
I1
sVvarga
p1964
I1
sVone thousand, nine hundred and ninety-two point zero
p1965
I1
ssI364
(dp1966
Vcarl
p1967
I1
sVday
p1968
I1
sValuminum
p1969
I1
sVmitchel
p1970
I1
ssI365
(dp1971
Vcampir
p1972
I1
sVweek
p1973
I1
sVstori
p1974
I1
sVbest
p1975
I1
sVbc
p1976
I1
ssI366
(dp1977
Vadventur
p1978
I1
sVthumb
p1979
I1
sVtom
p1980
I1
ssI367
(dp1981
Vdeclercq
p1982
I1
sVaway
p1983
I1
sVbill
p1984
I1
sVpeel
p1985
I1
ssI368
(dp1986
Vreal
p1987
I1
sVharvey
p1988
I1
sVlist
p1989
I1
sVstori
p1990
I1
sVpaul
p1991
I1
sVtrue
p1992
I1
ssI369
(dp1993
Vdougla
p1994
I1
sVscheme
p1995
I1
sVone thousand, nine hundred and ninety-three point zero
p1996
I1
sVpyramid
p1997
I1
sVwarren
p1998
I1
ssI370
(dp1999
Vgrape
p2000
I1
sVstori
p2001
I1
sVfox
p2002
I1
ssI371
(dp2003
Vthoma
p2004
I1
sVhuber
p2005
I1
sVclone
p2006
I1
sVnevin
p2007
I1
sVus
p2008
I1
ssI372
(dp2009
Vlure
p2010
I1
sVdocument
p2011
I1
sVsoft
p2012
I1
sVtemptress
p2013
I1
ssI373
(dp2014
Vfranci
p2015
I1
sVbert
p2016
I1
sVadventur
p2017
I1
sVbernec
p2018
I1
sVkaltenbaugh
p2019
I1
ssI374
(dp2020
Vadventur
p2021
I1
sVempti
p2022
I1
sVhous
p2023
I1
ssI375
(dp2024
Varnheim
p2025
I1
sVdomain
p2026
I1
ssI376
(dp2027
Vbost
p2028
I1
sVcemeteri
p2029
I1
sVgay
p2030
I1
sVmemori
p2031
I1
ssI377
(dp2032
Vstori
p2033
I1
sVnarcissu
p2034
I1
ssI378
(dp2035
Vlucillu
p2036
I1
sVwager
p2037
I1
sVmanli
p2038
I1
sVsong
p2039
I1
ssI379
(dp2040
Vperfect
p2041
I1
sVroberta
p2042
I1
sVbelinda
p2043
I1
sVpictur
p2044
I1
ssI380
(dp2045
Vcollect
p2046
I1
sVstori
p2047
I1
sVgood
p2048
I1
sVvariou
p2049
I1
ssI381
(dp2050
Vpricilla
p2051
I1
sVe
p2052
I1
sVgregg
p2053
I1
sVgerald
p2054
I1
sVprincess
p2055
I1
sVtrout
p2056
I1
ssI382
(dp2057
Vfabl
p2058
I1
sVprincess
p2059
I1
sVsheherazad
p2060
I1
sVomar
p2061
I1
sVprinc
p2062
I1
ssI383
(dp2063
Varcadia
p2064
I1
sVstori
p2065
I1
ssI384
(dp2066
Vnigel
p2067
I1
sVseventeen point zero
p2068
I1
sVsaga
p2069
I1
sVjune
p2070
I1
sVseven point zero
p2071
I1
sVone thousand, nine hundred and eighty-nine point zero
p2072
I1
sVhedgehog
p2073
I1
ssI385
(dp2074
Vsre
p2075
I1
sVrobert
p2076
I1
sVtrendl
p2077
I1
sVchapman
p2078
I1
sVhalf
p2079
I1
sVpaul
p2080
I1
sVgerth
p2081
I1
sVchri
p2082
I1
sVdarker
p2083
I1
ssI386
(dp2084
Vtolstoy
p2085
I1
sVemperor
p2086
I1
sVquestion
p2087
I1
sVthree
p2088
I1
sVleo
p2089
I1
ssI387
(dp2090
Vronald
p2091
I1
sVstori
p2092
I1
sVfrump
p2093
I1
sVdave
p2094
I1
sVbealer
p2095
I1
ssI388
(dp2096
Vpip
p2097
I1
sVorang
p2098
I1
sVstori
p2099
I1
sVfive
p2100
I1
ssI389
(dp2101
Vlife
p2102
I1
sVunivers
p2103
I1
sVadam
p2104
I1
sVdougla
p2105
I1
sVeveryth
p2106
I1
sVtranscript
p2107
I1
sVcomplet
p2108
I1
ssI390
(dp2109
Vone thousand, nine hundred and ninety-one point zero
p2110
I1
sVcabinet
p2111
I1
sVfile
p2112
I1
sVpeshota
p2113
I1
sVcalendar
p2114
I1
sVcouch
p2115
I1
sVdecemb
p2116
I1
sVnine point zero
p2117
I1
ssI391
(dp2118
Vfabl
p2119
I1
sVgretel
p2120
I1
sVhansel
p2121
I1
ssI392
(dp2122
Vplesco
p2123
I1
sVcraig
p2124
I1
sVasleep
p2125
I1
ssI393
(dp2126
Vold
p2127
I1
sVadventur
p2128
I1
sVshoscomb
p2129
I1
sVplace
p2130
I1
ssI394
(dp2131
Vfear
p2132
I1
sVold
p2133
I1
sVgrow
p2134
I1
ssI395
(dp2135
Vunlucki
p2136
I1
sVfabl
p2137
I1
sVwarrior
p2138
I1
ssI396
(dp2139
Vdeath
p2140
I1
sVfour point zero
p2141
I1
sVmoon
p2142
I1
sVfiction
p2143
I1
ssI397
(dp2144
Vmatt
p2145
I1
sVbattletech
p2146
I1
sVrule
p2147
I1
sVcollect
p2148
I1
sVmurphi
p2149
I1
sVaddit
p2150
I1
ssI398
(dp2151
Vterror
p2152
I1
sVrampag
p2153
I1
sVfour hundred and fourteen point zero
p2154
I1
sVbear
p2155
I1
sVdarksid
p2156
I1
ssI399
(dp2157
Vdiner
p2158
I1
sVwa
p2159
I1
sVlucia
p2160
I1
sVchamber
p2161
I1
sVguy
p2162
I1
sVjohn
p2163
I1
ssI400
(dp2164
Vstori
p2165
I1
sVthree
p2166
I1
sVbear
p2167
I1
sVgoldilock
p2168
I1
ssI401
(dp2169
Vfabl
p2170
I1
sVfrog
p2171
I1
sVox
p2172
I1
ssI402
(dp2173
Vthoma
p2174
I1
sVhuber
p2175
I1
sVnevin
p2176
I1
sVbummer
p2177
I1
ssI403
(dp2178
Vscott
p2179
I1
sVjason
p2180
I1
sVconflict
p2181
I1
ssI404
(dp2182
Vcontradict
p2183
I1
sVone point zero
p2184
I1
sVbrunet
p2185
I1
sVrick
p2186
I1
ssI405
(dp2187
Vnovel
p2188
I1
sVtax
p2189
I1
sVback
p2190
I1
sVmahler
p2191
I1
sVpaul
p2192
I1
sVnineteen million, nine hundred and eleven thousand, nine hundred and ninety-two point zero
p2193
I1
ssI406
(dp2194
Vissu
p2195
I1
sVone thousand, nine hundred and ninety-five point zero
p2196
I1
sVone point zero
p2197
I1
sVboom
p2198
I1
ssI407
(dp2199
Vbruce
p2200
I1
sVcorcoran
p2201
I1
sVdrake
p2202
I1
ssI408
(dp2203
Vdeath
p2204
I1
sVus
p2205
I1
sVode
p2206
I1
sVone thousand, nine hundred and ninety-three point zero
p2207
I1
sVnineteen point zero
p2208
I1
sVoctob
p2209
I1
sVpoetri
p2210
I1
ssI409
(dp2211
Vjame
p2212
I1
sVpart
p2213
I1
sVhotlin
p2214
I1
sVzachari
p2215
I1
sViv
p2216
I1
ssI410
(dp2217
Vsaga
p2218
I1
sVnigel
p2219
I1
sVhedgehog
p2220
I1
ssI411
(dp2221
Vsaga
p2222
I1
sVsuper
p2223
I1
sVcontinu
p2224
I1
sVblabnovela
p2225
I1
sVdatanet
p2226
I1
ssI412
(dp2227
Vone thousand, nine hundred and eighty-six point zero
p2228
I1
sVmcdonaldland
p2229
I1
sVjune
p2230
I1
sVten point zero
p2231
I1
sVjoe
p2232
I1
sVday
p2233
I1
sVgi
p2234
I1
ssI413
(dp2235
Vopera
p2236
I1
sVone thousand, seven hundred and twenty-eight point zero
p2237
I1
sVjohn
p2238
I1
sVgay
p2239
I1
sVbeggar
p2240
I1
ssI414
(dp2241
Vnigel
p2242
I1
sVsaga
p2243
I1
sVfour point zero
p2244
I1
sVjune
p2245
I1
sVone thousand, nine hundred and eighty-nine point zero
p2246
I1
sVtwo point zero
p2247
I1
sVhedgehog
p2248
I1
ssI415
(dp2249
Vblue
p2250
I1
sVvalentin
p2251
I1
sVnilsson
p2252
I1
sVday
p2253
I1
sVba
p2254
I1
ssI416
(dp2255
Vstori
p2256
I1
sVwise
p2257
I1
sVgirl
p2258
I1
sVlittl
p2259
I1
ssI417
(dp2260
Vfleshman
p2261
I1
sVron
p2262
I1
sVluf
p2263
I1
ssI418
(dp2264
Vadventur
p2265
I1
sVsix
p2266
I1
sVnapoleon
p2267
I1
ssI419
(dp2268
Valien
p2269
I1
sVrid
p2270
I1
sVriddler
p2271
I1
sVget
p2272
I1
ssI420
(dp2273
Vretribut
p2274
I1
sVandrew
p2275
I1
sVvarga
p2276
I1
sVone thousand, nine hundred and ninety-one point zero
p2277
I1
ssI421
(dp2278
Vsir
p2279
I1
sVarthur
p2280
I1
sVconan
p2281
I1
sVdoyl
p2282
I1
sVhound
p2283
I1
sVbaskervil
p2284
I1
ssI422
(dp2285
Vmidnight
p2286
I1
sVjohnson
p2287
I1
sVkarin
p2288
I1
ssI423
(dp2289
Vnew
p2290
I1
sVemperor
p2291
I1
sVcloth
p2292
I1
ssI424
(dp2293
Vwilliam
p2294
I1
sVburrough
p2295
I1
sVimmort
p2296
I1
ssI425
(dp2297
Vgoe
p2298
I1
sVabyss
p2299
I1
sVlife
p2300
I1
sVedg
p2301
I1
ssI426
(dp2302
Vearth
p2303
I1
sVpeac
p2304
I1
sVvision
p2305
I1
ssI427
(dp2306
Vinsan
p2307
I1
sVcloset
p2308
I1
sVkeep
p2309
I1
sV13th
p2310
I1
sVapril
p2311
I1
sVweatherman
p2312
I1
sVone thousand, nine hundred and eighty-eight point zero
p2313
I1
ssI428
(dp2314
Vstainless
p2315
I1
sVmillion
p2316
I1
sVthirty-seven point zero
p2317
I1
sVrat
p2318
I1
sVsteal
p2319
I1
sVcool
p2320
I1
ssI429
(dp2321
Vspellweav
p2322
I1
sVinfrom
p2323
I1
ssI430
(dp2324
Vflat
p2325
I1
sVaugust
p2326
I1
sVtire
p2327
I1
sVone thousand, nine hundred and eighty-eight point zero
p2328
I1
sVsocial
p2329
I1
sVvike
p2330
I1
sVfive point zero
p2331
I1
ssI431
(dp2332
Vproduct
p2333
I1
sVhour
p2334
I1
sValdebaran
p2335
I1
sVbagel
p2336
I1
sV11th
p2337
I1
sVman
p2338
I1
ssI432
(dp2339
Vhors
p2340
I1
sVwolf
p2341
I1
ssI433
(dp2342
Vrp
p2343
I1
sVstori
p2344
I1
sVadventur
p2345
I1
sVgrang
p2346
I1
sVabbey
p2347
I1
ssI434
(dp2348
Vblaster
p2349
I1
sVreadi
p2350
I1
sVwilliam
p2351
I1
sVe
p2352
I1
sVcollin
p2353
I1
ssI435
(dp2354
Vmarcu
p2355
I1
sVcicero
p2356
I1
sVtulliu
p2357
I1
sVtreason
p2358
I1
ssI436
(dp2359
Vexcerpt
p2360
I1
sVprotocultur
p2361
I1
sVbook
p2362
I1
sVshadow
p2363
I1
sVrobotech
p2364
I1
sVchildren
p2365
I1
ssI437
(dp2366
Vstori
p2367
I1
sVgem
p2368
I1
sVdragon
p2369
I1
ssI438
(dp2370
Vpiper
p2371
I1
sVfur
p2372
I1
sVangel
p2373
I1
sVsickl
p2374
I1
ssI439
(dp2375
Vbeast
p2376
I1
sVcollect
p2377
I1
sVfiction
p2378
I1
ssI440
(dp2379
Vgo
p2380
I1
sVcame
p2381
I1
sVidea
p2382
I1
sVthi
p2383
I1
ssI441
(dp2384
Vlucillu
p2385
I1
sVshindar
p2386
I1
sVencamp
p2387
I1
sVsaturday
p2388
I1
sVnight
p2389
I1
ssI442
(dp2390
Vmathew
p2391
I1
sVknight
p2392
I1
sVmegayonk
p2393
I1
sVstori
p2394
I1
sVgum
p2395
I1
sVtwo thousand and thirty-eight point zero
p2396
I1
sVbubbl
p2397
I1
sVfoil
p2398
I1
sVryan
p2399
I1
sVjanuari
p2400
I1
sVone thousand, nine hundred and ninety-two point zero
p2401
I1
sVcard
p2402
I1
ssI443
(dp2403
Vbrown
p2404
I1
sVnightmar
p2405
I1
sVfredric
p2406
I1
sVgrey
p2407
I1
ssI444
(dp2408
Vsoldier
p2409
I1
sVtin
p2410
I1
sVstori
p2411
I1
ssI445
(dp2412
Vpeasant
p2413
I1
sVfox
p2414
I1
sVsnake
p2415
I1
ssI446
(dp2416
Vbost
p2417
I1
sVflower
p2418
I1
sVgay
p2419
I1
sVtime
p2420
I1
ssI447
(dp2421
Vtin
p2422
I1
sVchapman
p2423
I1
sVwarmth
p2424
I1
sVgordon
p2425
I1
ssI448
(dp2426
Vdark
p2427
I1
sVsucker
p2428
I1
sVquantum
p2429
I1
sVmechan
p2430
I1
ssI449
(dp2431
Vadventur
p2432
I1
sVthree
p2433
I1
sVstudent
p2434
I1
ssI450
(dp2435
Vepstein
p2436
I1
sVjeff
p2437
I1
sVjackmac
p2438
I1
sVdiscoveri
p2439
I1
ssI451
(dp2440
Vearli
p2441
I1
sVmagic
p2442
I1
sVeighteen point zero
p2443
I1
sVstartup
p2444
I1
sVone thousand, nine hundred and ninety-one point zero
p2445
I1
sVnovemb
p2446
I1
sVpeshota
p2447
I1
sVhightech
p2448
I1
sVday
p2449
I1
ssI452
(dp2450
Vdad
p2451
I1
sVp
p2452
I1
sVpickup
p2453
I1
sVandrew
p2454
I1
sVvarga
p2455
I1
ssI453
(dp2456
Vbost
p2457
I1
sVencod
p2458
I1
sVgay
p2459
I1
sVstrand
p2460
I1
ssI463
(dp2461
Vplay
p2462
I1
sVsre
p2463
I2
sVsaga
p2464
I1
sVrenaud
p2465
I1
sVjosh
p2466
I1
sVgame
p2467
I1
sVever
p2468
I1
sVbest
p2469
I1
ssI464
(dp2470
Vrealm
p2471
I1
sVrenaud
p2472
I1
sVjosh
p2473
I1
sVunsung
p2474
I1
sVelit
p2475
I1
sVstori
p2476
I1
sVsolar
p2477
I1
sVhero
p2478
I1
sVtrue
p2479
I1
ssI465
(dp2480
Vuntold
p2481
I1
sVrenaud
p2482
I1
sVjosh
p2483
I1
sVelit
p2484
I1
sVstori
p2485
I1
sVsolar
p2486
I1
sVrealm
p2487
I1
sVultra
p2488
I1
ssI466
(dp2489
Vrealm
p2490
I1
sVconfront
p2491
I1
sVjosh
p2492
I1
sViv
p2493
I1
sVelit
p2494
I1
sVsolar
p2495
I1
sVrenaud
p2496
I1
ssI467
(dp2497
Vrealm
p2498
I1
sVrenaud
p2499
I1
sVjosh
p2500
I1
sVelit
p2501
I1
sVsolar
p2502
I1
sVv
p2503
I1
sVunderground
p2504
I1
ssI468
(dp2505
Vrealm
p2506
I1
sVrestor
p2507
I1
sVvi
p2508
I1
sVjosh
p2509
I1
sVelit
p2510
I1
sVsolar
p2511
I1
sVrenaud
p2512
I1
sVallianc
p2513
I1
ssI469
(dp2514
Vrealm
p2515
I1
sVrenaud
p2516
I1
sVjosh
p2517
I1
sVelit
p2518
I1
sVseven point zero
p2519
I1
sVpetro
p2520
I1
sVsolar
p2521
I1
ssI470
(dp2522
Vrealm
p2523
I1
sVrenaud
p2524
I1
sVjosh
p2525
I1
sVelit
p2526
I1
sVviii
p2527
I1
sVsolar
p2528
I1
sVkazik
p2529
I1
ssI471
(dp2530
Vix
p2531
I1
sVrealm
p2532
I1
sVrenaud
p2533
I1
sVjosh
p2534
I1
sVsurviv
p2535
I1
sVelit
p2536
I1
sVsolar
p2537
I1
sVfittest
p2538
I1
ssI472
(dp2539
Vlegaci
p2540
I1
sVrealm
p2541
I1
sVrenaud
p2542
I1
sVjosh
p2543
I1
sVelit
p2544
I1
sVsolar
p2545
I1
sVx
p2546
I1
ssI473
(dp2547
Vfeqh
p2548
I1
sVrealm
p2549
I1
sVrenaud
p2550
I1
sVjosh
p2551
I1
sVgalaxi
p2552
I1
sVelit
p2553
I1
sVsolar
p2554
I1
ssI474
(dp2555
Vrealm
p2556
I1
sVrenaud
p2557
I1
sVjosh
p2558
I1
sVelit
p2559
I1
sVsolar
p2560
I1
sVfinal
p2561
I1
ssI475
(dp2562
Vrealm
p2563
I1
sVrenaud
p2564
I1
sVjosh
p2565
I1
sVgalaxi
p2566
I1
sVelit
p2567
I1
sVsolar
p2568
I1
sVsei
p2569
I1
ssI476
(dp2570
Vcommerc
p2571
I1
sVsre
p2572
I1
sVrenaud
p2573
I1
sVjosh
p2574
I1
sVtrade
p2575
I1
sVtheori
p2576
I1
ssI477
(dp2577
Vrealm
p2578
I1
sVrenaud
p2579
I1
sVjosh
p2580
I1
sVelit
p2581
I1
sVsolar
p2582
I1
sVx2
p2583
I1
sVx1
p2584
I1
ss.